 woff2_decode

 Timestamp is 5f284188 (Mon Aug  3 12:55:36 2020)

 Preferred load address is 0000000180000000

 Start         Length     Name                   Class
 0001:00000000 00000070H .text$di                CODE
 0001:00000070 00024f80H .text$mn                CODE
 0001:00024ff0 00000020H .text$mn$00             CODE
 0001:00025010 000003c0H .text$x                 CODE
 0001:000253d0 000000b4H .text$yd                CODE
 0002:00000000 00000268H .idata$5                DATA
 0002:00000268 00000010H .00cfg                  DATA
 0002:00000278 00000008H .CRT$XCA                DATA
 0002:00000280 00000018H .CRT$XCC                DATA
 0002:00000298 00000010H .CRT$XCL                DATA
 0002:000002a8 00000008H .CRT$XCU                DATA
 0002:000002b0 00000008H .CRT$XCZ                DATA
 0002:000002b8 00000008H .CRT$XIA                DATA
 0002:000002c0 00000028H .CRT$XIC                DATA
 0002:000002e8 00000008H .CRT$XIZ                DATA
 0002:000002f0 00000008H .CRT$XPA                DATA
 0002:000002f8 00000010H .CRT$XPX                DATA
 0002:00000308 00000008H .CRT$XPXA               DATA
 0002:00000310 00000008H .CRT$XPZ                DATA
 0002:00000318 00000008H .CRT$XTA                DATA
 0002:00000320 00000010H .CRT$XTZ                DATA
 0002:00000328 00000000H .gfids$y                DATA
 0002:00000330 00044840H .rdata                  DATA
 0002:00044b70 0000037cH .rdata$r                DATA
 0002:00044eec 00000414H .rdata$zzzdbg           DATA
 0002:00045300 00000008H .rtc$IAA                DATA
 0002:00045308 00000008H .rtc$IZZ                DATA
 0002:00045310 00000008H .rtc$TAA                DATA
 0002:00045318 00000008H .rtc$TZZ                DATA
 0002:00045320 00001a38H .xdata                  DATA
 0002:00046d58 000001dcH .xdata$x                DATA
 0002:00046f34 00000020H .didat$2                DATA
 0002:00046f54 00000024H .didat$3                DATA
 0002:00046f78 000000e8H .didat$4                DATA
 0002:00047060 000007d8H .didat$6                DATA
 0002:00047838 000000e8H .didat$7                DATA
 0002:00047920 0000005cH .edata                  DATA
 0002:0004797c 00000014H .idata$2                DATA
 0002:00047990 00000018H .idata$3                DATA
 0002:000479a8 00000268H .idata$4                DATA
 0002:00047c10 00000594H .idata$6                DATA
 0003:00000000 00000c30H .data                   DATA
 0003:00000c30 00000118H .data$r                 DATA
 0003:00000d48 000000e8H .didat$5                DATA
 0003:00000e30 00001838H .bss                    DATA
 0004:00000000 00001c80H .pdata                  DATA
 0005:00000000 00000060H .rsrc$01                DATA
 0005:00000060 00000180H .rsrc$02                DATA

  Address         Publics by Value              Rva+Base               Lib:Object

 0000:00000000       __guard_iat_count          0000000000000000     <absolute>
 0000:00000000       __hybrid_code_map_count    0000000000000000     <absolute>
 0000:00000000       __guard_fids_count         0000000000000000     <absolute>
 0000:00000000       __volatile_metadata        0000000000000000     <absolute>
 0000:00000000       __guard_longjmp_count      0000000000000000     <absolute>
 0000:00000000       __guard_longjmp_table      0000000000000000     <absolute>
 0000:00000000       __hybrid_code_map          0000000000000000     <absolute>
 0000:00000000       __guard_iat_table          0000000000000000     <absolute>
 0000:00000000       ___safe_se_handler_count   0000000000000000     <absolute>
 0000:00000000       __enclave_config           0000000000000000     <absolute>
 0000:00000000       ___safe_se_handler_table   0000000000000000     <absolute>
 0000:00000000       __guard_fids_table         0000000000000000     <absolute>
 0000:00000000       __hybrid_auxiliary_iat     0000000000000000     <absolute>
 0000:00000000       __dynamic_value_reloc_table 0000000000000000     <absolute>
 0000:00000100       __guard_flags              0000000000000100     <absolute>
 0000:00000000       __ImageBase                0000000180000000     <linker-defined>
 0001:00000070       ?Read@Buffer@woff2@@QEAA_NPEAE_K@Z 0000000180001070 f i font.obj
 0001:000000f0       ?ReadU16@Buffer@woff2@@QEAA_NPEAG@Z 00000001800010f0 f i font.obj
 0001:00000120       ??A?$map@IIU?$less@I@std@@V?$allocator@U?$pair@$$CBII@std@@@2@@std@@QEAAAEAIAEBI@Z 0000000180001120 f i font.obj
 0001:000001f0       ?_Tidy@?$_Tree@V?$_Tmap_traits@IIU?$less@I@std@@V?$allocator@U?$pair@$$CBII@std@@@2@$0A@@std@@@std@@IEAAXXZ 00000001800011f0 f i font.obj
 0001:00000280       ?_Tidy@?$vector@IV?$allocator@I@std@@@std@@AEAAXXZ 0000000180001280 f i font.obj
 0001:000002e0       ?_Erase@?$_Tree@V?$_Tmap_traits@IIU?$less@I@std@@V?$allocator@U?$pair@$$CBII@std@@@2@$0A@@std@@@std@@IEAAXPEAU?$_Tree_node@U?$pair@$$CBII@std@@PEAX@2@@Z 00000001800012e0 f i font.obj
 0001:000002e0       ?_Erase@?$_Tree@V?$_Tmap_traits@U?$pair@II@std@@IU?$less@U?$pair@II@std@@@2@V?$allocator@U?$pair@$$CBU?$pair@II@std@@I@std@@@2@$0A@@std@@@std@@IEAAXPEAU?$_Tree_node@U?$pair@$$CBU?$pair@II@std@@I@std@@PEAX@2@@Z 00000001800012e0 f i woff2_dec.obj
 0001:000002e0       ?_Erase@?$_Tree@V?$_Tmap_traits@IGU?$less@I@std@@V?$allocator@U?$pair@$$CBIG@std@@@2@$0A@@std@@@std@@IEAAXPEAU?$_Tree_node@U?$pair@$$CBIG@std@@PEAX@2@@Z 00000001800012e0 f i woff2_dec.obj
 0001:00000340       ??$_Emplace_reallocate@AEBI@?$vector@IV?$allocator@I@std@@@std@@QEAAPEAIQEAIAEBI@Z 0000000180001340 f i font.obj
 0001:000004e0       ?_Xlength@?$vector@GV?$allocator@G@std@@@std@@CAXXZ 00000001800014e0 f i transform.obj
 0001:000004e0       ?_Xlength@?$vector@PEAUTable@woff2@@V?$allocator@PEAUTable@woff2@@@std@@@std@@CAXXZ 00000001800014e0 f i woff2_dec.obj
 0001:000004e0       ?_Xlength@?$vector@IV?$allocator@I@std@@@std@@CAXXZ 00000001800014e0 f i font.obj
 0001:000004e0       ?_Xlength@?$vector@EV?$allocator@E@std@@@std@@CAXXZ 00000001800014e0 f i font.obj
 0001:000004e0       ?_Xlength@?$vector@UTable@woff2@@V?$allocator@UTable@woff2@@@std@@@std@@CAXXZ 00000001800014e0 f i woff2_dec.obj
 0001:000004e0       ?_Xlength@?$vector@FV?$allocator@F@std@@@std@@CAXXZ 00000001800014e0 f i transform.obj
 0001:00000500       ??$_Insert_hint@AEAU?$pair@$$CBII@std@@PEAU?$_Tree_node@U?$pair@$$CBII@std@@PEAX@2@@?$_Tree@V?$_Tmap_traits@IIU?$less@I@std@@V?$allocator@U?$pair@$$CBII@std@@@2@$0A@@std@@@std@@IEAA?AV?$_Tree_iterator@V?$_Tree_val@U?$_Tree_simple_types@U?$pair@$$CBII@std@@@std@@@std@@@1@V?$_Tree_const_iterator@V?$_Tree_val@U?$_Tree_simple_types@U?$pair@$$CBII@std@@@std@@@std@@@1@AEAU?$pair@$$CBII@1@PEAU?$_Tree_node@U?$pair@$$CBII@std@@PEAX@1@@Z 0000000180001500 f i font.obj
 0001:00000500       ??$_Insert_hint@AEAU?$pair@$$CBIG@std@@PEAU?$_Tree_node@U?$pair@$$CBIG@std@@PEAX@2@@?$_Tree@V?$_Tmap_traits@IGU?$less@I@std@@V?$allocator@U?$pair@$$CBIG@std@@@2@$0A@@std@@@std@@IEAA?AV?$_Tree_iterator@V?$_Tree_val@U?$_Tree_simple_types@U?$pair@$$CBIG@std@@@std@@@std@@@1@V?$_Tree_const_iterator@V?$_Tree_val@U?$_Tree_simple_types@U?$pair@$$CBIG@std@@@std@@@std@@@1@AEAU?$pair@$$CBIG@1@PEAU?$_Tree_node@U?$pair@$$CBIG@std@@PEAX@1@@Z 0000000180001500 f i woff2_dec.obj
 0001:00000820       ?_Destroy_if_node@?$_Tree@V?$_Tmap_traits@U?$pair@II@std@@IU?$less@U?$pair@II@std@@@2@V?$allocator@U?$pair@$$CBU?$pair@II@std@@I@std@@@2@$0A@@std@@@std@@IEAAXPEAU?$_Tree_node@U?$pair@$$CBU?$pair@II@std@@I@std@@PEAX@2@@Z 0000000180001820 f i woff2_dec.obj
 0001:00000820       ?_Destroy_if_node@?$_Tree@V?$_Tmap_traits@IGU?$less@I@std@@V?$allocator@U?$pair@$$CBIG@std@@@2@$0A@@std@@@std@@IEAAXPEAU?$_Tree_node@U?$pair@$$CBIG@std@@PEAX@2@@Z 0000000180001820 f i woff2_dec.obj
 0001:00000820       ?_Destroy_if_node@?$_Tree@V?$_Tmap_traits@IIU?$less@I@std@@V?$allocator@U?$pair@$$CBII@std@@@2@$0A@@std@@@std@@IEAAXPEAU?$_Tree_node@U?$pair@$$CBII@std@@PEAX@2@@Z 0000000180001820 f i font.obj
 0001:00000830       ??$_Insert_at@AEAU?$pair@$$CBII@std@@PEAU?$_Tree_node@U?$pair@$$CBII@std@@PEAX@2@@?$_Tree@V?$_Tmap_traits@IIU?$less@I@std@@V?$allocator@U?$pair@$$CBII@std@@@2@$0A@@std@@@std@@IEAA?AV?$_Tree_iterator@V?$_Tree_val@U?$_Tree_simple_types@U?$pair@$$CBII@std@@@std@@@std@@@1@_NPEAU?$_Tree_node@U?$pair@$$CBII@std@@PEAX@1@AEAU?$pair@$$CBII@1@1@Z 0000000180001830 f i font.obj
 0001:00000830       ??$_Insert_at@AEAU?$pair@$$CBU?$pair@II@std@@I@std@@PEAU?$_Tree_node@U?$pair@$$CBU?$pair@II@std@@I@std@@PEAX@2@@?$_Tree@V?$_Tmap_traits@U?$pair@II@std@@IU?$less@U?$pair@II@std@@@2@V?$allocator@U?$pair@$$CBU?$pair@II@std@@I@std@@@2@$0A@@std@@@std@@IEAA?AV?$_Tree_iterator@V?$_Tree_val@U?$_Tree_simple_types@U?$pair@$$CBU?$pair@II@std@@I@std@@@std@@@std@@@1@_NPEAU?$_Tree_node@U?$pair@$$CBU?$pair@II@std@@I@std@@PEAX@1@AEAU?$pair@$$CBU?$pair@II@std@@I@1@1@Z 0000000180001830 f i woff2_dec.obj
 0001:00000830       ??$_Insert_at@AEAU?$pair@$$CBIG@std@@PEAU?$_Tree_node@U?$pair@$$CBIG@std@@PEAX@2@@?$_Tree@V?$_Tmap_traits@IGU?$less@I@std@@V?$allocator@U?$pair@$$CBIG@std@@@2@$0A@@std@@@std@@IEAA?AV?$_Tree_iterator@V?$_Tree_val@U?$_Tree_simple_types@U?$pair@$$CBIG@std@@@std@@@std@@@1@_NPEAU?$_Tree_node@U?$pair@$$CBIG@std@@PEAX@1@AEAU?$pair@$$CBIG@1@1@Z 0000000180001830 f i woff2_dec.obj
 0001:00000ae0       ??$_Emplace_reallocate@AEBG@?$vector@GV?$allocator@G@std@@@std@@QEAAPEAGQEAGAEBG@Z 0000000180001ae0 f i transform.obj
 0001:00000ae0       ??$_Emplace_reallocate@AEBF@?$vector@FV?$allocator@F@std@@@std@@QEAAPEAFQEAFAEBF@Z 0000000180001ae0 f i transform.obj
 0001:00000c80       ?Read255UShort@woff2@@YA_NPEAVBuffer@1@PEAI@Z 0000000180001c80 f   variable_length.obj
 0001:00000d20       ?ComputeULongSum@woff2@@YAIPEBE_K@Z 0000000180001d20 f   woff2_common.obj
 0001:00000dd0       ??_EWOFF2Out@woff2@@UEAAPEAXI@Z 0000000180001dd0 f i * CIL library *:* CIL module *
 0001:00000dd0       ??_GWOFF2Out@woff2@@UEAAPEAXI@Z 0000000180001dd0 f i woff2_dec.obj
 0001:00000e00       ?Store16@woff2@@YA_KPEAE_KH@Z 0000000180001e00 f i woff2_dec.obj
 0001:00004000       ?ConvertWOFF2ToTTF@woff2@@YA_NPEBE_KPEAVWOFF2Out@1@@Z 0000000180005000 f   woff2_dec.obj
 0001:00004430       ??A?$map@U?$pair@II@std@@IU?$less@U?$pair@II@std@@@2@V?$allocator@U?$pair@$$CBU?$pair@II@std@@I@std@@@2@@std@@QEAAAEAIAEBU?$pair@II@1@@Z 0000000180005430 f i woff2_dec.obj
 0001:000045c0       ?_Delete@?$unique_ptr@$$BY0A@EU?$default_delete@$$BY0A@E@std@@@std@@AEAAXXZ 00000001800055c0 f i woff2_dec.obj
 0001:000045c0       ?_Delete@?$unique_ptr@$$BY0A@UPoint@woff2@@U?$default_delete@$$BY0A@UPoint@woff2@@@std@@@std@@AEAAXXZ 00000001800055c0 f i woff2_dec.obj
 0001:000045d0       ?_Tidy@?$vector@U?$pair@PEBE_K@std@@V?$allocator@U?$pair@PEBE_K@std@@@2@@std@@AEAAXXZ 00000001800055d0 f i woff2_dec.obj
 0001:00004630       ?_Tidy@?$vector@UTable@woff2@@V?$allocator@UTable@woff2@@@std@@@std@@AEAAXXZ 0000000180005630 f i woff2_dec.obj
 0001:000046b0       ??$reset@PEAEX@?$unique_ptr@$$BY0A@EU?$default_delete@$$BY0A@E@std@@@std@@QEAAXPEAE@Z 00000001800056b0 f i woff2_dec.obj
 0001:000046d0       ??$_Emplace_reallocate@PEAUTable@woff2@@@?$vector@PEAUTable@woff2@@V?$allocator@PEAUTable@woff2@@@std@@@std@@QEAAPEAPEAUTable@woff2@@QEAPEAU23@$$QEAPEAU23@@Z 00000001800056d0 f i woff2_dec.obj
 0001:00004ac0       ??$_Resize@V<lambda_06569d7aee9f112244d25d5e54def049>@@@?$vector@FV?$allocator@F@std@@@std@@AEAAX_KV<lambda_06569d7aee9f112244d25d5e54def049>@@@Z 0000000180005ac0 f i woff2_dec.obj
 0001:00004ac0       ??$_Resize@V<lambda_5d91c21a7dab2480088f44d5291e9dfa>@@@?$vector@GV?$allocator@G@std@@@std@@AEAAX_KV<lambda_5d91c21a7dab2480088f44d5291e9dfa>@@@Z 0000000180005ac0 f i woff2_dec.obj
 0001:00004f50       ??$_Resize@V<lambda_f266c3dfe27f71e88ee4d827fba9e497>@@@?$vector@UTable@woff2@@V?$allocator@UTable@woff2@@@std@@@std@@AEAAX_KV<lambda_f266c3dfe27f71e88ee4d827fba9e497>@@@Z 0000000180005f50 f i woff2_dec.obj
 0001:00005260       ?_Change_array@?$vector@UTable@woff2@@V?$allocator@UTable@woff2@@@std@@@std@@AEAAXQEAUTable@woff2@@_K1@Z 0000000180006260 f i woff2_dec.obj
 0001:00005310       ??$_Sort_unchecked@PEAUTable@woff2@@U?$less@X@std@@@std@@YAXPEAUTable@woff2@@0_JU?$less@X@0@@Z 0000000180006310 f i woff2_dec.obj
 0001:00005630       ??$_Partition_by_median_guess_unchecked@PEAUTable@woff2@@U?$less@X@std@@@std@@YA?AU?$pair@PEAUTable@woff2@@PEAU12@@0@PEAUTable@woff2@@0U?$less@X@0@@Z 0000000180006630 f i woff2_dec.obj
 0001:000058e0       ??$_Insert_hint@AEAU?$pair@$$CBU?$pair@II@std@@I@std@@PEAU?$_Tree_node@U?$pair@$$CBU?$pair@II@std@@I@std@@PEAX@2@@?$_Tree@V?$_Tmap_traits@U?$pair@II@std@@IU?$less@U?$pair@II@std@@@2@V?$allocator@U?$pair@$$CBU?$pair@II@std@@I@std@@@2@$0A@@std@@@std@@IEAA?AV?$_Tree_iterator@V?$_Tree_val@U?$_Tree_simple_types@U?$pair@$$CBU?$pair@II@std@@I@std@@@std@@@std@@@1@V?$_Tree_const_iterator@V?$_Tree_val@U?$_Tree_simple_types@U?$pair@$$CBU?$pair@II@std@@I@std@@@std@@@std@@@1@AEAU?$pair@$$CBU?$pair@II@std@@I@1@PEAU?$_Tree_node@U?$pair@$$CBU?$pair@II@std@@I@std@@PEAX@1@@Z 00000001800068e0 f i woff2_dec.obj
 0001:00005b30       ??$_Guess_median_unchecked@PEAUTable@woff2@@U?$less@X@std@@@std@@YAXPEAUTable@woff2@@00U?$less@X@0@@Z 0000000180006b30 f i woff2_dec.obj
 0001:00005f00       ??$_Pop_heap_hole_by_index@PEAUTable@woff2@@U12@U?$less@X@std@@@std@@YAXPEAUTable@woff2@@_J1$$QEAU12@U?$less@X@0@@Z 0000000180006f00 f i woff2_dec.obj
 0001:00006050       ??$_Insert_nohint@AEAU?$pair@$$CBU?$pair@II@std@@I@std@@PEAU?$_Tree_node@U?$pair@$$CBU?$pair@II@std@@I@std@@PEAX@2@@?$_Tree@V?$_Tmap_traits@U?$pair@II@std@@IU?$less@U?$pair@II@std@@@2@V?$allocator@U?$pair@$$CBU?$pair@II@std@@I@std@@@2@$0A@@std@@@std@@IEAA?AU?$pair@V?$_Tree_iterator@V?$_Tree_val@U?$_Tree_simple_types@U?$pair@$$CBU?$pair@II@std@@I@std@@@std@@@std@@@std@@_N@1@_NAEAU?$pair@$$CBU?$pair@II@std@@I@1@PEAU?$_Tree_node@U?$pair@$$CBU?$pair@II@std@@I@std@@PEAX@1@@Z 0000000180007050 f i woff2_dec.obj
 0001:00006350       ??$_Copy_nodes@U_Copy_tag@?$_Tree@V?$_Tmap_traits@IIU?$less@I@std@@V?$allocator@U?$pair@$$CBII@std@@@2@$0A@@std@@@std@@@?$_Tree@V?$_Tmap_traits@IIU?$less@I@std@@V?$allocator@U?$pair@$$CBII@std@@@2@$0A@@std@@@std@@IEAAPEAU?$_Tree_node@U?$pair@$$CBII@std@@PEAX@1@PEAU21@0U_Copy_tag@01@@Z 0000000180007350 f i woff2_dec.obj
 0001:00006420       __local_stdio_printf_options 0000000180007420 f i woff2_info.obj
 0001:00006430       ?Size@WOFF2MemoryOut@woff2@@UEAA_KXZ 0000000180007430 f i woff2_out.obj
 0001:00006440       ??_EWOFF2MemoryOut@woff2@@UEAAPEAXI@Z 0000000180007440 f i * CIL library *:* CIL module *
 0001:00006440       ??_GWOFF2MemoryOut@woff2@@UEAAPEAXI@Z 0000000180007440 f i woff2_out.obj
 0001:00006470       ?Write@WOFF2MemoryOut@woff2@@UEAA_NPEBX_K@Z 0000000180007470 f   woff2_out.obj
 0001:00006480       ?Write@WOFF2MemoryOut@woff2@@UEAA_NPEBX_K1@Z 0000000180007480 f   woff2_out.obj
 0001:000064f0       BrotliWarmupBitReader      00000001800074f0 f   bit_reader.obj
 0001:0000ab70       BrotliDecoderDecompressStream 000000018000bb70 f   decode.obj
 0001:0000c1e0       BrotliBuildCodeLengthsHuffmanTable 000000018000d1e0 f   huffman.obj
 0001:0000c400       BrotliBuildHuffmanTable    000000018000d400 f   huffman.obj
 0001:0000c700       BrotliBuildSimpleHuffmanTable 000000018000d700 f   huffman.obj
 0001:0000c920       BrotliDecoderStateInitWithCustomAllocators 000000018000d920 f   state.obj
 0001:0000ca40       BrotliDecoderStateCleanupAfterMetablock 000000018000da40 f   state.obj
 0001:0000cae0       BrotliDecoderStateCleanup  000000018000dae0 f   state.obj
 0001:0000cc90       ?decode@@YAXAEBV?$FunctionCallbackInfo@VValue@v8@@@Nan@@@Z 000000018000dc90 f   woff2_decode.obj
 0001:0000cf20       ?Init@@YAXV?$Local@VObject@v8@@@v8@@@Z 000000018000df20 f   woff2_decode.obj
 0001:0000d17c       __imp_load_?Value@External@v8@@QEBAPEAXXZ 000000018000e17c f   node:node.exe
 0001:0000d188       __tailMerge_node_exe       000000018000e188     node:node.exe
 0001:0000d201       __imp_load_?New@External@v8@@SA?AV?$Local@VExternal@v8@@@2@PEAVIsolate@2@PEAX@Z 000000018000e201 f   node:node.exe
 0001:0000d20d       __imp_load_?ThrowException@Isolate@v8@@QEAA?AV?$Local@VValue@v8@@@2@V32@@Z 000000018000e20d f   node:node.exe
 0001:0000d219       __imp_load_?GetCurrentContext@Isolate@v8@@QEAA?AV?$Local@VContext@v8@@@2@XZ 000000018000e219 f   node:node.exe
 0001:0000d225       __imp_load_?GetCurrent@Isolate@v8@@SAPEAV12@XZ 000000018000e225 f   node:node.exe
 0001:0000d231       __imp_load_?CreateHandle@HandleScope@v8@@CAPEAPEAVObject@internal@2@PEAVHeapObject@42@PEAV342@@Z 000000018000e231 f   node:node.exe
 0001:0000d23d       __imp_load_??1HandleScope@v8@@QEAA@XZ 000000018000e23d f   node:node.exe
 0001:0000d249       __imp_load_??0HandleScope@v8@@QEAA@PEAVIsolate@1@@Z 000000018000e249 f   node:node.exe
 0001:0000d255       __imp_load_?Error@Exception@v8@@SA?AV?$Local@VValue@v8@@@2@V?$Local@VString@v8@@@2@@Z 000000018000e255 f   node:node.exe
 0001:0000d261       __imp_load_?TypeError@Exception@v8@@SA?AV?$Local@VValue@v8@@@2@V?$Local@VString@v8@@@2@@Z 000000018000e261 f   node:node.exe
 0001:0000d26d       __imp_load_?GetFunction@FunctionTemplate@v8@@QEAA?AV?$MaybeLocal@VFunction@v8@@@2@V?$Local@VContext@v8@@@2@@Z 000000018000e26d f   node:node.exe
 0001:0000d279       __imp_load_?New@FunctionTemplate@v8@@SA?AV?$Local@VFunctionTemplate@v8@@@2@PEAVIsolate@2@P6AXAEBV?$FunctionCallbackInfo@VValue@v8@@@2@@ZV?$Local@VValue@v8@@@2@V?$Local@VSignature@v8@@@2@HW4ConstructorBehavior@2@W4SideEffectType@2@@Z 000000018000e279 f   node:node.exe
 0001:0000d285       __imp_load_?ToLocalEmpty@V8@v8@@CAXXZ 000000018000e285 f   node:node.exe
 0001:0000d291       __imp_load_?Escape@EscapableHandleScope@v8@@AEAAPEAPEAVObject@internal@2@PEAPEAV342@@Z 000000018000e291 f   node:node.exe
 0001:0000d29d       __imp_load_??0EscapableHandleScope@v8@@QEAA@PEAVIsolate@1@@Z 000000018000e29d f   node:node.exe
 0001:0000d2a9       __imp_load_?NewFromUtf8@String@v8@@SA?AV?$MaybeLocal@VString@v8@@@2@PEAVIsolate@2@PEBDW4NewStringType@2@H@Z 000000018000e2a9 f   node:node.exe
 0001:0000d2b5       __imp_load_?SlowGetInternalField@Object@v8@@AEAA?AV?$Local@VValue@v8@@@2@H@Z 000000018000e2b5 f   node:node.exe
 0001:0000d2c1       __imp_load_?SetInternalField@Object@v8@@QEAAXHV?$Local@VValue@v8@@@2@@Z 000000018000e2c1 f   node:node.exe
 0001:0000d2cd       __imp_load_?Set@Object@v8@@QEAA?AV?$Maybe@_N@2@V?$Local@VContext@v8@@@2@V?$Local@VValue@v8@@@2@1@Z 000000018000e2cd f   node:node.exe
 0001:0000d2d9       __imp_load_?SetInternalFieldCount@ObjectTemplate@v8@@QEAAXH@Z 000000018000e2d9 f   node:node.exe
 0001:0000d2e5       __imp_load_?NewInstance@ObjectTemplate@v8@@QEAA?AV?$MaybeLocal@VObject@v8@@@2@V?$Local@VContext@v8@@@2@@Z 000000018000e2e5 f   node:node.exe
 0001:0000d2f1       __imp_load_?New@ObjectTemplate@v8@@SA?AV?$Local@VObjectTemplate@v8@@@2@PEAVIsolate@2@V?$Local@VFunctionTemplate@v8@@@2@@Z 000000018000e2f1 f   node:node.exe
 0001:0000d2fd       __imp_load_node_module_register 000000018000e2fd f   node:node.exe
 0001:0000d309       __imp_load_?HasInstance@Buffer@node@@YA_NV?$Local@VObject@v8@@@v8@@@Z 000000018000e309 f   node:node.exe
 0001:0000d315       __imp_load_?New@Buffer@node@@YA?AV?$MaybeLocal@VObject@v8@@@v8@@PEAVIsolate@4@PEAD_K@Z 000000018000e315 f   node:node.exe
 0001:0000d321       __imp_load_?Data@Buffer@node@@YAPEADV?$Local@VObject@v8@@@v8@@@Z 000000018000e321 f   node:node.exe
 0001:0000d32d       __imp_load_?Length@Buffer@node@@YA_KV?$Local@VObject@v8@@@v8@@@Z 000000018000e32d f   node:node.exe
 0001:0000d339       __imp_load_?ToObject@Value@v8@@QEBA?AV?$Local@VObject@v8@@@2@XZ 000000018000e339 f   node:node.exe
 0001:0000d348       ??0bad_alloc@std@@QEAA@AEBV01@@Z 000000018000e348 f i libcpmt:xthrow.obj
 0001:0000d388       ??0bad_alloc@std@@QEAA@XZ  000000018000e388 f i libcpmt:xthrow.obj
 0001:0000d3a8       ??0exception@std@@QEAA@AEBV01@@Z 000000018000e3a8 f i libcpmt:xthrow.obj
 0001:0000d3e0       ??0length_error@std@@QEAA@AEBV01@@Z 000000018000e3e0 f i libcpmt:xthrow.obj
 0001:0000d420       ??0length_error@std@@QEAA@PEBD@Z 000000018000e420 f i libcpmt:xthrow.obj
 0001:0000d46c       ??0logic_error@std@@QEAA@AEBV01@@Z 000000018000e46c f i libcpmt:xthrow.obj
 0001:0000d4ac       ??1bad_exception@std@@UEAA@XZ 000000018000e4ac f i libvcruntime:frame.obj
 0001:0000d4ac       ??1bad_alloc@std@@UEAA@XZ  000000018000e4ac f i libcpmt:xthrow.obj
 0001:0000d4ac       ??1length_error@std@@UEAA@XZ 000000018000e4ac f i libcpmt:xthrow.obj
 0001:0000d4ac       ??1bad_array_new_length@std@@UEAA@XZ 000000018000e4ac f i LIBCMT:throw_bad_alloc.obj
 0001:0000d4c0       ??_Elength_error@std@@UEAAPEAXI@Z 000000018000e4c0 f i libcpmt:xthrow.obj
 0001:0000d4c0       ??_Gbad_exception@std@@UEAAPEAXI@Z 000000018000e4c0 f i libvcruntime:frame.obj
 0001:0000d4c0       ??_Ebad_alloc@std@@UEAAPEAXI@Z 000000018000e4c0 f i libcpmt:xthrow.obj
 0001:0000d4c0       ??_Gexception@std@@UEAAPEAXI@Z 000000018000e4c0 f i libcpmt:xthrow.obj
 0001:0000d4c0       ??_Elogic_error@std@@UEAAPEAXI@Z 000000018000e4c0 f i libcpmt:xthrow.obj
 0001:0000d4c0       ??_Ebad_array_new_length@std@@UEAAPEAXI@Z 000000018000e4c0 f i LIBCMT:throw_bad_alloc.obj
 0001:0000d4c0       ??_Ebad_exception@std@@UEAAPEAXI@Z 000000018000e4c0 f i libvcruntime:frame.obj
 0001:0000d4c0       ??_Glogic_error@std@@UEAAPEAXI@Z 000000018000e4c0 f i libcpmt:xthrow.obj
 0001:0000d4c0       ??_Gbad_array_new_length@std@@UEAAPEAXI@Z 000000018000e4c0 f i LIBCMT:throw_bad_alloc.obj
 0001:0000d4c0       ??_Eexception@std@@UEAAPEAXI@Z 000000018000e4c0 f i libcpmt:xthrow.obj
 0001:0000d4c0       ??_Glength_error@std@@UEAAPEAXI@Z 000000018000e4c0 f i libcpmt:xthrow.obj
 0001:0000d4c0       ??_Gbad_alloc@std@@UEAAPEAXI@Z 000000018000e4c0 f i libcpmt:xthrow.obj
 0001:0000d504       ?_Xlength_error@std@@YAXPEBD@Z 000000018000e504 f   libcpmt:xthrow.obj
 0001:0000d528       ?what@exception@std@@UEBAPEBDXZ 000000018000e528 f i libcpmt:xthrow.obj
 0001:0000d53c       ??0_Init_locks@std@@QEAA@XZ 000000018000e53c f   libcpmt:xlock.obj
 0001:0000d588       ??1_Init_locks@std@@QEAA@XZ 000000018000e588 f   libcpmt:xlock.obj
 0001:0000d5cc       ??1_Fac_tidy_reg_t@std@@QEAA@XZ 000000018000e5cc f i libcpmt:locale0.obj
 0001:0000d634       _Mtxdst                    000000018000e634 f   libcpmt:xmtx.obj
 0001:0000d63c       _Mtxinit                   000000018000e63c f   libcpmt:xmtx.obj
 0001:0000db1c       __crtInitializeCriticalSectionEx 000000018000eb1c f   libcpmt:winapisupp.obj
 0001:0000db60       __security_check_cookie    000000018000eb60 f   LIBCMT:amdsecgs.obj
 0001:0000db84       ??2@YAPEAX_K@Z             000000018000eb84 f   LIBCMT:new_scalar.obj
 0001:0000dbc0       ??_V@YAXPEAX@Z             000000018000ebc0 f   LIBCMT:delete_array.obj
 0001:0000dbc0       ??3@YAXPEAX_K@Z            000000018000ebc0 f   LIBCMT:delete_scalar_size.obj
 0001:0000dbc8       ??_U@YAPEAX_K@Z            000000018000ebc8 f   LIBCMT:new_array.obj
 0001:0000dbd0       __raise_securityfailure    000000018000ebd0 f   LIBCMT:gs_report.obj
 0001:0000dc04       __report_gsfailure         000000018000ec04 f   LIBCMT:gs_report.obj
 0001:0000dcd8       __report_rangecheckfailure 000000018000ecd8 f   LIBCMT:gs_report.obj
 0001:0000dcec       __report_securityfailure   000000018000ecec f   LIBCMT:gs_report.obj
 0001:0000e19c       _DllMainCRTStartup         000000018000f19c f   LIBCMT:dll_dllmain.obj
 0001:0000e1dc       ??_Gtype_info@@UEAAPEAXI@Z 000000018000f1dc f i LIBCMT:std_type_info_static.obj
 0001:0000e1dc       ??_Etype_info@@UEAAPEAXI@Z 000000018000f1dc f i LIBCMT:std_type_info_static.obj
 0001:0000e208       __scrt_acquire_startup_lock 000000018000f208 f   LIBCMT:utility.obj
 0001:0000e244       __scrt_dllmain_after_initialize_c 000000018000f244 f   LIBCMT:utility.obj
 0001:0000e278       __scrt_dllmain_before_initialize_c 000000018000f278 f   LIBCMT:utility.obj
 0001:0000e290       __scrt_dllmain_crt_thread_attach 000000018000f290 f   LIBCMT:utility.obj
 0001:0000e2b8       __scrt_dllmain_crt_thread_detach 000000018000f2b8 f   LIBCMT:utility.obj
 0001:0000e2d0       __scrt_dllmain_exception_filter 000000018000f2d0 f   LIBCMT:utility.obj
 0001:0000e330       __scrt_dllmain_uninitialize_c 000000018000f330 f   LIBCMT:utility.obj
 0001:0000e360       __scrt_dllmain_uninitialize_critical 000000018000f360 f   LIBCMT:utility.obj
 0001:0000e374       __scrt_initialize_crt      000000018000f374 f   LIBCMT:utility.obj
 0001:0000e3c0       __scrt_initialize_onexit_tables 000000018000f3c0 f   LIBCMT:utility.obj
 0001:0000e498       __scrt_is_nonwritable_in_current_image 000000018000f498 f   LIBCMT:utility.obj
 0001:0000e534       __scrt_release_startup_lock 000000018000f534 f   LIBCMT:utility.obj
 0001:0000e558       __scrt_uninitialize_crt    000000018000f558 f   LIBCMT:utility.obj
 0001:0000e584       _onexit                    000000018000f584 f   LIBCMT:utility.obj
 0001:0000e5d4       atexit                     000000018000f5d4 f   LIBCMT:utility.obj
 0001:0000e5ec       __GSHandlerCheck           000000018000f5ec f   LIBCMT:gshandler.obj
 0001:0000e60c       __GSHandlerCheckCommon     000000018000f60c f   LIBCMT:gshandler.obj
 0001:0000e668       _guard_check_icall_nop     000000018000f668 f i LIBCMT:guard_support.obj
 0001:0000e680       _alloca_probe              000000018000f680 f   LIBCMT:chkstk.obj
 0001:0000e680       __chkstk                   000000018000f680 f   LIBCMT:chkstk.obj
 0001:0000e6d4       ??0bad_array_new_length@std@@QEAA@AEBV01@@Z 000000018000f6d4 f i LIBCMT:throw_bad_alloc.obj
 0001:0000e714       ??0bad_array_new_length@std@@QEAA@XZ 000000018000f714 f i LIBCMT:throw_bad_alloc.obj
 0001:0000e734       ?__scrt_throw_std_bad_alloc@@YAXXZ 000000018000f734 f   LIBCMT:throw_bad_alloc.obj
 0001:0000e754       ?__scrt_throw_std_bad_array_new_length@@YAXXZ 000000018000f754 f   LIBCMT:throw_bad_alloc.obj
 0001:0000e774       ??3@YAXPEAX@Z              000000018000f774 f   LIBCMT:delete_scalar.obj
 0001:0000e77c       __security_init_cookie     000000018000f77c f   LIBCMT:gs_support.obj
 0001:0000e828       _get_startup_argv_mode     000000018000f828 f   LIBCMT:argv_mode.obj
 0001:0000e828       DllMain                    000000018000f828 f   LIBCMT:dll_dllmain_stub.obj
 0001:0000e830       ?__scrt_initialize_type_info@@YAXXZ 000000018000f830 f   LIBCMT:tncleanup.obj
 0001:0000e840       ?__scrt_uninitialize_type_info@@YAXXZ 000000018000f840 f   LIBCMT:tncleanup.obj
 0001:0000e84c       __local_stdio_scanf_options 000000018000f84c f i LIBCMT:default_local_stdio_options.obj
 0001:0000e854       __scrt_initialize_default_local_stdio_options 000000018000f854 f   LIBCMT:default_local_stdio_options.obj
 0001:0000e870       __scrt_get_dyn_tls_init_callback 000000018000f870 f   LIBCMT:dyn_tls_init.obj
 0001:0000e878       __crt_debugger_hook        000000018000f878 f   LIBCMT:utility_desktop.obj
 0001:0000e880       __scrt_fastfail            000000018000f880 f   LIBCMT:utility_desktop.obj
 0001:0000e9cc       _RTC_Initialize            000000018000f9cc f   LIBCMT:initsect.obj
 0001:0000ea08       _RTC_Terminate             000000018000fa08 f   LIBCMT:initsect.obj
 0001:0000ea44       __isa_available_init       000000018000fa44 f   LIBCMT:cpu_disp.obj
 0001:0000ebc0       __scrt_is_ucrt_dll_in_use  000000018000fbc0 f   LIBCMT:ucrt_detection.obj
 0001:0000ebd0       _purecall                  000000018000fbd0 f   libvcruntime:purevirt.obj
 0001:0000ec00       __std_exception_copy       000000018000fc00 f   libvcruntime:std_exception.obj
 0001:0000ec90       __std_exception_destroy    000000018000fc90 f   libvcruntime:std_exception.obj
 0001:0000ecb8       _CxxThrowException         000000018000fcb8 f   libvcruntime:throw.obj
 0001:0000ed78       ??$_CallSETranslator@V__FrameHandler3@@@@YAHPEAUEHExceptionRecord@@PEA_KPEAU_CONTEXT@@PEAU_xDISPATCHER_CONTEXT@@PEBU_s_FuncInfo@@K1@Z 000000018000fd78 f i libvcruntime:risctrnsctrl.obj
 0001:0000edcc       ?CatchTryBlock@__FrameHandler3@@SAPEBU_s_TryBlockMapEntry@@PEBU_s_FuncInfo@@H@Z 000000018000fdcc f   libvcruntime:risctrnsctrl.obj
 0001:0000ee24       ?ExecutionInCatch@__FrameHandler3@@SA_NPEAU_xDISPATCHER_CONTEXT@@PEBU_s_FuncInfo@@@Z 000000018000fe24 f   libvcruntime:risctrnsctrl.obj
 0001:0000ee50       ?FrameUnwindToEmptyState@__FrameHandler3@@SAXPEA_KPEAU_xDISPATCHER_CONTEXT@@PEBU_s_FuncInfo@@@Z 000000018000fe50 f   libvcruntime:risctrnsctrl.obj
 0001:0000eeb4       ?GetEstablisherFrame@__FrameHandler3@@SAPEA_KPEA_KPEAU_xDISPATCHER_CONTEXT@@PEBU_s_FuncInfo@@0@Z 000000018000feb4 f   libvcruntime:risctrnsctrl.obj
 0001:0000ef80       ?GetRangeOfTrysToCheck@__FrameHandler3@@SA?AU?$pair@Viterator@TryBlockMap@__FrameHandler3@@V123@@std@@AEAVTryBlockMap@1@HH@Z 000000018000ff80 f   libvcruntime:risctrnsctrl.obj
 0001:0000f0dc       ?UnwindNestedFrames@__FrameHandler3@@SAXPEA_KPEAUEHExceptionRecord@@PEAU_CONTEXT@@0PEAXPEBU_s_FuncInfo@@HHPEBU_s_HandlerType@@PEAU_xDISPATCHER_CONTEXT@@E@Z 00000001800100dc f   libvcruntime:risctrnsctrl.obj
 0001:0000f200       _CreateFrameInfo           0000000180010200 f   libvcruntime:risctrnsctrl.obj
 0001:0000f23c       _FindAndUnlinkFrame        000000018001023c f   libvcruntime:risctrnsctrl.obj
 0001:0000f290       _GetImageBase              0000000180010290 f   libvcruntime:risctrnsctrl.obj
 0001:0000f2a4       _GetThrowImageBase         00000001800102a4 f   libvcruntime:risctrnsctrl.obj
 0001:0000f2b8       _SetImageBase              00000001800102b8 f   libvcruntime:risctrnsctrl.obj
 0001:0000f2d0       _SetThrowImageBase         00000001800102d0 f   libvcruntime:risctrnsctrl.obj
 0001:0000f2e8       __CxxFrameHandler3         00000001800102e8 f   libvcruntime:risctrnsctrl.obj
 0001:0000f380       memcpy_repmovs             0000000180010380 f   libvcruntime:memcpy.obj
 0001:0000f3a0       memmove                    00000001800103a0 f   libvcruntime:memcpy.obj
 0001:0000f3a0       memcpy                     00000001800103a0 f   libvcruntime:memcpy.obj
 0001:0000f7e0       memset_repmovs             00000001800107e0 f   libvcruntime:memset.obj
 0001:0000f800       memset                     0000000180010800 f   libvcruntime:memset.obj
 0001:0000f990       __DestructExceptionObject  0000000180010990 f   libvcruntime:ehhelpers.obj
 0001:0000fa04       ?_CallMemberFunction0@@YAXQEAX0@Z 0000000180010a04 f i libvcruntime:ehhelpers.obj
 0001:0000fa08       _IsExceptionObjectToBeDestroyed 0000000180010a08 f   libvcruntime:ehhelpers.obj
 0001:0000fa38       __AdjustPointer            0000000180010a38 f   libvcruntime:ehhelpers.obj
 0001:0000fa5c       __FrameUnwindFilter        0000000180010a5c f   libvcruntime:ehhelpers.obj
 0001:0000faa8       __std_terminate            0000000180010aa8 f   libvcruntime:ehhelpers.obj
 0001:0000fad0       memchr                     0000000180010ad0 f   libvcruntime:memchr.obj
 0001:0000fb50       memcmp                     0000000180010b50 f   libvcruntime:memcmp.obj
 0001:0000fc18       __C_specific_handler       0000000180010c18 f   libvcruntime:riscchandler.obj
 0001:0000fe24       __vcrt_initialize          0000000180010e24 f   libvcruntime:initialization.obj
 0001:0000fe58       __vcrt_thread_attach       0000000180010e58 f   libvcruntime:initialization.obj
 0001:0000fe6c       __vcrt_thread_detach       0000000180010e6c f   libvcruntime:initialization.obj
 0001:0000fe80       __vcrt_uninitialize        0000000180010e80 f   libvcruntime:initialization.obj
 0001:0000fea0       __vcrt_uninitialize_critical 0000000180010ea0 f   libvcruntime:initialization.obj
 0001:0000feb0       __std_type_info_compare    0000000180010eb0 f   libvcruntime:std_type_info.obj
 0001:0000fed8       __std_type_info_destroy_list 0000000180010ed8 f   libvcruntime:std_type_info.obj
 0001:0000ff04       __vcrt_initialize_pure_virtual_call_handler 0000000180010f04 f   libvcruntime:purevirt_data.obj
 0001:0000ff14       __vcrt_freefls             0000000180010f14 f   libvcruntime:per_thread_data.obj
 0001:0000ff34       __vcrt_freeptd             0000000180010f34 f   libvcruntime:per_thread_data.obj
 0001:0000ff84       __vcrt_getptd              0000000180010f84 f   libvcruntime:per_thread_data.obj
 0001:0000ffa0       __vcrt_getptd_noexit       0000000180010fa0 f   libvcruntime:per_thread_data.obj
 0001:0001006c       __vcrt_initialize_ptd      000000018001106c f   libvcruntime:per_thread_data.obj
 0001:000100c0       __vcrt_uninitialize_ptd    00000001800110c0 f   libvcruntime:per_thread_data.obj
 0001:000100e4       ?GetCurrentState@__FrameHandler3@@SAHPEA_KPEAU_xDISPATCHER_CONTEXT@@PEBU_s_FuncInfo@@@Z 00000001800110e4 f   libvcruntime:ehstate.obj
 0001:0001010c       ?GetUnwindTryBlock@__FrameHandler3@@SAHPEA_KPEAU_xDISPATCHER_CONTEXT@@PEBU_s_FuncInfo@@@Z 000000018001110c f   libvcruntime:ehstate.obj
 0001:00010138       ?SetState@__FrameHandler3@@SAXPEA_KPEBU_s_FuncInfo@@H@Z 0000000180011138 f   libvcruntime:ehstate.obj
 0001:00010144       ?SetUnwindTryBlock@__FrameHandler3@@SAXPEA_KPEAU_xDISPATCHER_CONTEXT@@PEBU_s_FuncInfo@@H@Z 0000000180011144 f   libvcruntime:ehstate.obj
 0001:00010180       ?StateFromControlPc@__FrameHandler3@@SAHPEBU_s_FuncInfo@@PEAU_xDISPATCHER_CONTEXT@@@Z 0000000180011180 f   libvcruntime:ehstate.obj
 0001:00010188       ?StateFromIp@__FrameHandler3@@SAHPEBU_s_FuncInfo@@PEAU_xDISPATCHER_CONTEXT@@_K@Z 0000000180011188 f   libvcruntime:ehstate.obj
 0001:00010c14       ??$TypeMatchHelper@V__FrameHandler3@@@@YAHPEBU_s_HandlerType@@PEBU_s_CatchableType@@PEBU_s_ThrowInfo@@@Z 0000000180011c14 f i libvcruntime:frame.obj
 0001:00010d58       ??$__InternalCxxFrameHandler@V__FrameHandler3@@@@YA?AW4_EXCEPTION_DISPOSITION@@PEAUEHExceptionRecord@@PEA_KPEAU_CONTEXT@@PEAU_xDISPATCHER_CONTEXT@@PEBU_s_FuncInfo@@H1E@Z 0000000180011d58 f i libvcruntime:frame.obj
 0001:00010fa0       ??0bad_exception@std@@QEAA@AEBV01@@Z 0000000180011fa0 f i libvcruntime:frame.obj
 0001:00010fe0       ??0bad_exception@std@@QEAA@XZ 0000000180011fe0 f i libvcruntime:frame.obj
 0001:00011000       ?CxxCallCatchBlock@__FrameHandler3@@SAPEAXPEAU_EXCEPTION_RECORD@@@Z 0000000180012000 f   libvcruntime:frame.obj
 0001:00011274       ?FrameUnwindToState@__FrameHandler3@@SAXPEA_KPEAU_xDISPATCHER_CONTEXT@@PEBU_s_FuncInfo@@H@Z 0000000180012274 f   libvcruntime:frame.obj
 0001:00011408       ?GetHandlerSearchState@__FrameHandler3@@SAHPEA_KPEAU_xDISPATCHER_CONTEXT@@PEBU_s_FuncInfo@@@Z 0000000180012408 f i libvcruntime:frame.obj
 0001:0001160c       ?_CallMemberFunction1@@YAXQEAX00@Z 000000018001260c f i libvcruntime:frame.obj
 0001:00011618       ?_CallMemberFunction2@@YAXQEAX00H@Z 0000000180012618 f i libvcruntime:frame.obj
 0001:00011640       _NLG_Notify                0000000180012640 f   libvcruntime:notify.obj
 0001:00011660       __NLG_Dispatch2            0000000180012660 f   libvcruntime:notify.obj
 0001:00011670       __NLG_Return2              0000000180012670 f   libvcruntime:notify.obj
 0001:00011674       __except_validate_context_record 0000000180012674 f   libvcruntime:jbcxrval.obj
 0001:000116ac       __vcrt_initialize_locks    00000001800126ac f   libvcruntime:locks.obj
 0001:000116f4       __vcrt_uninitialize_locks  00000001800126f4 f   libvcruntime:locks.obj
 0001:00011904       __vcrt_FlsAlloc            0000000180012904 f   libvcruntime:winapi_downlevel.obj
 0001:0001194c       __vcrt_FlsFree             000000018001294c f   libvcruntime:winapi_downlevel.obj
 0001:00011994       __vcrt_FlsGetValue         0000000180012994 f   libvcruntime:winapi_downlevel.obj
 0001:000119dc       __vcrt_FlsSetValue         00000001800129dc f   libvcruntime:winapi_downlevel.obj
 0001:00011a30       __vcrt_InitializeCriticalSectionEx 0000000180012a30 f   libvcruntime:winapi_downlevel.obj
 0001:00011a94       __vcrt_initialize_winapi_thunks 0000000180012a94 f   libvcruntime:winapi_downlevel.obj
 0001:00011ac4       __vcrt_uninitialize_winapi_thunks 0000000180012ac4 f   libvcruntime:winapi_downlevel.obj
 0001:00011b20       _CallSettingFrame          0000000180012b20 f   libvcruntime:handlers.obj
 0001:00011b70       _CallSettingFrameEncoded   0000000180012b70 f   libvcruntime:handlers.obj
 0001:000122d0       ??$ftprintf@PEAU_iobuf@@PEB_WAEBQEB_WAEBQEB_WAEBI@?$__crt_char_traits@_W@@SAH$$QEAPEAU_iobuf@@$$QEAPEB_WAEBQEB_W2AEBI@Z 00000001800132d0 f i libucrt:assert.obj
 0001:000122f8       _wassert                   00000001800132f8 f   libucrt:assert.obj
 0001:0001236c       fwprintf                   000000018001336c f i libucrt:assert.obj
 0001:000123b0       swprintf                   00000001800133b0 f i libucrt:assert.obj
 0001:00012404       __acrt_call_reportfault    0000000180013404 f   libucrt:invalid_parameter.obj
 0001:00012560       __acrt_initialize_invalid_parameter_handler 0000000180013560 f   libucrt:invalid_parameter.obj
 0001:00012568       _invalid_parameter         0000000180013568 f   libucrt:invalid_parameter.obj
 0001:00012618       _invalid_parameter_noinfo  0000000180013618 f   libucrt:invalid_parameter.obj
 0001:00012638       _invalid_parameter_noinfo_noreturn 0000000180013638 f   libucrt:invalid_parameter.obj
 0001:00012668       _invoke_watson             0000000180013668 f   libucrt:invalid_parameter.obj
 0001:000126b0       abort                      00000001800136b0 f   libucrt:abort.obj
 0001:00012708       _fputc_nolock              0000000180013708 f   libucrt:fputc.obj
 0001:00012720       __acrt_initialize_stdio    0000000180013720 f   libucrt:_file.obj
 0001:00012840       __acrt_iob_func            0000000180013840 f   libucrt:_file.obj
 0001:00012854       __acrt_uninitialize_stdio  0000000180013854 f   libucrt:_file.obj
 0001:000128b0       _lock_file                 00000001800138b0 f   libucrt:_file.obj
 0001:000128bc       _unlock_file               00000001800138bc f   libucrt:_file.obj
 0001:00012ae4       __acrt_stdio_flush_nolock  0000000180013ae4 f   libucrt:fflush.obj
 0001:00012b60       _fflush_nolock             0000000180013b60 f   libucrt:fflush.obj
 0001:00012bac       _flushall                  0000000180013bac f   libucrt:fflush.obj
 0001:00012bb4       fflush                     0000000180013bb4 f   libucrt:fflush.obj
 0001:00012c1c       _fclose_nolock             0000000180013c1c f   libucrt:fclose.obj
 0001:00012ca0       fclose                     0000000180013ca0 f   libucrt:fclose.obj
 0001:00012f18       ??$ensure_buffer_is_big_enough@D@formatting_buffer@__crt_stdio_output@@QEAA_N_K@Z 0000000180013f18 f i libucrt:output.obj
 0001:00012fc0       ??$ensure_buffer_is_big_enough@_W@formatting_buffer@__crt_stdio_output@@QEAA_N_K@Z 0000000180013fc0 f i libucrt:output.obj
 0001:0001306c       ??$is_wide_character_specifier@_W@__crt_stdio_output@@YA_N_K_WW4length_modifier@0@@Z 000000018001406c f i libucrt:output.obj
 0001:000130ac       ??$type_case_integer_parse_into_buffer@I@?$output_processor@_WV?$stream_output_adapter@_W@__crt_stdio_output@@V?$standard_base@_WV?$stream_output_adapter@_W@__crt_stdio_output@@@2@@__crt_stdio_output@@AEAAXII_N@Z 00000001800140ac f i libucrt:output.obj
 0001:000130ac       ??$type_case_integer_parse_into_buffer@I@?$output_processor@_WV?$string_output_adapter@_W@__crt_stdio_output@@V?$standard_base@_WV?$string_output_adapter@_W@__crt_stdio_output@@@2@@__crt_stdio_output@@AEAAXII_N@Z 00000001800140ac f i libucrt:output.obj
 0001:00013150       ??$type_case_integer_parse_into_buffer@_K@?$output_processor@_WV?$string_output_adapter@_W@__crt_stdio_output@@V?$standard_base@_WV?$string_output_adapter@_W@__crt_stdio_output@@@2@@__crt_stdio_output@@AEAAX_KI_N@Z 0000000180014150 f i libucrt:output.obj
 0001:00013150       ??$type_case_integer_parse_into_buffer@_K@?$output_processor@_WV?$stream_output_adapter@_W@__crt_stdio_output@@V?$standard_base@_WV?$stream_output_adapter@_W@__crt_stdio_output@@@2@@__crt_stdio_output@@AEAAX_KI_N@Z 0000000180014150 f i libucrt:output.obj
 0001:000131f4       ??$write_multiple_characters@V?$stream_output_adapter@_W@__crt_stdio_output@@D@__crt_stdio_output@@YAXAEBV?$stream_output_adapter@_W@0@DHQEAH@Z 00000001800141f4 f i libucrt:output.obj
 0001:00013288       ??$write_multiple_characters@V?$string_output_adapter@_W@__crt_stdio_output@@D@__crt_stdio_output@@YAXAEBV?$string_output_adapter@_W@0@DHQEAH@Z 0000000180014288 f i libucrt:output.obj
 0001:00013304       ??0_LocaleUpdate@@QEAA@QEAU__crt_locale_pointers@@@Z 0000000180014304 f i libucrt:output.obj
 0001:000134d4       ?crop_zeroes@__crt_stdio_output@@YAXPEADQEAU__crt_locale_pointers@@@Z 00000001800144d4 f i libucrt:output.obj
 0001:00013540       ?force_decimal_point@__crt_stdio_output@@YAXPEADQEAU__crt_locale_pointers@@@Z 0000000180014540 f i libucrt:output.obj
 0001:000135b0       ?parse_int_from_format_string@?$output_processor@_WV?$stream_output_adapter@_W@__crt_stdio_output@@V?$standard_base@_WV?$stream_output_adapter@_W@__crt_stdio_output@@@2@@__crt_stdio_output@@AEAA_NQEAH@Z 00000001800145b0 f i libucrt:output.obj
 0001:000135b0       ?parse_int_from_format_string@?$output_processor@_WV?$string_output_adapter@_W@__crt_stdio_output@@V?$standard_base@_WV?$string_output_adapter@_W@__crt_stdio_output@@@2@@__crt_stdio_output@@AEAA_NQEAH@Z 00000001800145b0 f i libucrt:output.obj
 0001:00013654       ?process@?$output_processor@_WV?$stream_output_adapter@_W@__crt_stdio_output@@V?$standard_base@_WV?$stream_output_adapter@_W@__crt_stdio_output@@@2@@__crt_stdio_output@@QEAAHXZ 0000000180014654 f i libucrt:output.obj
 0001:000138c0       ?process@?$output_processor@_WV?$string_output_adapter@_W@__crt_stdio_output@@V?$standard_base@_WV?$string_output_adapter@_W@__crt_stdio_output@@@2@@__crt_stdio_output@@QEAAHXZ 00000001800148c0 f i libucrt:output.obj
 0001:00013b3c       ?state_case_size@?$output_processor@_WV?$stream_output_adapter@_W@__crt_stdio_output@@V?$standard_base@_WV?$stream_output_adapter@_W@__crt_stdio_output@@@2@@__crt_stdio_output@@AEAA_NXZ 0000000180014b3c f i libucrt:output.obj
 0001:00013cd4       ?state_case_size@?$output_processor@_WV?$string_output_adapter@_W@__crt_stdio_output@@V?$standard_base@_WV?$string_output_adapter@_W@__crt_stdio_output@@@2@@__crt_stdio_output@@AEAA_NXZ 0000000180014cd4 f i libucrt:output.obj
 0001:00013e6c       ?state_case_type@?$output_processor@_WV?$stream_output_adapter@_W@__crt_stdio_output@@V?$standard_base@_WV?$stream_output_adapter@_W@__crt_stdio_output@@@2@@__crt_stdio_output@@AEAA_NXZ 0000000180014e6c f i libucrt:output.obj
 0001:0001414c       ?state_case_type@?$output_processor@_WV?$string_output_adapter@_W@__crt_stdio_output@@V?$standard_base@_WV?$string_output_adapter@_W@__crt_stdio_output@@@2@@__crt_stdio_output@@AEAA_NXZ 000000018001514c f i libucrt:output.obj
 0001:00014418       ?type_case_Z@?$output_processor@_WV?$stream_output_adapter@_W@__crt_stdio_output@@V?$standard_base@_WV?$stream_output_adapter@_W@__crt_stdio_output@@@2@@__crt_stdio_output@@AEAA_NXZ 0000000180015418 f i libucrt:output.obj
 0001:00014418       ?type_case_Z@?$output_processor@_WV?$string_output_adapter@_W@__crt_stdio_output@@V?$standard_base@_WV?$string_output_adapter@_W@__crt_stdio_output@@@2@@__crt_stdio_output@@AEAA_NXZ 0000000180015418 f i libucrt:output.obj
 0001:00014494       ?type_case_a@?$output_processor@_WV?$stream_output_adapter@_W@__crt_stdio_output@@V?$standard_base@_WV?$stream_output_adapter@_W@__crt_stdio_output@@@2@@__crt_stdio_output@@AEAA_NXZ 0000000180015494 f i libucrt:output.obj
 0001:00014494       ?type_case_a@?$output_processor@_WV?$string_output_adapter@_W@__crt_stdio_output@@V?$standard_base@_WV?$string_output_adapter@_W@__crt_stdio_output@@@2@@__crt_stdio_output@@AEAA_NXZ 0000000180015494 f i libucrt:output.obj
 0001:00014674       ?type_case_c_tchar@?$output_processor@_WV?$string_output_adapter@_W@__crt_stdio_output@@V?$standard_base@_WV?$string_output_adapter@_W@__crt_stdio_output@@@2@@__crt_stdio_output@@AEAA_N_W@Z 0000000180015674 f i libucrt:output.obj
 0001:00014674       ?type_case_c_tchar@?$output_processor@_WV?$stream_output_adapter@_W@__crt_stdio_output@@V?$standard_base@_WV?$stream_output_adapter@_W@__crt_stdio_output@@@2@@__crt_stdio_output@@AEAA_N_W@Z 0000000180015674 f i libucrt:output.obj
 0001:0001471c       ?type_case_integer@?$output_processor@_WV?$string_output_adapter@_W@__crt_stdio_output@@V?$standard_base@_WV?$string_output_adapter@_W@__crt_stdio_output@@@2@@__crt_stdio_output@@AEAA_NI_N@Z 000000018001571c f i libucrt:output.obj
 0001:0001471c       ?type_case_integer@?$output_processor@_WV?$stream_output_adapter@_W@__crt_stdio_output@@V?$standard_base@_WV?$stream_output_adapter@_W@__crt_stdio_output@@@2@@__crt_stdio_output@@AEAA_NI_N@Z 000000018001571c f i libucrt:output.obj
 0001:000148e8       ?type_case_n@?$output_processor@_WV?$stream_output_adapter@_W@__crt_stdio_output@@V?$standard_base@_WV?$stream_output_adapter@_W@__crt_stdio_output@@@2@@__crt_stdio_output@@AEAA_NXZ 00000001800158e8 f i libucrt:output.obj
 0001:000148e8       ?type_case_n@?$output_processor@_WV?$string_output_adapter@_W@__crt_stdio_output@@V?$standard_base@_WV?$string_output_adapter@_W@__crt_stdio_output@@@2@@__crt_stdio_output@@AEAA_NXZ 00000001800158e8 f i libucrt:output.obj
 0001:000149c4       ?type_case_s@?$output_processor@_WV?$stream_output_adapter@_W@__crt_stdio_output@@V?$standard_base@_WV?$stream_output_adapter@_W@__crt_stdio_output@@@2@@__crt_stdio_output@@AEAA_NXZ 00000001800159c4 f i libucrt:output.obj
 0001:000149c4       ?type_case_s@?$output_processor@_WV?$string_output_adapter@_W@__crt_stdio_output@@V?$standard_base@_WV?$string_output_adapter@_W@__crt_stdio_output@@@2@@__crt_stdio_output@@AEAA_NXZ 00000001800159c4 f i libucrt:output.obj
 0001:00014a8c       ?write_stored_string_tchar@?$output_processor@_WV?$stream_output_adapter@_W@__crt_stdio_output@@V?$standard_base@_WV?$stream_output_adapter@_W@__crt_stdio_output@@@2@@__crt_stdio_output@@AEAA_N_W@Z 0000000180015a8c f i libucrt:output.obj
 0001:00014b94       ?write_stored_string_tchar@?$output_processor@_WV?$string_output_adapter@_W@__crt_stdio_output@@V?$standard_base@_WV?$string_output_adapter@_W@__crt_stdio_output@@@2@@__crt_stdio_output@@AEAA_N_W@Z 0000000180015b94 f i libucrt:output.obj
 0001:00014c80       ?write_string@?$string_output_adapter@_W@__crt_stdio_output@@QEBAXQEB_WHQEAHAEAV__crt_deferred_errno_cache@@@Z 0000000180015c80 f i libucrt:output.obj
 0001:00014d28       ?write_string_impl@?$output_adapter_common@_WV?$stream_output_adapter@_W@__crt_stdio_output@@@__crt_stdio_output@@IEBAXQEB_WHQEAHAEAV__crt_deferred_errno_cache@@@Z 0000000180015d28 f i libucrt:output.obj
 0001:00014e2c       __stdio_common_vfwprintf   0000000180015e2c f   libucrt:output.obj
 0001:00014eb8       __stdio_common_vswprintf   0000000180015eb8 f   libucrt:output.obj
 0001:00014fe0       setvbuf                    0000000180015fe0 f   libucrt:setvbuf.obj
 0001:0001507c       free                       000000018001607c f   libucrt:free.obj
 0001:00015090       malloc                     0000000180016090 f   libucrt:malloc.obj
 0001:00015304       __acrt_initialize_thread_local_exit_callback 0000000180016304 f   libucrt:exit.obj
 0001:0001530c       _cexit                     000000018001630c f   libucrt:exit.obj
 0001:0001531c       _exit                      000000018001631c f   libucrt:exit.obj
 0001:00015328       _is_c_termination_complete 0000000180016328 f   libucrt:exit.obj
 0001:00015330       calloc                     0000000180016330 f   libucrt:calloc.obj
 0001:00015338       realloc                    0000000180016338 f   libucrt:realloc.obj
 0001:00015340       __ascii_stricmp            0000000180016340 f   libucrt:stricmp.obj
 0001:00015380       _stricmp                   0000000180016380 f   libucrt:stricmp.obj
 0001:000153c8       _stricmp_l                 00000001800163c8 f   libucrt:stricmp.obj
 0001:0001547c       __acrt_initialize_locks    000000018001647c f   libucrt:locks.obj
 0001:000154c4       __acrt_lock                00000001800164c4 f   libucrt:locks.obj
 0001:000154e0       __acrt_uninitialize_locks  00000001800164e0 f   libucrt:locks.obj
 0001:00015518       __acrt_unlock              0000000180016518 f   libucrt:locks.obj
 0001:00015534       terminate                  0000000180016534 f   libucrt:terminate.obj
 0001:00015554       __pctype_func              0000000180016554 f   libucrt:ctype.obj
 0001:00015584       isdigit                    0000000180016584 f i libucrt:_ctype.obj
 0001:00015618       __acrt_errno_from_os_error 0000000180016618 f   libucrt:errno.obj
 0001:00015660       __acrt_errno_map_os_error  0000000180016660 f   libucrt:errno.obj
 0001:000156b0       __doserrno                 00000001800166b0 f   libucrt:errno.obj
 0001:000156d0       _errno                     00000001800166d0 f   libucrt:errno.obj
 0001:000156f0       ?divide@__crt_strtox@@YA_KAEAUbig_integer@1@AEBU21@@Z 00000001800166f0 f i libucrt:strtod.obj
 0001:00015bb0       pow                        0000000180016bb0 f   libucrt:pow.obj
 0001:00017250       powf                       0000000180018250 f   libucrt:powf.obj
 0001:00018118       __strncnt                  0000000180019118 f   libucrt:strncnt.obj
 0001:00018130       ??$__acrt_mbs_to_wcs_cp@U__crt_win32_buffer_internal_dynamic_resizing@@@@YAHQEBDAEAV?$__crt_win32_buffer@_WU__crt_win32_buffer_internal_dynamic_resizing@@@@I@Z 0000000180019130 f i libucrt:strftime.obj
 0001:000182a8       ??$__acrt_wcs_to_mbs_cp@U__crt_win32_buffer_no_resizing@@@@YAHQEB_WAEAV?$__crt_win32_buffer@DU__crt_win32_buffer_no_resizing@@@@I@Z 00000001800192a8 f i libucrt:strftime.obj
 0001:0001841c       _tolower_l                 000000018001941c f   libucrt:tolower_toupper.obj
 0001:0001855c       tolower                    000000018001955c f   libucrt:tolower_toupper.obj
 0001:00018588       wcscpy_s                   0000000180019588 f   libucrt:wcscpy_s.obj
 0001:000185f0       wcsnlen                    00000001800195f0 f   libucrt:strnlen.obj
 0001:000187c8       __acrt_initialize_new_handler 00000001800197c8 f   libucrt:new_handler.obj
 0001:000187d0       _callnewh                  00000001800197d0 f   libucrt:new_handler.obj
 0001:00018800       _query_new_handler         0000000180019800 f   libucrt:new_handler.obj
 0001:00018834       _initterm                  0000000180019834 f   libucrt:initterm.obj
 0001:00018898       _initterm_e                0000000180019898 f   libucrt:initterm.obj
 0001:000188d8       _seh_filter_dll            00000001800198d8 f   libucrt:exception_filter.obj
 0001:000188ec       _seh_filter_exe            00000001800198ec f   libucrt:exception_filter.obj
 0001:00018c34       __acrt_allocate_buffer_for_argv 0000000180019c34 f   libucrt:argv_parsing.obj
 0001:00018c94       _configure_narrow_argv     0000000180019c94 f   libucrt:argv_parsing.obj
 0001:0001900c       __dcrt_uninitialize_environments_nolock 000000018001a00c f   libucrt:environment_initialization.obj
 0001:00019044       _initialize_narrow_environment 000000018001a044 f   libucrt:environment_initialization.obj
 0001:0001938c       _crt_atexit                000000018001a38c f   libucrt:onexit.obj
 0001:0001939c       _execute_onexit_table      000000018001a39c f   libucrt:onexit.obj
 0001:000193d8       _initialize_onexit_table   000000018001a3d8 f   libucrt:onexit.obj
 0001:00019400       _register_onexit_function  000000018001a400 f   libucrt:onexit.obj
 0001:00019480       __acrt_uninitialize_command_line 000000018001a480 f   libucrt:argv_data.obj
 0001:00019578       __acrt_initialize          000000018001a578 f   libucrt:initialization.obj
 0001:0001958c       __acrt_thread_attach       000000018001a58c f   libucrt:initialization.obj
 0001:000195a0       __acrt_thread_detach       000000018001a5a0 f   libucrt:initialization.obj
 0001:000195b0       __acrt_uninitialize        000000018001a5b0 f   libucrt:initialization.obj
 0001:000195e8       __acrt_uninitialize_critical 000000018001a5e8 f   libucrt:initialization.obj
 0001:000195f8       strcpy_s                   000000018001a5f8 f   libucrt:strcpy_s.obj
 0001:00019658       wcsncmp                    000000018001a658 f   libucrt:wcsncmp.obj
 0001:00019684       ??$parse_integer@KV?$c_string_character_source@_W@__crt_strtox@@@__crt_strtox@@YAKQEAU__crt_locale_pointers@@V?$c_string_character_source@_W@0@H_N@Z 000000018001a684 f i libucrt:atox.obj
 0001:00019d50       strncmp                    000000018001ad50 f   libucrt:strncmp.obj
 0001:00019dd0       _query_app_type            000000018001add0 f   libucrt:report_runtime_error.obj
 0001:00019f18       _itow_s                    000000018001af18 f   libucrt:xtoa.obj
 0001:00019f38       _set_error_mode            000000018001af38 f   libucrt:set_error_mode.obj
 0001:00019f78       wcscat_s                   000000018001af78 f   libucrt:wcscat_s.obj
 0001:00019ff8       wcsncat_s                  000000018001aff8 f   libucrt:wcsncat_s.obj
 0001:0001a0f8       __acrt_GetModuleFileNameA  000000018001b0f8 f   libucrt:getmodulefilenamea.obj
 0001:0001a218       __acrt_show_wide_message_box 000000018001b218 f   libucrt:crtmbox.obj
 0001:0001a304       __acrt_get_sigabrt_handler 000000018001b304 f   libucrt:signal.obj
 0001:0001a334       __acrt_initialize_signal_handlers 000000018001b334 f   libucrt:signal.obj
 0001:0001a354       raise                      000000018001b354 f   libucrt:signal.obj
 0001:0001a938       __acrt_freeptd             000000018001b938 f   libucrt:per_thread_data.obj
 0001:0001a97c       __acrt_getptd              000000018001b97c f   libucrt:per_thread_data.obj
 0001:0001aa50       __acrt_getptd_head         000000018001ba50 f   libucrt:per_thread_data.obj
 0001:0001aaf8       __acrt_getptd_noexit       000000018001baf8 f   libucrt:per_thread_data.obj
 0001:0001abc4       __acrt_initialize_ptd      000000018001bbc4 f   libucrt:per_thread_data.obj
 0001:0001ac00       __acrt_uninitialize_ptd    000000018001bc00 f   libucrt:per_thread_data.obj
 0001:0001ac24       _fileno                    000000018001bc24 f   libucrt:fileno.obj
 0001:0001ae90       __acrt_stdio_flush_and_write_narrow_nolock 000000018001be90 f   libucrt:_flsbuf.obj
 0001:0001af7c       __acrt_stdio_flush_and_write_wide_nolock 000000018001bf7c f   libucrt:_flsbuf.obj
 0001:0001b264       __acrt_initialize_lowio    000000018001c264 f   libucrt:ioinit.obj
 0001:0001b2a0       __acrt_uninitialize_lowio  000000018001c2a0 f   libucrt:ioinit.obj
 0001:0001b2e0       _calloc_base               000000018001c2e0 f   libucrt:calloc_base.obj
 0001:0001b358       _free_base                 000000018001c358 f   libucrt:free_base.obj
 0001:0001b570       __acrt_AppPolicyGetProcessTerminationMethodInternal 000000018001c570 f   libucrt:winapi_thunks.obj
 0001:0001b5c0       __acrt_AppPolicyGetShowDeveloperDiagnosticInternal 000000018001c5c0 f   libucrt:winapi_thunks.obj
 0001:0001b610       __acrt_AppPolicyGetWindowingModelInternal 000000018001c610 f   libucrt:winapi_thunks.obj
 0001:0001b660       __acrt_AreFileApisANSI     000000018001c660 f   libucrt:winapi_thunks.obj
 0001:0001b69c       __acrt_FlsAlloc            000000018001c69c f   libucrt:winapi_thunks.obj
 0001:0001b6e4       __acrt_FlsFree             000000018001c6e4 f   libucrt:winapi_thunks.obj
 0001:0001b72c       __acrt_FlsGetValue         000000018001c72c f   libucrt:winapi_thunks.obj
 0001:0001b774       __acrt_FlsSetValue         000000018001c774 f   libucrt:winapi_thunks.obj
 0001:0001b7c8       __acrt_InitializeCriticalSectionEx 000000018001c7c8 f   libucrt:winapi_thunks.obj
 0001:0001b82c       __acrt_LCMapStringEx       000000018001c82c f   libucrt:winapi_thunks.obj
 0001:0001b908       __acrt_LocaleNameToLCID    000000018001c908 f   libucrt:winapi_thunks.obj
 0001:0001b958       __acrt_MessageBoxW         000000018001c958 f   libucrt:winapi_thunks.obj
 0001:0001b9cc       __acrt_can_show_message_box 000000018001c9cc f   libucrt:winapi_thunks.obj
 0001:0001ba3c       __acrt_get_parent_window   000000018001ca3c f   libucrt:winapi_thunks.obj
 0001:0001bab4       __acrt_initialize_winapi_thunks 000000018001cab4 f   libucrt:winapi_thunks.obj
 0001:0001bae8       __acrt_is_interactive      000000018001cae8 f   libucrt:winapi_thunks.obj
 0001:0001bbb0       __acrt_uninitialize_winapi_thunks 000000018001cbb0 f   libucrt:winapi_thunks.obj
 0001:0001bbf4       _fcloseall                 000000018001cbf4 f   libucrt:closeall.obj
 0001:0001bca8       __acrt_stdio_free_buffer_nolock 000000018001cca8 f   libucrt:_freebuf.obj
 0001:0001bd74       _commit                    000000018001cd74 f   libucrt:commit.obj
 0001:0001c674       _write                     000000018001d674 f   libucrt:write.obj
 0001:0001c760       _write_nolock              000000018001d760 f   libucrt:write.obj
 0001:0001cab0       _close                     000000018001dab0 f   libucrt:close.obj
 0001:0001cb54       _close_nolock              000000018001db54 f   libucrt:close.obj
 0001:0001cc14       ?__acrt_stdio_free_stream@@YAXV__crt_stdio_stream@@@Z 000000018001dc14 f   libucrt:stream.obj
 0001:0001cc30       _malloc_base               000000018001dc30 f   libucrt:malloc_base.obj
 0001:0001cc90       wcstol                     000000018001dc90 f   libucrt:strtox.obj
 0001:0001ccbc       _mbtowc_l                  000000018001dcbc f   libucrt:mbtowc.obj
 0001:0001ce38       mbtowc                     000000018001de38 f   libucrt:mbtowc.obj
 0001:0001ce40       _wctomb_s_l                000000018001de40 f   libucrt:wctomb.obj
 0001:0001cfe0       wctomb_s                   000000018001dfe0 f   libucrt:wctomb.obj
 0001:0001cff4       __acrt_update_locale_info  000000018001dff4 f   libucrt:locale_update.obj
 0001:0001d028       __acrt_update_multibyte_info 000000018001e028 f   libucrt:locale_update.obj
 0001:0001da30       __acrt_fp_format           000000018001ea30 f   libucrt:cvt.obj
 0001:0001dcb8       _fputwc_nolock             000000018001ecb8 f   libucrt:fputwc.obj
 0001:0001de34       _get_printf_count_output   000000018001ee34 f   libucrt:printf_count_output.obj
 0001:0001de4c       __acrt_stdio_begin_temporary_buffering_nolock 000000018001ee4c f   libucrt:_sftbuf.obj
 0001:0001df1c       __acrt_stdio_end_temporary_buffering_nolock 000000018001ef1c f   libucrt:_sftbuf.obj
 0001:0001dfc8       __acrt_set_locale_changed  000000018001efc8 f   libucrt:wsetlocale.obj
 0001:0001dfd4       __acrt_uninitialize_locale 000000018001efd4 f   libucrt:wsetlocale.obj
 0001:0001e004       __acrt_stdio_allocate_buffer_nolock 000000018001f004 f   libucrt:_getbuf.obj
 0001:0001e1f8       _lseeki64                  000000018001f1f8 f   libucrt:lseek.obj
 0001:0001e200       _lseeki64_nolock           000000018001f200 f   libucrt:lseek.obj
 0001:0001e32c       _handle_error              000000018001f32c f   libucrt:libm_error.obj
 0001:0001e454       _handle_errorf             000000018001f454 f   libucrt:libm_error.obj
 0001:0001e588       _handle_nan                000000018001f588 f   libucrt:libm_error.obj
 0001:0001e5a4       _handle_nanf               000000018001f5a4 f   libucrt:libm_error.obj
 0001:0001e5b4       __acrt_get_developer_information_policy 000000018001f5b4 f   libucrt:win_policies.obj
 0001:0001e608       __acrt_get_process_end_policy 000000018001f608 f   libucrt:win_policies.obj
 0001:0001e644       __acrt_get_windowing_model_policy 000000018001f644 f   libucrt:win_policies.obj
 0001:0001e6b0       _realloc_base              000000018001f6b0 f   libucrt:realloc_base.obj
 0001:0001e72c       _isctype_l                 000000018001f72c f   libucrt:isctype.obj
 0001:0001e83c       __acrt_GetStringTypeA      000000018001f83c f   libucrt:getstringtypea.obj
 0001:0001ece4       __acrt_LCMapStringA        000000018001fce4 f   libucrt:lcmapstringa.obj
 0001:0001ed7c       iswctype                   000000018001fd7c f   libucrt:iswctype.obj
 0001:0001edec       _raise_exc                 000000018001fdec f   libucrt:fpexcept.obj
 0001:0001ee14       _raise_exc_ex              000000018001fe14 f   libucrt:fpexcept.obj
 0001:0001f124       _raise_excf                0000000180020124 f   libucrt:fpexcept.obj
 0001:0001f150       _set_errno_from_matherr    0000000180020150 f   libucrt:fpexcept.obj
 0001:0001f180       _clrfp                     0000000180020180 f   libucrt:fpctrl.obj
 0001:0001f1a0       _ctrlfp                    00000001800201a0 f   libucrt:fpctrl.obj
 0001:0001f21c       _set_statfp                000000018002021c f   libucrt:fpctrl.obj
 0001:0001f23c       _statfp                    000000018002023c f   libucrt:fpctrl.obj
 0001:0001f250       __acrt_initialize_fma3     0000000180020250 f   libucrt:fma3_available.obj
 0001:0001f2c0       _pow_special               00000001800202c0 f   libucrt:pow_special.obj
 0001:0001f3e4       _powf_special              00000001800203e4 f   libucrt:pow_special.obj
 0001:0001f570       __acrt_MultiByteToWideChar 0000000180020570 f   libucrt:multibytetowidechar.obj
 0001:0001f5cc       __acrt_WideCharToMultiByte 00000001800205cc f   libucrt:widechartomultibyte.obj
 0001:0001f664       __acrt_initialize_timeset  0000000180020664 f   libucrt:timeset.obj
 0001:0001f6a8       _isleadbyte_l              00000001800206a8 f i libucrt:_wctype.obj
 0001:0001f708       ??$__acrt_wcs_to_mbs_cp@U__crt_win32_buffer_internal_dynamic_resizing@@@@YAHQEB_WAEAV?$__crt_win32_buffer@DU__crt_win32_buffer_internal_dynamic_resizing@@@@I@Z 0000000180020708 f i libucrt:argv_wildcards.obj
 0001:0001ff38       __acrt_expand_narrow_argv_wildcards 0000000180020f38 f   libucrt:argv_wildcards.obj
 0001:0002066c       __acrt_initialize_multibyte 000000018002166c f   libucrt:mbctype.obj
 0001:000206cc       __acrt_update_thread_multibyte_data 00000001800216cc f   libucrt:mbctype.obj
 0001:000206e8       _setmbcp_nolock            00000001800216e8 f   libucrt:mbctype.obj
 0001:00020a1c       _ismbblead                 0000000180021a1c f   libucrt:ismbbyte.obj
 0001:00020a30       __acrt_initialize_command_line 0000000180021a30 f   libucrt:argv_data.obj
 0001:00020a58       __dcrt_get_narrow_environment_from_os 0000000180021a58 f   libucrt:get_environment_from_os.obj
 0001:00020b5c       _recalloc_base             0000000180021b5c f   libucrt:recalloc.obj
 0001:00020bf4       __acrt_initialize_heap     0000000180021bf4 f   libucrt:heap_handle.obj
 0001:00020c10       __acrt_uninitialize_heap   0000000180021c10 f   libucrt:heap_handle.obj
 0001:00020c1c       __acrt_execute_initializers 0000000180021c1c f   libucrt:shared_initialization.obj
 0001:00020c9c       __acrt_execute_uninitializers 0000000180021c9c f   libucrt:shared_initialization.obj
 0001:00020cd8       __acrt_has_user_matherr    0000000180021cd8 f   libucrt:matherr.obj
 0001:00020cf8       __acrt_initialize_user_matherr 0000000180021cf8 f   libucrt:matherr.obj
 0001:00020d00       __acrt_invoke_user_matherr 0000000180021d00 f   libucrt:matherr.obj
 0001:00020d30       __acrt_add_locale_ref      0000000180021d30 f   libucrt:locale_refcounting.obj
 0001:00020dbc       __acrt_free_locale         0000000180021dbc f   libucrt:locale_refcounting.obj
 0001:00020f34       __acrt_locale_add_lc_time_reference 0000000180021f34 f   libucrt:locale_refcounting.obj
 0001:00020f5c       __acrt_locale_free_lc_time_if_unreferenced 0000000180021f5c f   libucrt:locale_refcounting.obj
 0001:00020f94       __acrt_locale_release_lc_time_reference 0000000180021f94 f   libucrt:locale_refcounting.obj
 0001:00020fbc       __acrt_release_locale_ref  0000000180021fbc f   libucrt:locale_refcounting.obj
 0001:00021064       __acrt_update_thread_locale_data 0000000180022064 f   libucrt:locale_refcounting.obj
 0001:000210d4       _updatetlocinfoEx_nolock   00000001800220d4 f   libucrt:locale_refcounting.obj
 0001:0002113c       __acrt_lowio_create_handle_array 000000018002213c f   libucrt:osfinfo.obj
 0001:000211e4       __acrt_lowio_destroy_handle_array 00000001800221e4 f   libucrt:osfinfo.obj
 0001:00021234       __acrt_lowio_ensure_fh_exists 0000000180022234 f   libucrt:osfinfo.obj
 0001:000212dc       __acrt_lowio_lock_fh       00000001800222dc f   libucrt:osfinfo.obj
 0001:00021304       __acrt_lowio_unlock_fh     0000000180022304 f   libucrt:osfinfo.obj
 0001:0002132c       _free_osfhnd               000000018002232c f   libucrt:osfinfo.obj
 0001:000213e8       _get_osfhandle             00000001800223e8 f   libucrt:osfinfo.obj
 0001:00021460       _isatty                    0000000180022460 f   libucrt:isatty.obj
 0001:000214c0       _query_new_mode            00000001800224c0 f   libucrt:new_mode.obj
 0001:000215b0       __acrt_DownlevelLocaleNameToLCID 00000001800225b0 f   libucrt:lcidtoname_downlevel.obj
 0001:000215e4       ?__mbrtowc_utf8@__crt_mbstring@@YA_KPEA_WPEBD_KPEAU_Mbstatet@@@Z 00000001800225e4 f   libucrt:mbrtowc.obj
 0001:00021620       ?__mbsrtowcs_utf8@__crt_mbstring@@YA_KPEA_WPEAPEBD_KPEAU_Mbstatet@@@Z 0000000180022620 f   libucrt:mbrtowc.obj
 0001:00021798       _putwch_nolock             0000000180022798 f   libucrt:putwch.obj
 0001:000217d4       ?__c32rtomb_utf8@__crt_mbstring@@YA_KPEAD_UPEAU_Mbstatet@@@Z 00000001800227d4 f   libucrt:c32rtomb.obj
 0001:0002188c       __acrt_fp_strflt_to_string 000000018002288c f   libucrt:_fptostr.obj
 0001:00021970       __acrt_fltout              0000000180022970 f   libucrt:cfout.obj
 0001:00022ba4       __acrt_locale_free_monetary 0000000180023ba4 f   libucrt:initmon.obj
 0001:00022cb0       __acrt_locale_free_numeric 0000000180023cb0 f   libucrt:initnum.obj
 0001:00022d74       __acrt_locale_free_time    0000000180023d74 f   libucrt:inittime.obj
 0001:00022e7c       strncpy_s                  0000000180023e7c f   libucrt:strncpy_s.obj
 0001:00022f50       __acrt_GetStringTypeW      0000000180023f50 f   libucrt:getstringtypew.obj
 0001:00022f58       __acrt_fenv_get_control    0000000180023f58 f   libucrt:_fenvutils.obj
 0001:0002304c       __acrt_fenv_get_status     000000018002404c f   libucrt:_fenvutils.obj
 0001:000230a0       __acrt_fenv_set_control    00000001800240a0 f   libucrt:_fenvutils.obj
 0001:000231e8       __acrt_fenv_set_status     00000001800241e8 f   libucrt:_fenvutils.obj
 0001:00023280       _get_fpsr                  0000000180024280 f   libucrt:fpsr.obj
 0001:00023290       _set_fpsr                  0000000180024290 f   libucrt:fpsr.obj
 0001:0002329a       _fclrf                     000000018002429a f   libucrt:fpsr.obj
 0001:000232ae       _frnd                      00000001800242ae f   libucrt:fpsr.obj
 0001:000232d0       qsort                      00000001800242d0 f   libucrt:qsort.obj
 0001:00023730       strpbrk                    0000000180024730 f   libucrt:strpbrk.obj
 0001:00023b10       _mbsdec                    0000000180024b10 f   libucrt:mbsdec.obj
 0001:00023b18       _mbsdec_l                  0000000180024b18 f   libucrt:mbsdec.obj
 0001:00023bc4       _msize_base                0000000180024bc4 f   libucrt:msize.obj
 0001:00023c00       ?__mbrtoc32_utf8@__crt_mbstring@@YA_KPEA_UPEBD_KPEAU_Mbstatet@@@Z 0000000180024c00 f   libucrt:mbrtoc32.obj
 0001:00023ddc       __dcrt_lowio_ensure_console_output_initialized 0000000180024ddc f   libucrt:initcon.obj
 0001:00023e30       __dcrt_terminate_console_output 0000000180024e30 f   libucrt:initcon.obj
 0001:00023e4c       __dcrt_write_console       0000000180024e4c f   libucrt:initcon.obj
 0001:00023f0c       fegetenv                   0000000180024f0c f   libucrt:fegetenv.obj
 0001:00023f2c       fesetenv                   0000000180024f2c f   libucrt:fesetenv.obj
 0001:00023f7c       feholdexcept               0000000180024f7c f   libucrt:feholdexcept.obj
 0001:00023fcc       ceil                       0000000180024fcc f   libucrt:ceil.obj
 0001:00024090       log10                      0000000180025090 f   libucrt:log10.obj
 0001:0002463c       _clearfp                   000000018002563c f   libucrt:ieee.obj
 0001:000246b0       _log10_special             00000001800256b0 f   libucrt:log_special.obj
 0001:00024766       IsProcessorFeaturePresent  0000000180025766 f   kernel32:KERNEL32.dll
 0001:0002476c       ?DloadAcquireSectionWriteAccess@@YAXXZ 000000018002576c f i DelayImp:delayhlp.obj
 0001:00024818       ?DloadGetSRWLockFunctionPointers@@YAEXZ 0000000180025818 f i DelayImp:delayhlp.obj
 0001:000248b4       ?DloadMakePermanentImageCommit@@YAXPEAX_K@Z 00000001800258b4 f i DelayImp:delayhlp.obj
 0001:0002494c       ?DloadObtainSection@@YAPEAXPEAK0@Z 000000018002594c f i DelayImp:delayhlp.obj
 0001:000249e8       ?DloadProtectSection@@YAXKPEAK@Z 00000001800259e8 f i DelayImp:delayhlp.obj
 0001:00024a78       ?DloadReleaseSectionWriteAccess@@YAXXZ 0000000180025a78 f i DelayImp:delayhlp.obj
 0001:00024b0c       __delayLoadHelper2         0000000180025b0c f   DelayImp:delayhlp.obj
 0001:00024dd0       _FindPESection             0000000180025dd0 f   LIBCMT:pesect.obj
 0001:00024e20       _IsNonwritableInCurrentImage 0000000180025e20 f   LIBCMT:pesect.obj
 0001:00024e70       _ValidateImageBase         0000000180025e70 f   LIBCMT:pesect.obj
 0001:00024ea0       strrchr                    0000000180025ea0 f   libvcruntime:strrchr.obj
 0001:00025000       _guard_dispatch_icall_nop  0000000180026000 f   LIBCMT:guard_dispatch.obj
 0002:00000000       __imp_GetModuleHandleA     0000000180027000     kernel32:KERNEL32.dll
 0002:00000008       __imp_LoadLibraryExA       0000000180027008     kernel32:KERNEL32.dll
 0002:00000010       __imp_GetLastError         0000000180027010     kernel32:KERNEL32.dll
 0002:00000018       __imp_WideCharToMultiByte  0000000180027018     kernel32:KERNEL32.dll
 0002:00000020       __imp_EnterCriticalSection 0000000180027020     kernel32:KERNEL32.dll
 0002:00000028       __imp_LeaveCriticalSection 0000000180027028     kernel32:KERNEL32.dll
 0002:00000030       __imp_DeleteCriticalSection 0000000180027030     kernel32:KERNEL32.dll
 0002:00000038       __imp_SetLastError         0000000180027038     kernel32:KERNEL32.dll
 0002:00000040       __imp_InitializeCriticalSectionAndSpinCount 0000000180027040     kernel32:KERNEL32.dll
 0002:00000048       __imp_TlsAlloc             0000000180027048     kernel32:KERNEL32.dll
 0002:00000050       __imp_TlsGetValue          0000000180027050     kernel32:KERNEL32.dll
 0002:00000058       __imp_TlsSetValue          0000000180027058     kernel32:KERNEL32.dll
 0002:00000060       __imp_TlsFree              0000000180027060     kernel32:KERNEL32.dll
 0002:00000068       __imp_GetSystemTimeAsFileTime 0000000180027068     kernel32:KERNEL32.dll
 0002:00000070       __imp_GetModuleHandleW     0000000180027070     kernel32:KERNEL32.dll
 0002:00000078       __imp_GetProcAddress       0000000180027078     kernel32:KERNEL32.dll
 0002:00000080       __imp_EncodePointer        0000000180027080     kernel32:KERNEL32.dll
 0002:00000088       __imp_DecodePointer        0000000180027088     kernel32:KERNEL32.dll
 0002:00000090       __imp_MultiByteToWideChar  0000000180027090     kernel32:KERNEL32.dll
 0002:00000098       __imp_LCMapStringW         0000000180027098     kernel32:KERNEL32.dll
 0002:000000a0       __imp_GetStringTypeW       00000001800270a0     kernel32:KERNEL32.dll
 0002:000000a8       __imp_GetCPInfo            00000001800270a8     kernel32:KERNEL32.dll
 0002:000000b0       __imp_RtlCaptureContext    00000001800270b0     kernel32:KERNEL32.dll
 0002:000000b8       __imp_RtlLookupFunctionEntry 00000001800270b8     kernel32:KERNEL32.dll
 0002:000000c0       __imp_RtlVirtualUnwind     00000001800270c0     kernel32:KERNEL32.dll
 0002:000000c8       __imp_UnhandledExceptionFilter 00000001800270c8     kernel32:KERNEL32.dll
 0002:000000d0       __imp_SetUnhandledExceptionFilter 00000001800270d0     kernel32:KERNEL32.dll
 0002:000000d8       __imp_GetCurrentProcess    00000001800270d8     kernel32:KERNEL32.dll
 0002:000000e0       __imp_TerminateProcess     00000001800270e0     kernel32:KERNEL32.dll
 0002:000000e8       __imp_IsProcessorFeaturePresent 00000001800270e8     kernel32:KERNEL32.dll
 0002:000000f0       __imp_QueryPerformanceCounter 00000001800270f0     kernel32:KERNEL32.dll
 0002:000000f8       __imp_GetCurrentProcessId  00000001800270f8     kernel32:KERNEL32.dll
 0002:00000100       __imp_GetCurrentThreadId   0000000180027100     kernel32:KERNEL32.dll
 0002:00000108       __imp_InitializeSListHead  0000000180027108     kernel32:KERNEL32.dll
 0002:00000110       __imp_IsDebuggerPresent    0000000180027110     kernel32:KERNEL32.dll
 0002:00000118       __imp_GetStartupInfoW      0000000180027118     kernel32:KERNEL32.dll
 0002:00000120       __imp_RtlPcToFileHeader    0000000180027120     kernel32:KERNEL32.dll
 0002:00000128       __imp_RaiseException       0000000180027128     kernel32:KERNEL32.dll
 0002:00000130       __imp_RtlUnwindEx          0000000180027130     kernel32:KERNEL32.dll
 0002:00000138       __imp_InterlockedFlushSList 0000000180027138     kernel32:KERNEL32.dll
 0002:00000140       __imp_FreeLibrary          0000000180027140     kernel32:KERNEL32.dll
 0002:00000148       __imp_LoadLibraryExW       0000000180027148     kernel32:KERNEL32.dll
 0002:00000150       __imp_GetStdHandle         0000000180027150     kernel32:KERNEL32.dll
 0002:00000158       __imp_GetFileType          0000000180027158     kernel32:KERNEL32.dll
 0002:00000160       __imp_GetModuleFileNameW   0000000180027160     kernel32:KERNEL32.dll
 0002:00000168       __imp_GetModuleHandleExW   0000000180027168     kernel32:KERNEL32.dll
 0002:00000170       __imp_WriteConsoleW        0000000180027170     kernel32:KERNEL32.dll
 0002:00000178       __imp_ExitProcess          0000000180027178     kernel32:KERNEL32.dll
 0002:00000180       __imp_WriteFile            0000000180027180     kernel32:KERNEL32.dll
 0002:00000188       __imp_OutputDebugStringW   0000000180027188     kernel32:KERNEL32.dll
 0002:00000190       __imp_GetFileSizeEx        0000000180027190     kernel32:KERNEL32.dll
 0002:00000198       __imp_SetFilePointerEx     0000000180027198     kernel32:KERNEL32.dll
 0002:000001a0       __imp_HeapAlloc            00000001800271a0     kernel32:KERNEL32.dll
 0002:000001a8       __imp_HeapFree             00000001800271a8     kernel32:KERNEL32.dll
 0002:000001b0       __imp_FlushFileBuffers     00000001800271b0     kernel32:KERNEL32.dll
 0002:000001b8       __imp_GetConsoleCP         00000001800271b8     kernel32:KERNEL32.dll
 0002:000001c0       __imp_GetConsoleMode       00000001800271c0     kernel32:KERNEL32.dll
 0002:000001c8       __imp_CloseHandle          00000001800271c8     kernel32:KERNEL32.dll
 0002:000001d0       __imp_HeapReAlloc          00000001800271d0     kernel32:KERNEL32.dll
 0002:000001d8       __imp_FindClose            00000001800271d8     kernel32:KERNEL32.dll
 0002:000001e0       __imp_FindFirstFileExW     00000001800271e0     kernel32:KERNEL32.dll
 0002:000001e8       __imp_FindNextFileW        00000001800271e8     kernel32:KERNEL32.dll
 0002:000001f0       __imp_IsValidCodePage      00000001800271f0     kernel32:KERNEL32.dll
 0002:000001f8       __imp_GetACP               00000001800271f8     kernel32:KERNEL32.dll
 0002:00000200       __imp_GetOEMCP             0000000180027200     kernel32:KERNEL32.dll
 0002:00000208       __imp_GetCommandLineA      0000000180027208     kernel32:KERNEL32.dll
 0002:00000210       __imp_GetCommandLineW      0000000180027210     kernel32:KERNEL32.dll
 0002:00000218       __imp_GetEnvironmentStringsW 0000000180027218     kernel32:KERNEL32.dll
 0002:00000220       __imp_FreeEnvironmentStringsW 0000000180027220     kernel32:KERNEL32.dll
 0002:00000228       __imp_GetProcessHeap       0000000180027228     kernel32:KERNEL32.dll
 0002:00000230       __imp_SetStdHandle         0000000180027230     kernel32:KERNEL32.dll
 0002:00000238       __imp_CreateFileW          0000000180027238     kernel32:KERNEL32.dll
 0002:00000240       __imp_HeapSize             0000000180027240     kernel32:KERNEL32.dll
 0002:00000248       __imp_GetSystemInfo        0000000180027248     kernel32:KERNEL32.dll
 0002:00000250       __imp_VirtualProtect       0000000180027250     kernel32:KERNEL32.dll
 0002:00000258       __imp_VirtualQuery         0000000180027258     kernel32:KERNEL32.dll
 0002:00000260       \177KERNEL32_NULL_THUNK_DATA 0000000180027260     kernel32:KERNEL32.dll
 0002:00000268       __guard_check_icall_fptr   0000000180027268     LIBCMT:guard_support.obj
 0002:00000270       __guard_dispatch_icall_fptr 0000000180027270     LIBCMT:guard_support.obj
 0002:00000278       __xc_a                     0000000180027278     LIBCMT:initializers.obj
 0002:000002a8       _register_woff2_decode_    00000001800272a8     woff2_decode.obj
 0002:000002b0       __xc_z                     00000001800272b0     LIBCMT:initializers.obj
 0002:000002b8       __xi_a                     00000001800272b8     LIBCMT:initializers.obj
 0002:000002c8       __acrt_stdio_initializer   00000001800272c8     libucrt:stdio_initializer.obj
 0002:000002d0       __acrt_tran_fma3_initializer 00000001800272d0     libucrt:fma3_initializer.obj
 0002:000002d8       __acrt_timeset_initializer 00000001800272d8     libucrt:timeset_initializer.obj
 0002:000002e0       __acrt_multibyte_initializer 00000001800272e0     libucrt:multibyte_initializer.obj
 0002:000002e8       __xi_z                     00000001800272e8     LIBCMT:initializers.obj
 0002:000002f0       __xp_a                     00000001800272f0     LIBCMT:initializers.obj
 0002:000002f8       __acrt_locale_terminator   00000001800272f8     libucrt:locale_initializer.obj
 0002:00000300       __dcrt_console_output_terminator 0000000180027300     libucrt:console_output_initializer.obj
 0002:00000308       __acrt_stdio_terminator    0000000180027308     libucrt:stdio_initializer.obj
 0002:00000310       __xp_z                     0000000180027310     LIBCMT:initializers.obj
 0002:00000318       __xt_a                     0000000180027318     LIBCMT:initializers.obj
 0002:00000320       __xt_z                     0000000180027320     LIBCMT:initializers.obj
 0002:00000330       __sz_node_exe              0000000180027330     node:node.exe
 0002:00000348       ??_7exception@std@@6B@     0000000180027348     libcpmt:xthrow.obj
 0002:00000358       ??_C@_0BC@EOODALEL@Unknown?5exception@ 0000000180027358     libcpmt:xthrow.obj
 0002:00000378       ??_7bad_alloc@std@@6B@     0000000180027378     libcpmt:xthrow.obj
 0002:00000388       ??_C@_0P@GHFPNOJB@bad?5allocation@ 0000000180027388     libcpmt:xthrow.obj
 0002:000003a0       ??_7logic_error@std@@6B@   00000001800273a0     libcpmt:xthrow.obj
 0002:000003b8       ??_7length_error@std@@6B@  00000001800273b8     libcpmt:xthrow.obj
 0002:00000418       ??_C@_01NBENCBCI@?$CK@     0000000180027418     libcpmt:locale0.obj
 0002:00000420       ?_BADOFF@std@@3_JB         0000000180027420     libcpmt:ios.obj
 0002:00000b80       ??_C@_0BN@LKKBCCDB@address?5family?5not?5supported@ 0000000180027b80     libcpmt:syserror.obj
 0002:00000ba0       ??_C@_0P@LDMLAFHI@address?5in?5use@ 0000000180027ba0     libcpmt:syserror.obj
 0002:00000bb0       ??_C@_0BG@DHPCNBJB@address?5not?5available@ 0000000180027bb0     libcpmt:syserror.obj
 0002:00000bc8       ??_C@_0BC@DFIBIBIL@already?5connected@ 0000000180027bc8     libcpmt:syserror.obj
 0002:00000be0       ??_C@_0BH@CAKOHOMI@argument?5list?5too?5long@ 0000000180027be0     libcpmt:syserror.obj
 0002:00000bf8       ??_C@_0BH@CGIMPKIM@argument?5out?5of?5domain@ 0000000180027bf8     libcpmt:syserror.obj
 0002:00000c10       ??_C@_0M@KGHGGJGL@bad?5address@ 0000000180027c10     libcpmt:syserror.obj
 0002:00000c20       ??_C@_0BE@MPJPGCEO@bad?5file?5descriptor@ 0000000180027c20     libcpmt:syserror.obj
 0002:00000c38       ??_C@_0M@PMMIEFCP@bad?5message@ 0000000180027c38     libcpmt:syserror.obj
 0002:00000c48       ??_C@_0M@KPHOFDBE@broken?5pipe@ 0000000180027c48     libcpmt:syserror.obj
 0002:00000c58       ??_C@_0BD@MGNDDEGM@connection?5aborted@ 0000000180027c58     libcpmt:syserror.obj
 0002:00000c70       ??_C@_0BP@KAIHPOGN@connection?5already?5in?5progress@ 0000000180027c70     libcpmt:syserror.obj
 0002:00000c90       ??_C@_0BD@PJLIIJEL@connection?5refused@ 0000000180027c90     libcpmt:syserror.obj
 0002:00000ca8       ??_C@_0BB@IECNJNOI@connection?5reset@ 0000000180027ca8     libcpmt:syserror.obj
 0002:00000cc0       ??_C@_0BC@PPHBOELF@cross?5device?5link@ 0000000180027cc0     libcpmt:syserror.obj
 0002:00000cd8       ??_C@_0BN@KDMIFEIP@destination?5address?5required@ 0000000180027cd8     libcpmt:syserror.obj
 0002:00000cf8       ??_C@_0BI@NGCEHDD@device?5or?5resource?5busy@ 0000000180027cf8     libcpmt:syserror.obj
 0002:00000d10       ??_C@_0BE@JIDOCPHM@directory?5not?5empty@ 0000000180027d10     libcpmt:syserror.obj
 0002:00000d28       ??_C@_0BI@BNCLIGPB@executable?5format?5error@ 0000000180027d28     libcpmt:syserror.obj
 0002:00000d40       ??_C@_0M@MIDIAGJP@file?5exists@ 0000000180027d40     libcpmt:syserror.obj
 0002:00000d50       ??_C@_0P@DNAJLBJK@file?5too?5large@ 0000000180027d50     libcpmt:syserror.obj
 0002:00000d60       ??_C@_0BC@EJHOMAAK@filename?5too?5long@ 0000000180027d60     libcpmt:syserror.obj
 0002:00000d78       ??_C@_0BH@KEFGLDAF@function?5not?5supported@ 0000000180027d78     libcpmt:syserror.obj
 0002:00000d90       ??_C@_0BB@DHFDFGDM@host?5unreachable@ 0000000180027d90     libcpmt:syserror.obj
 0002:00000da8       ??_C@_0BD@JPHBMONG@identifier?5removed@ 0000000180027da8     libcpmt:syserror.obj
 0002:00000dc0       ??_C@_0BG@CDNPAGJK@illegal?5byte?5sequence@ 0000000180027dc0     libcpmt:syserror.obj
 0002:00000dd8       ??_C@_0CD@BNPLBMNA@inappropriate?5io?5control?5operat@ 0000000180027dd8     libcpmt:syserror.obj
 0002:00000e00       ??_C@_0M@EGEKIIMP@interrupted@ 0000000180027e00     libcpmt:syserror.obj
 0002:00000e10       ??_C@_0BB@FCMFBGOM@invalid?5argument@ 0000000180027e10     libcpmt:syserror.obj
 0002:00000e28       ??_C@_0N@OHAFKDEK@invalid?5seek@ 0000000180027e28     libcpmt:syserror.obj
 0002:00000e38       ??_C@_08GLNPIFBN@io?5error@ 0000000180027e38     libcpmt:syserror.obj
 0002:00000e48       ??_C@_0P@FLLDBIDK@is?5a?5directory@ 0000000180027e48     libcpmt:syserror.obj
 0002:00000e58       ??_C@_0N@IFLPBIOP@message?5size@ 0000000180027e58     libcpmt:syserror.obj
 0002:00000e68       ??_C@_0N@KIIEAAIO@network?5down@ 0000000180027e68     libcpmt:syserror.obj
 0002:00000e78       ??_C@_0O@FNPDBHEE@network?5reset@ 0000000180027e78     libcpmt:syserror.obj
 0002:00000e88       ??_C@_0BE@IFNCKGE@network?5unreachable@ 0000000180027e88     libcpmt:syserror.obj
 0002:00000ea0       ??_C@_0BA@PFFCAOFK@no?5buffer?5space@ 0000000180027ea0     libcpmt:syserror.obj
 0002:00000eb0       ??_C@_0BB@IEPBLJHK@no?5child?5process@ 0000000180027eb0     libcpmt:syserror.obj
 0002:00000ec8       ??_C@_07PLECNNKG@no?5link@ 0000000180027ec8     libcpmt:syserror.obj
 0002:00000ed0       ??_C@_0BC@NJECKMKE@no?5lock?5available@ 0000000180027ed0     libcpmt:syserror.obj
 0002:00000ee8       ??_C@_0BF@PBGGPKKE@no?5message?5available@ 0000000180027ee8     libcpmt:syserror.obj
 0002:00000f00       ??_C@_0L@EDOLMPAK@no?5message@ 0000000180027f00     libcpmt:syserror.obj
 0002:00000f10       ??_C@_0BD@EAMBFIDF@no?5protocol?5option@ 0000000180027f10     libcpmt:syserror.obj
 0002:00000f28       ??_C@_0BD@IJDJKDEA@no?5space?5on?5device@ 0000000180027f28     libcpmt:syserror.obj
 0002:00000f40       ??_C@_0BE@MKFDAFMP@no?5stream?5resources@ 0000000180027f40     libcpmt:syserror.obj
 0002:00000f58       ??_C@_0BK@IMCPHCBI@no?5such?5device?5or?5address@ 0000000180027f58     libcpmt:syserror.obj
 0002:00000f78       ??_C@_0P@FDINDDOK@no?5such?5device@ 0000000180027f78     libcpmt:syserror.obj
 0002:00000f88       ??_C@_0BK@NDOCBPGE@no?5such?5file?5or?5directory@ 0000000180027f88     libcpmt:syserror.obj
 0002:00000fa8       ??_C@_0BA@ENLPPKBN@no?5such?5process@ 0000000180027fa8     libcpmt:syserror.obj
 0002:00000fb8       ??_C@_0BA@DOCPFFJG@not?5a?5directory@ 0000000180027fb8     libcpmt:syserror.obj
 0002:00000fc8       ??_C@_0N@POEIPGGF@not?5a?5socket@ 0000000180027fc8     libcpmt:syserror.obj
 0002:00000fd8       ??_C@_0N@LGAPMMPI@not?5a?5stream@ 0000000180027fd8     libcpmt:syserror.obj
 0002:00000fe8       ??_C@_0O@GLMIBBEG@not?5connected@ 0000000180027fe8     libcpmt:syserror.obj
 0002:00000ff8       ??_C@_0BC@ENOOLCNF@not?5enough?5memory@ 0000000180027ff8     libcpmt:syserror.obj
 0002:00001010       ??_C@_0O@NHEDABJP@not?5supported@ 0000000180028010     libcpmt:syserror.obj
 0002:00001020       ??_C@_0BD@MOLBPMEA@operation?5canceled@ 0000000180028020     libcpmt:syserror.obj
 0002:00001038       ??_C@_0BG@KDKHOPCO@operation?5in?5progress@ 0000000180028038     libcpmt:syserror.obj
 0002:00001050       ??_C@_0BI@OHIEJAAB@operation?5not?5permitted@ 0000000180028050     libcpmt:syserror.obj
 0002:00001068       ??_C@_0BI@LNEGIFLN@operation?5not?5supported@ 0000000180028068     libcpmt:syserror.obj
 0002:00001080       ??_C@_0BG@OEMDKMEE@operation?5would?5block@ 0000000180028080     libcpmt:syserror.obj
 0002:00001098       ??_C@_0L@BLPOFLNJ@owner?5dead@ 0000000180028098     libcpmt:syserror.obj
 0002:000010a8       ??_C@_0BC@CIJDGCDI@permission?5denied@ 00000001800280a8     libcpmt:syserror.obj
 0002:000010c0       ??_C@_0P@FNPOCJBE@protocol?5error@ 00000001800280c0     libcpmt:syserror.obj
 0002:000010d0       ??_C@_0BH@JPPPLHJB@protocol?5not?5supported@ 00000001800280d0     libcpmt:syserror.obj
 0002:000010e8       ??_C@_0BG@EICBIHDP@read?5only?5file?5system@ 00000001800280e8     libcpmt:syserror.obj
 0002:00001100       ??_C@_0BO@BJBOMOEJ@resource?5deadlock?5would?5occur@ 0000000180028100     libcpmt:syserror.obj
 0002:00001120       ??_C@_0BP@LKNGHENJ@resource?5unavailable?5try?5again@ 0000000180028120     libcpmt:syserror.obj
 0002:00001140       ??_C@_0BE@GOIPJJHG@result?5out?5of?5range@ 0000000180028140     libcpmt:syserror.obj
 0002:00001158       ??_C@_0BG@MPLKFPAE@state?5not?5recoverable@ 0000000180028158     libcpmt:syserror.obj
 0002:00001170       ??_C@_0P@DIIFGFCG@stream?5timeout@ 0000000180028170     libcpmt:syserror.obj
 0002:00001180       ??_C@_0P@IPFDMIFL@text?5file?5busy@ 0000000180028180     libcpmt:syserror.obj
 0002:00001190       ??_C@_09KJPPMAOI@timed?5out@ 0000000180028190     libcpmt:syserror.obj
 0002:000011a0       ??_C@_0BO@HACHBEKI@too?5many?5files?5open?5in?5system@ 00000001800281a0     libcpmt:syserror.obj
 0002:000011c0       ??_C@_0BE@GHAFMPAH@too?5many?5files?5open@ 00000001800281c0     libcpmt:syserror.obj
 0002:000011d8       ??_C@_0P@HCOMKFCC@too?5many?5links@ 00000001800281d8     libcpmt:syserror.obj
 0002:000011e8       ??_C@_0BO@EFGOJEF@too?5many?5symbolic?5link?5levels@ 00000001800281e8     libcpmt:syserror.obj
 0002:00001208       ??_C@_0BA@KGKGOOJA@value?5too?5large@ 0000000180028208     libcpmt:syserror.obj
 0002:00001218       ??_C@_0BE@MIEJDDNH@wrong?5protocol?5type@ 0000000180028218     libcpmt:syserror.obj
 0002:00001230       ??_C@_1BK@MGMFAEKH@?$AAk?$AAe?$AAr?$AAn?$AAe?$AAl?$AA3?$AA2?$AA?4?$AAd?$AAl?$AAl@ 0000000180028230     libcpmt:winapisupp.obj
 0002:00001250       ??_C@_08KNHFBNJ@FlsAlloc@  0000000180028250     libcpmt:winapisupp.obj
 0002:00001260       ??_C@_07PEJMOBNF@FlsFree@  0000000180028260     libcpmt:winapisupp.obj
 0002:00001268       ??_C@_0M@GDNOONDI@FlsGetValue@ 0000000180028268     libcpmt:winapisupp.obj
 0002:00001278       ??_C@_0M@JCPCPOEF@FlsSetValue@ 0000000180028278     libcpmt:winapisupp.obj
 0002:00001288       ??_C@_0BM@HCFOFFN@InitializeCriticalSectionEx@ 0000000180028288     libcpmt:winapisupp.obj
 0002:000012a8       ??_C@_0BE@GPLMMCMH@InitOnceExecuteOnce@ 00000001800282a8     libcpmt:winapisupp.obj
 0002:000012c0       ??_C@_0P@DLHPPCNH@CreateEventExW@ 00000001800282c0     libcpmt:winapisupp.obj
 0002:000012d0       ??_C@_0BB@MEFPJLHN@CreateSemaphoreW@ 00000001800282d0     libcpmt:winapisupp.obj
 0002:000012e8       ??_C@_0BD@KIEEOEEH@CreateSemaphoreExW@ 00000001800282e8     libcpmt:winapisupp.obj
 0002:00001300       ??_C@_0BG@OGFAJCKC@CreateThreadpoolTimer@ 0000000180028300     libcpmt:winapisupp.obj
 0002:00001318       ??_C@_0BD@LPLEMMDI@SetThreadpoolTimer@ 0000000180028318     libcpmt:winapisupp.obj
 0002:00001330       ??_C@_0CA@FMNJENH@WaitForThreadpoolTimerCallbacks@ 0000000180028330     libcpmt:winapisupp.obj
 0002:00001350       ??_C@_0BF@DCFCCNOC@CloseThreadpoolTimer@ 0000000180028350     libcpmt:winapisupp.obj
 0002:00001368       ??_C@_0BF@FLABGKKM@CreateThreadpoolWait@ 0000000180028368     libcpmt:winapisupp.obj
 0002:00001380       ??_C@_0BC@MGCOHNA@SetThreadpoolWait@ 0000000180028380     libcpmt:winapisupp.obj
 0002:00001398       ??_C@_0BE@OCIOMIMP@CloseThreadpoolWait@ 0000000180028398     libcpmt:winapisupp.obj
 0002:000013b0       ??_C@_0BJ@LKGHFHBO@FlushProcessWriteBuffers@ 00000001800283b0     libcpmt:winapisupp.obj
 0002:000013d0       ??_C@_0BP@KALKKPMO@FreeLibraryWhenCallbackReturns@ 00000001800283d0     libcpmt:winapisupp.obj
 0002:000013f0       ??_C@_0BK@DFNBACLA@GetCurrentProcessorNumber@ 00000001800283f0     libcpmt:winapisupp.obj
 0002:00001410       ??_C@_0BE@FKKLLFLM@CreateSymbolicLinkW@ 0000000180028410     libcpmt:winapisupp.obj
 0002:00001428       ??_C@_0BE@JOGNEJCI@GetCurrentPackageId@ 0000000180028428     libcpmt:winapisupp.obj
 0002:00001440       ??_C@_0P@CDHHOHKP@GetTickCount64@ 0000000180028440     libcpmt:winapisupp.obj
 0002:00001450       ??_C@_0BN@NEEHBBPO@GetFileInformationByHandleEx@ 0000000180028450     libcpmt:winapisupp.obj
 0002:00001470       ??_C@_0BL@KBBHGKCM@SetFileInformationByHandle@ 0000000180028470     libcpmt:winapisupp.obj
 0002:00001490       ??_C@_0BP@FPNJPEJC@GetSystemTimePreciseAsFileTime@ 0000000180028490     libcpmt:winapisupp.obj
 0002:000014b0       ??_C@_0BM@HLJJNPAH@InitializeConditionVariable@ 00000001800284b0     libcpmt:winapisupp.obj
 0002:000014d0       ??_C@_0BG@BFNILBLN@WakeConditionVariable@ 00000001800284d0     libcpmt:winapisupp.obj
 0002:000014e8       ??_C@_0BJ@PGPPEPCC@WakeAllConditionVariable@ 00000001800284e8     libcpmt:winapisupp.obj
 0002:00001508       ??_C@_0BJ@JEBJOJFJ@SleepConditionVariableCS@ 0000000180028508     libcpmt:winapisupp.obj
 0002:00001528       ??_C@_0BC@MMLHEBPB@InitializeSRWLock@ 0000000180028528     libcpmt:winapisupp.obj
 0002:00001540       ??_C@_0BI@OMNLIJDB@AcquireSRWLockExclusive@ 0000000180028540     libcpmt:winapisupp.obj
 0002:00001558       ??_C@_0BL@OGHFEMNA@TryAcquireSRWLockExclusive@ 0000000180028558     libcpmt:winapisupp.obj
 0002:00001578       ??_C@_0BI@HMIEPCNJ@ReleaseSRWLockExclusive@ 0000000180028578     libcpmt:winapisupp.obj
 0002:00001590       ??_C@_0BK@LGACAGIC@SleepConditionVariableSRW@ 0000000180028590     libcpmt:winapisupp.obj
 0002:000015b0       ??_C@_0BF@GGPHFPJA@CreateThreadpoolWork@ 00000001800285b0     libcpmt:winapisupp.obj
 0002:000015c8       ??_C@_0BF@NHDAIMMO@SubmitThreadpoolWork@ 00000001800285c8     libcpmt:winapisupp.obj
 0002:000015e0       ??_C@_0BE@NPHIPNPD@CloseThreadpoolWork@ 00000001800285e0     libcpmt:winapisupp.obj
 0002:000015f8       ??_C@_0BA@IHGNDAEB@CompareStringEx@ 00000001800285f8     libcpmt:winapisupp.obj
 0002:00001608       ??_C@_0BA@ONOKGCMP@GetLocaleInfoEx@ 0000000180028608     libcpmt:winapisupp.obj
 0002:00001618       ??_C@_0O@KKBNKAPF@LCMapStringEx@ 0000000180028618     libcpmt:winapisupp.obj
 0002:00001650       ??_C@_11LOCGONAA@@         0000000180028650     libcpmt:wlocale.obj
 0002:00001654       ??_C@_01JOAMLHOP@?9@       0000000180028654     libcpmt:wlocale.obj
 0002:00003380       ??_C@_15EMKDOKLE@?$AAa?$AAr@ 000000018002a380     libcpmt:winapinls.obj
 0002:00003388       ??_C@_15KNPADPLH@?$AAb?$AAg@ 000000018002a388     libcpmt:winapinls.obj
 0002:00003390       ??_C@_15EDMHLDMO@?$AAc?$AAa@ 000000018002a390     libcpmt:winapinls.obj
 0002:00003398       ??_C@_1O@BPEAJADD@?$AAz?$AAh?$AA?9?$AAC?$AAH?$AAS@ 000000018002a398     libcpmt:winapinls.obj
 0002:000033a8       ??_C@_15LJNHCMNK@?$AAc?$AAs@ 000000018002a3a8     libcpmt:winapinls.obj
 0002:000033b0       ??_C@_15FOMCIDHG@?$AAd?$AAa@ 000000018002a3b0     libcpmt:winapinls.obj
 0002:000033b8       ??_C@_15NBKABECB@?$AAd?$AAe@ 000000018002a3b8     libcpmt:winapinls.obj
 0002:000033c0       ??_C@_15GHPEIIAO@?$AAe?$AAl@ 000000018002a3c0     libcpmt:winapinls.obj
 0002:000033c8       ??_C@_15MNPNEAIF@?$AAe?$AAn@ 000000018002a3c8     libcpmt:winapinls.obj
 0002:000033d0       ??_C@_15GPIOMPMH@?$AAe?$AAs@ 000000018002a3d0     libcpmt:winapinls.obj
 0002:000033d8       ??_C@_15NGLOAKJC@?$AAf?$AAi@ 000000018002a3d8     libcpmt:winapinls.obj
 0002:000033e0       ??_C@_15FBKGNKAM@?$AAf?$AAr@ 000000018002a3e0     libcpmt:winapinls.obj
 0002:000033e8       ??_C@_15KGGCNEFK@?$AAh?$AAe@ 000000018002a3e8     libcpmt:winapinls.obj
 0002:000033f0       ??_C@_15PGHLIDMF@?$AAh?$AAu@ 000000018002a3f0     libcpmt:winapinls.obj
 0002:000033f8       ??_C@_15BIEMAPLM@?$AAi?$AAs@ 000000018002a3f8     libcpmt:winapinls.obj
 0002:00003400       ??_C@_15IFJLDHAF@?$AAi?$AAt@ 000000018002a400     libcpmt:winapinls.obj
 0002:00003408       ??_C@_15GEMIOCAG@?$AAj?$AAa@ 000000018002a408     libcpmt:winapinls.obj
 0002:00003410       ??_C@_15EPELEGJA@?$AAk?$AAo@ 000000018002a410     libcpmt:winapinls.obj
 0002:00003418       ??_C@_15NDDHIMN@?$AAn?$AAl@ 000000018002a418     libcpmt:winapinls.obj
 0002:00003420       ??_C@_15BPIGNHCD@?$AAn?$AAo@ 000000018002a420     libcpmt:winapinls.obj
 0002:00003428       ??_C@_15DEOPBLCG@?$AAp?$AAl@ 000000018002a428     libcpmt:winapinls.obj
 0002:00003430       ??_C@_15KBECGEFG@?$AAp?$AAt@ 000000018002a430     libcpmt:winapinls.obj
 0002:00003438       ??_C@_15GLJCBFMD@?$AAr?$AAo@ 000000018002a438     libcpmt:winapinls.obj
 0002:00003440       ??_C@_15FEDGKCDI@?$AAr?$AAu@ 000000018002a440     libcpmt:winapinls.obj
 0002:00003448       ??_C@_15GLKMLLHM@?$AAh?$AAr@ 000000018002a448     libcpmt:winapinls.obj
 0002:00003450       ??_C@_15CPKMFBDB@?$AAs?$AAk@ 000000018002a450     libcpmt:winapinls.obj
 0002:00003458       ??_C@_15BAAIOGMK@?$AAs?$AAq@ 000000018002a458     libcpmt:winapinls.obj
 0002:00003460       ??_C@_15INNPNOHD@?$AAs?$AAv@ 000000018002a460     libcpmt:winapinls.obj
 0002:00003468       ??_C@_15CABMMOGH@?$AAt?$AAh@ 000000018002a468     libcpmt:winapinls.obj
 0002:00003470       ??_C@_15BPLIHJJM@?$AAt?$AAr@ 000000018002a470     libcpmt:winapinls.obj
 0002:00003478       ??_C@_15NEOEKKDJ@?$AAu?$AAr@ 000000018002a478     libcpmt:winapinls.obj
 0002:00003480       ??_C@_15NFICGAJK@?$AAi?$AAd@ 000000018002a480     libcpmt:winapinls.obj
 0002:00003488       ??_C@_15PJPFLCCM@?$AAu?$AAk@ 000000018002a488     libcpmt:winapinls.obj
 0002:00003490       ??_C@_15HPJPHDM@?$AAb?$AAe@ 000000018002a490     libcpmt:winapinls.obj
 0002:00003498       ??_C@_15LCHLGJII@?$AAs?$AAl@ 000000018002a498     libcpmt:winapinls.obj
 0002:000034a0       ??_C@_15PCFJPHHO@?$AAe?$AAt@ 000000018002a4a0     libcpmt:winapinls.obj
 0002:000034a8       ??_C@_15HPFPGODN@?$AAl?$AAv@ 000000018002a4a8     libcpmt:winapinls.obj
 0002:000034b0       ??_C@_15NFFGKGLG@?$AAl?$AAt@ 000000018002a4b0     libcpmt:winapinls.obj
 0002:000034b8       ??_C@_15BDAKCCHN@?$AAf?$AAa@ 000000018002a4b8     libcpmt:winapinls.obj
 0002:000034c0       ??_C@_15NFGIAIAJ@?$AAv?$AAi@ 000000018002a4c0     libcpmt:winapinls.obj
 0002:000034c8       ??_C@_15LMKNDMHN@?$AAh?$AAy@ 000000018002a4c8     libcpmt:winapinls.obj
 0002:000034d0       ??_C@_15IJBHMCFL@?$AAa?$AAz@ 000000018002a4d0     libcpmt:winapinls.obj
 0002:000034d8       ??_C@_15EKOFJABL@?$AAe?$AAu@ 000000018002a4d8     libcpmt:winapinls.obj
 0002:000034e0       ??_C@_15BGHADCNK@?$AAm?$AAk@ 000000018002a4e0     libcpmt:winapinls.obj
 0002:000034e8       ??_C@_15JDNICKHM@?$AAa?$AAf@ 000000018002a4e8     libcpmt:winapinls.obj
 0002:000034f0       ??_C@_15KPJEDBKD@?$AAk?$AAa@ 000000018002a4f0     libcpmt:winapinls.obj
 0002:000034f8       ??_C@_15PDNFFFEO@?$AAf?$AAo@ 000000018002a4f8     libcpmt:winapinls.obj
 0002:00003500       ??_C@_15OMLEGLOC@?$AAh?$AAi@ 000000018002a500     libcpmt:winapinls.obj
 0002:00003508       ??_C@_15IDNNENKK@?$AAm?$AAs@ 000000018002a508     libcpmt:winapinls.obj
 0002:00003510       ??_C@_15MACJNBMH@?$AAk?$AAk@ 000000018002a510     libcpmt:winapinls.obj
 0002:00003518       ??_C@_15DKDJEOND@?$AAk?$AAy@ 000000018002a518     libcpmt:winapinls.obj
 0002:00003520       ??_C@_15DFGDLJBG@?$AAs?$AAw@ 000000018002a520     libcpmt:winapinls.obj
 0002:00003528       ??_C@_15BBFAICNG@?$AAu?$AAz@ 000000018002a528     libcpmt:winapinls.obj
 0002:00003530       ??_C@_15DKNDCGEA@?$AAt?$AAt@ 000000018002a530     libcpmt:winapinls.obj
 0002:00003538       ??_C@_15MGIFMDPL@?$AAp?$AAa@ 000000018002a538     libcpmt:winapinls.obj
 0002:00003540       ??_C@_15HCNDBBA@?$AAg?$AAu@ 000000018002a540     libcpmt:winapinls.obj
 0002:00003548       ??_C@_15FNBEIBON@?$AAt?$AAa@ 000000018002a548     libcpmt:winapinls.obj
 0002:00003550       ??_C@_15NCHGBGLK@?$AAt?$AAe@ 000000018002a550     libcpmt:winapinls.obj
 0002:00003558       ??_C@_15PHPHCBPF@?$AAk?$AAn@ 000000018002a558     libcpmt:winapinls.obj
 0002:00003560       ??_C@_15DLGBCKMP@?$AAm?$AAr@ 000000018002a560     libcpmt:winapinls.obj
 0002:00003568       ??_C@_15EABBLBFF@?$AAs?$AAa@ 000000018002a568     libcpmt:winapinls.obj
 0002:00003570       ??_C@_15CBKOMCOI@?$AAm?$AAn@ 000000018002a570     libcpmt:winapinls.obj
 0002:00003578       ??_C@_15CKDMCJAF@?$AAg?$AAl@ 000000018002a578     libcpmt:winapinls.obj
 0002:00003580       ??_C@_17CNJFBPG@?$AAk?$AAo?$AAk@ 000000018002a580     libcpmt:winapinls.obj
 0002:00003588       ??_C@_17FFBJICPL@?$AAs?$AAy?$AAr@ 000000018002a588     libcpmt:winapinls.obj
 0002:00003590       ??_C@_17KPNDCPAF@?$AAd?$AAi?$AAv@ 000000018002a590     libcpmt:winapinls.obj
 0002:00003598       ??_C@_1M@OKAHONE@?$AAa?$AAr?$AA?9?$AAS?$AAA@ 000000018002a598     libcpmt:winapinls.obj
 0002:000035a8       ??_C@_1M@FFFIGIGK@?$AAb?$AAg?$AA?9?$AAB?$AAG@ 000000018002a5a8     libcpmt:winapinls.obj
 0002:000035b8       ??_C@_1M@BJNKEDC@?$AAc?$AAa?$AA?9?$AAE?$AAS@ 000000018002a5b8     libcpmt:winapinls.obj
 0002:000035c8       ??_C@_1M@CLNBBOPM@?$AAz?$AAh?$AA?9?$AAT?$AAW@ 000000018002a5c8     libcpmt:winapinls.obj
 0002:000035d8       ??_C@_1M@IJJHFJHA@?$AAc?$AAs?$AA?9?$AAC?$AAZ@ 000000018002a5d8     libcpmt:winapinls.obj
 0002:000035e8       ??_C@_1M@CLPEOBGI@?$AAd?$AAa?$AA?9?$AAD?$AAK@ 000000018002a5e8     libcpmt:winapinls.obj
 0002:000035f8       ??_C@_1M@MCMADGCB@?$AAd?$AAe?$AA?9?$AAD?$AAE@ 000000018002a5f8     libcpmt:winapinls.obj
 0002:00003608       ??_C@_1M@OOCKEMAM@?$AAe?$AAl?$AA?9?$AAG?$AAR@ 000000018002a608     libcpmt:winapinls.obj
 0002:00003618       ??_C@_1M@BMHNFIME@?$AAe?$AAn?$AA?9?$AAU?$AAS@ 000000018002a618     libcpmt:winapinls.obj
 0002:00003628       ??_C@_1M@DDNJFGID@?$AAf?$AAi?$AA?9?$AAF?$AAI@ 000000018002a628     libcpmt:winapinls.obj
 0002:00003638       ??_C@_1M@GLIPPMAC@?$AAf?$AAr?$AA?9?$AAF?$AAR@ 000000018002a638     libcpmt:winapinls.obj
 0002:00003648       ??_C@_1M@GFMCHPE@?$AAh?$AAe?$AA?9?$AAI?$AAL@ 000000018002a648     libcpmt:winapinls.obj
 0002:00003658       ??_C@_1M@MHLPGNKM@?$AAh?$AAu?$AA?9?$AAH?$AAU@ 000000018002a658     libcpmt:winapinls.obj
 0002:00003668       ??_C@_1M@LPDDNNPN@?$AAi?$AAs?$AA?9?$AAI?$AAS@ 000000018002a668     libcpmt:winapinls.obj
 0002:00003678       ??_C@_1M@MADIPODN@?$AAi?$AAt?$AA?9?$AAI?$AAT@ 000000018002a678     libcpmt:winapinls.obj
 0002:00003688       ??_C@_1M@HPNHIDJI@?$AAj?$AAa?$AA?9?$AAJ?$AAP@ 000000018002a688     libcpmt:winapinls.obj
 0002:00003698       ??_C@_1M@JLOOOEGK@?$AAk?$AAo?$AA?9?$AAK?$AAR@ 000000018002a698     libcpmt:winapinls.obj
 0002:000036a8       ??_C@_1M@IHBJJGG@?$AAn?$AAl?$AA?9?$AAN?$AAL@ 000000018002a6a8     libcpmt:winapinls.obj
 0002:000036b8       ??_C@_1M@EANAGDL@?$AAn?$AAb?$AA?9?$AAN?$AAO@ 000000018002a6b8     libcpmt:winapinls.obj
 0002:000036c8       ??_C@_1M@NEIEMEGP@?$AAp?$AAl?$AA?9?$AAP?$AAL@ 000000018002a6c8     libcpmt:winapinls.obj
 0002:000036d8       ??_C@_1M@BOCFIGEP@?$AAp?$AAt?$AA?9?$AAB?$AAR@ 000000018002a6d8     libcpmt:winapinls.obj
 0002:000036e8       ??_C@_1M@IMPFOPBG@?$AAr?$AAo?$AA?9?$AAR?$AAO@ 000000018002a6e8     libcpmt:winapinls.obj
 0002:000036f8       ??_C@_1M@IDNNEJMM@?$AAr?$AAu?$AA?9?$AAR?$AAU@ 000000018002a6f8     libcpmt:winapinls.obj
 0002:00003708       ??_C@_1M@LILEEOGM@?$AAh?$AAr?$AA?9?$AAH?$AAR@ 000000018002a708     libcpmt:winapinls.obj
 0002:00003718       ??_C@_1M@FKIFEHPB@?$AAs?$AAk?$AA?9?$AAS?$AAK@ 000000018002a718     libcpmt:winapinls.obj
 0002:00003728       ??_C@_1M@LJMAMNPJ@?$AAs?$AAq?$AA?9?$AAA?$AAL@ 000000018002a728     libcpmt:winapinls.obj
 0002:00003738       ??_C@_1M@GIAKDKJK@?$AAs?$AAv?$AA?9?$AAS?$AAE@ 000000018002a738     libcpmt:winapinls.obj
 0002:00003748       ??_C@_1M@MKJKIKCL@?$AAt?$AAh?$AA?9?$AAT?$AAH@ 000000018002a748     libcpmt:winapinls.obj
 0002:00003758       ??_C@_1M@MFLCCMPB@?$AAt?$AAr?$AA?9?$AAT?$AAR@ 000000018002a758     libcpmt:winapinls.obj
 0002:00003768       ??_C@_1M@OIJHDKJN@?$AAu?$AAr?$AA?9?$AAP?$AAK@ 000000018002a768     libcpmt:winapinls.obj
 0002:00003778       ??_C@_1M@LHIPCIEK@?$AAi?$AAd?$AA?9?$AAI?$AAD@ 000000018002a778     libcpmt:winapinls.obj
 0002:00003788       ??_C@_1M@MFMOBGI@?$AAu?$AAk?$AA?9?$AAU?$AAA@ 000000018002a788     libcpmt:winapinls.obj
 0002:00003798       ??_C@_1M@OBGLJIPL@?$AAb?$AAe?$AA?9?$AAB?$AAY@ 000000018002a798     libcpmt:winapinls.obj
 0002:000037a8       ??_C@_1M@BCFAJEAD@?$AAs?$AAl?$AA?9?$AAS?$AAI@ 000000018002a7a8     libcpmt:winapinls.obj
 0002:000037b8       ??_C@_1M@FKFFEDDN@?$AAe?$AAt?$AA?9?$AAE?$AAE@ 000000018002a7b8     libcpmt:winapinls.obj
 0002:000037c8       ??_C@_1M@KGKKAACI@?$AAl?$AAv?$AA?9?$AAL?$AAV@ 000000018002a7c8     libcpmt:winapinls.obj
 0002:000037d8       ??_C@_1M@IFGBIJO@?$AAl?$AAt?$AA?9?$AAL?$AAT@ 000000018002a7d8     libcpmt:winapinls.obj
 0002:000037e8       ??_C@_1M@FGEAHEDM@?$AAf?$AAa?$AA?9?$AAI?$AAR@ 000000018002a7e8     libcpmt:winapinls.obj
 0002:000037f8       ??_C@_1M@KBMAIBFN@?$AAv?$AAi?$AA?9?$AAV?$AAN@ 000000018002a7f8     libcpmt:winapinls.obj
 0002:00003808       ??_C@_1M@GPCBKDJK@?$AAh?$AAy?$AA?9?$AAA?$AAM@ 000000018002a808     libcpmt:winapinls.obj
 0002:00003818       ??_C@_1BG@BECMDDJB@?$AAa?$AAz?$AA?9?$AAA?$AAZ?$AA?9?$AAL?$AAa?$AAt?$AAn@ 000000018002a818     libcpmt:winapinls.obj
 0002:00003830       ??_C@_1M@MAOFCAEA@?$AAe?$AAu?$AA?9?$AAE?$AAS@ 000000018002a830     libcpmt:winapinls.obj
 0002:00003840       ??_C@_1M@IGHABKPI@?$AAm?$AAk?$AA?9?$AAM?$AAK@ 000000018002a840     libcpmt:winapinls.obj
 0002:00003850       ??_C@_1M@IAIGNEJG@?$AAt?$AAn?$AA?9?$AAZ?$AAA@ 000000018002a850     libcpmt:winapinls.obj
 0002:00003860       ??_C@_1M@IIJCOJFA@?$AAx?$AAh?$AA?9?$AAZ?$AAA@ 000000018002a860     libcpmt:winapinls.obj
 0002:00003870       ??_C@_1M@LGPJHNJH@?$AAz?$AAu?$AA?9?$AAZ?$AAA@ 000000018002a870     libcpmt:winapinls.obj
 0002:00003880       ??_C@_1M@HOKAOIO@?$AAa?$AAf?$AA?9?$AAZ?$AAA@ 000000018002a880     libcpmt:winapinls.obj
 0002:00003890       ??_C@_1M@DPCLHLIE@?$AAk?$AAa?$AA?9?$AAG?$AAE@ 000000018002a890     libcpmt:winapinls.obj
 0002:000038a0       ??_C@_1M@BLKMHJBI@?$AAf?$AAo?$AA?9?$AAF?$AAO@ 000000018002a8a0     libcpmt:winapinls.obj
 0002:000038b0       ??_C@_1M@LGGJAPPB@?$AAh?$AAi?$AA?9?$AAI?$AAN@ 000000018002a8b0     libcpmt:winapinls.obj
 0002:000038c0       ??_C@_1M@FIKPIHFE@?$AAm?$AAt?$AA?9?$AAM?$AAT@ 000000018002a8c0     libcpmt:winapinls.obj
 0002:000038d0       ??_C@_1M@HEGGPBFA@?$AAs?$AAe?$AA?9?$AAN?$AAO@ 000000018002a8d0     libcpmt:winapinls.obj
 0002:000038e0       ??_C@_1M@EIBJEEPA@?$AAm?$AAs?$AA?9?$AAM?$AAY@ 000000018002a8e0     libcpmt:winapinls.obj
 0002:000038f0       ??_C@_1M@FHLBGMPP@?$AAk?$AAk?$AA?9?$AAK?$AAZ@ 000000018002a8f0     libcpmt:winapinls.obj
 0002:00003900       ??_C@_1M@NGJJLCGI@?$AAk?$AAy?$AA?9?$AAK?$AAG@ 000000018002a900     libcpmt:winapinls.obj
 0002:00003910       ??_C@_1M@GIENNBFC@?$AAs?$AAw?$AA?9?$AAK?$AAE@ 000000018002a910     libcpmt:winapinls.obj
 0002:00003920       ??_C@_1BG@NDGMJIMJ@?$AAu?$AAz?$AA?9?$AAU?$AAZ?$AA?9?$AAL?$AAa?$AAt?$AAn@ 000000018002a920     libcpmt:winapinls.obj
 0002:00003938       ??_C@_1M@IDCCIHBC@?$AAt?$AAt?$AA?9?$AAR?$AAU@ 000000018002a938     libcpmt:winapinls.obj
 0002:00003948       ??_C@_1M@LOICPMOJ@?$AAb?$AAn?$AA?9?$AAI?$AAN@ 000000018002a948     libcpmt:winapinls.obj
 0002:00003958       ??_C@_1M@KPKKNEAH@?$AAp?$AAa?$AA?9?$AAI?$AAN@ 000000018002a958     libcpmt:winapinls.obj
 0002:00003968       ??_C@_1M@PJGPPBOG@?$AAg?$AAu?$AA?9?$AAI?$AAN@ 000000018002a968     libcpmt:winapinls.obj
 0002:00003978       ??_C@_1M@KMKMOPHI@?$AAt?$AAa?$AA?9?$AAI?$AAN@ 000000018002a978     libcpmt:winapinls.obj
 0002:00003988       ??_C@_1M@KFEHEPAC@?$AAt?$AAe?$AA?9?$AAI?$AAN@ 000000018002a988     libcpmt:winapinls.obj
 0002:00003998       ??_C@_1M@CDCLMGHI@?$AAk?$AAn?$AA?9?$AAI?$AAN@ 000000018002a998     libcpmt:winapinls.obj
 0002:000039a8       ??_C@_1M@MIODLDKF@?$AAm?$AAl?$AA?9?$AAI?$AAN@ 000000018002a9a8     libcpmt:winapinls.obj
 0002:000039b8       ??_C@_1M@PBIEACPO@?$AAm?$AAr?$AA?9?$AAI?$AAN@ 000000018002a9b8     libcpmt:winapinls.obj
 0002:000039c8       ??_C@_1M@NIDEAGPH@?$AAs?$AAa?$AA?9?$AAI?$AAN@ 000000018002a9c8     libcpmt:winapinls.obj
 0002:000039d8       ??_C@_1M@FHIHCBIO@?$AAm?$AAn?$AA?9?$AAM?$AAN@ 000000018002a9d8     libcpmt:winapinls.obj
 0002:000039e8       ??_C@_1M@JAIJPENP@?$AAc?$AAy?$AA?9?$AAG?$AAB@ 000000018002a9e8     libcpmt:winapinls.obj
 0002:000039f8       ??_C@_1M@PHGFBEPN@?$AAg?$AAl?$AA?9?$AAE?$AAS@ 000000018002a9f8     libcpmt:winapinls.obj
 0002:00003a08       ??_C@_1O@KPIPDNCP@?$AAk?$AAo?$AAk?$AA?9?$AAI?$AAN@ 000000018002aa08     libcpmt:winapinls.obj
 0002:00003a18       ??_C@_1O@KNHJLDJA@?$AAs?$AAy?$AAr?$AA?9?$AAS?$AAY@ 000000018002aa18     libcpmt:winapinls.obj
 0002:00003a28       ??_C@_1O@MKEKBLAH@?$AAd?$AAi?$AAv?$AA?9?$AAM?$AAV@ 000000018002aa28     libcpmt:winapinls.obj
 0002:00003a38       ??_C@_1O@OHDCKDDF@?$AAq?$AAu?$AAz?$AA?9?$AAB?$AAO@ 000000018002aa38     libcpmt:winapinls.obj
 0002:00003a48       ??_C@_1M@LEPJNLFD@?$AAn?$AAs?$AA?9?$AAZ?$AAA@ 000000018002aa48     libcpmt:winapinls.obj
 0002:00003a58       ??_C@_1M@OMLEIIJB@?$AAm?$AAi?$AA?9?$AAN?$AAZ@ 000000018002aa58     libcpmt:winapinls.obj
 0002:00003a68       ??_C@_1M@PMPEAILG@?$AAa?$AAr?$AA?9?$AAI?$AAQ@ 000000018002aa68     libcpmt:winapinls.obj
 0002:00003a78       ??_C@_1M@BIBDDEMK@?$AAz?$AAh?$AA?9?$AAC?$AAN@ 000000018002aa78     libcpmt:winapinls.obj
 0002:00003a88       ??_C@_1M@CNKPNOEE@?$AAd?$AAe?$AA?9?$AAC?$AAH@ 000000018002aa88     libcpmt:winapinls.obj
 0002:00003a98       ??_C@_1M@LKMGMLKO@?$AAe?$AAn?$AA?9?$AAG?$AAB@ 000000018002aa98     libcpmt:winapinls.obj
 0002:00003aa8       ??_C@_1M@PGKJFFGL@?$AAe?$AAs?$AA?9?$AAM?$AAX@ 000000018002aaa8     libcpmt:winapinls.obj
 0002:00003ab8       ??_C@_1M@DNNANBDC@?$AAf?$AAr?$AA?9?$AAB?$AAE@ 000000018002aab8     libcpmt:winapinls.obj
 0002:00003ac8       ??_C@_1M@HLGMDFHM@?$AAi?$AAt?$AA?9?$AAC?$AAH@ 000000018002aac8     libcpmt:winapinls.obj
 0002:00003ad8       ??_C@_1M@CLLBGJH@?$AAn?$AAl?$AA?9?$AAB?$AAE@ 000000018002aad8     libcpmt:winapinls.obj
 0002:00003ae8       ??_C@_1M@BODBOGLF@?$AAn?$AAn?$AA?9?$AAN?$AAO@ 000000018002aae8     libcpmt:winapinls.obj
 0002:00003af8       ??_C@_1M@HFFAHKAD@?$AAp?$AAt?$AA?9?$AAP?$AAT@ 000000018002aaf8     libcpmt:winapinls.obj
 0002:00003b08       ??_C@_1BG@LNOAKHIE@?$AAs?$AAr?$AA?9?$AAS?$AAP?$AA?9?$AAL?$AAa?$AAt?$AAn@ 000000018002ab08     libcpmt:winapinls.obj
 0002:00003b20       ??_C@_1M@HBMHBGAK@?$AAs?$AAv?$AA?9?$AAF?$AAI@ 000000018002ab20     libcpmt:winapinls.obj
 0002:00003b30       ??_C@_1BG@DGCJGJBE@?$AAa?$AAz?$AA?9?$AAA?$AAZ?$AA?9?$AAC?$AAy?$AAr?$AAl@ 000000018002ab30     libcpmt:winapinls.obj
 0002:00003b48       ??_C@_1M@KEJDAAHB@?$AAs?$AAe?$AA?9?$AAS?$AAE@ 000000018002ab48     libcpmt:winapinls.obj
 0002:00003b58       ??_C@_1M@HEIBJJAD@?$AAm?$AAs?$AA?9?$AAB?$AAN@ 000000018002ab58     libcpmt:winapinls.obj
 0002:00003b68       ??_C@_1BG@PBGJMCEM@?$AAu?$AAz?$AA?9?$AAU?$AAZ?$AA?9?$AAC?$AAy?$AAr?$AAl@ 000000018002ab68     libcpmt:winapinls.obj
 0002:00003b80       ??_C@_1O@LAOBCMDF@?$AAq?$AAu?$AAz?$AA?9?$AAE?$AAC@ 000000018002ab80     libcpmt:winapinls.obj
 0002:00003b90       ??_C@_1M@POEEMAIO@?$AAa?$AAr?$AA?9?$AAE?$AAG@ 000000018002ab90     libcpmt:winapinls.obj
 0002:00003ba0       ??_C@_1M@EFAKDEDL@?$AAz?$AAh?$AA?9?$AAH?$AAK@ 000000018002aba0     libcpmt:winapinls.obj
 0002:00003bb0       ??_C@_1M@HKKIJHGI@?$AAd?$AAe?$AA?9?$AAA?$AAT@ 000000018002abb0     libcpmt:winapinls.obj
 0002:00003bc0       ??_C@_1M@KBFBEHJF@?$AAe?$AAn?$AA?9?$AAA?$AAU@ 000000018002abc0     libcpmt:winapinls.obj
 0002:00003bd0       ??_C@_1M@MNPLFAAH@?$AAe?$AAs?$AA?9?$AAE?$AAS@ 000000018002abd0     libcpmt:winapinls.obj
 0002:00003be0       ??_C@_1M@HJOOJFMA@?$AAf?$AAr?$AA?9?$AAC?$AAA@ 000000018002abe0     libcpmt:winapinls.obj
 0002:00003bf0       ??_C@_1BG@JPOFPNAB@?$AAs?$AAr?$AA?9?$AAS?$AAP?$AA?9?$AAC?$AAy?$AAr?$AAl@ 000000018002abf0     libcpmt:winapinls.obj
 0002:00003c08       ??_C@_1M@LNFOCMOB@?$AAs?$AAe?$AA?9?$AAF?$AAI@ 000000018002ac08     libcpmt:winapinls.obj
 0002:00003c18       ??_C@_1O@MGJBOAMB@?$AAq?$AAu?$AAz?$AA?9?$AAP?$AAE@ 000000018002ac18     libcpmt:winapinls.obj
 0002:00003c28       ??_C@_1M@GJINLBOK@?$AAa?$AAr?$AA?9?$AAL?$AAY@ 000000018002ac28     libcpmt:winapinls.obj
 0002:00003c38       ??_C@_1M@GGMNHJNL@?$AAz?$AAh?$AA?9?$AAS?$AAG@ 000000018002ac38     libcpmt:winapinls.obj
 0002:00003c48       ??_C@_1M@HOIKODND@?$AAd?$AAe?$AA?9?$AAL?$AAU@ 000000018002ac48     libcpmt:winapinls.obj
 0002:00003c58       ??_C@_1M@DDOCCGFG@?$AAe?$AAn?$AA?9?$AAC?$AAA@ 000000018002ac58     libcpmt:winapinls.obj
 0002:00003c68       ??_C@_1M@BNOEMJLF@?$AAe?$AAs?$AA?9?$AAG?$AAT@ 000000018002ac68     libcpmt:winapinls.obj
 0002:00003c78       ??_C@_1M@EOGNKEK@?$AAf?$AAr?$AA?9?$AAC?$AAH@ 000000018002ac78     libcpmt:winapinls.obj
 0002:00003c88       ??_C@_1M@FLIDJFHL@?$AAh?$AAr?$AA?9?$AAB?$AAA@ 000000018002ac88     libcpmt:winapinls.obj
 0002:00003c98       ??_C@_1O@FMCELNAJ@?$AAs?$AAm?$AAj?$AA?9?$AAN?$AAO@ 000000018002ac98     libcpmt:winapinls.obj
 0002:00003ca8       ??_C@_1M@JHGLJMGJ@?$AAa?$AAr?$AA?9?$AAD?$AAZ@ 000000018002aca8     libcpmt:winapinls.obj
 0002:00003cb8       ??_C@_1M@JKKFDCNP@?$AAz?$AAh?$AA?9?$AAM?$AAO@ 000000018002acb8     libcpmt:winapinls.obj
 0002:00003cc8       ??_C@_1M@GEEFALPE@?$AAd?$AAe?$AA?9?$AAL?$AAI@ 000000018002acc8     libcpmt:winapinls.obj
 0002:00003cd8       ??_C@_1M@IGEOFBG@?$AAe?$AAn?$AA?9?$AAN?$AAZ@ 000000018002acd8     libcpmt:winapinls.obj
 0002:00003ce8       ??_C@_1M@KDBONEHP@?$AAe?$AAs?$AA?9?$AAC?$AAR@ 000000018002ace8     libcpmt:winapinls.obj
 0002:00003cf8       ??_C@_1M@FHMDOHNN@?$AAf?$AAr?$AA?9?$AAL?$AAU@ 000000018002acf8     libcpmt:winapinls.obj
 0002:00003d08       ??_C@_1BG@NFKKMAFG@?$AAb?$AAs?$AA?9?$AAB?$AAA?$AA?9?$AAL?$AAa?$AAt?$AAn@ 000000018002ad08     libcpmt:winapinls.obj
 0002:00003d20       ??_C@_1O@IMNBEMCI@?$AAs?$AAm?$AAj?$AA?9?$AAS?$AAE@ 000000018002ad20     libcpmt:winapinls.obj
 0002:00003d30       ??_C@_1M@DHHMBNDP@?$AAa?$AAr?$AA?9?$AAM?$AAA@ 000000018002ad30     libcpmt:winapinls.obj
 0002:00003d40       ??_C@_1M@BNBLJCGH@?$AAe?$AAn?$AA?9?$AAI?$AAE@ 000000018002ad40     libcpmt:winapinls.obj
 0002:00003d50       ??_C@_1M@GEPAFMDL@?$AAe?$AAs?$AA?9?$AAP?$AAA@ 000000018002ad50     libcpmt:winapinls.obj
 0002:00003d60       ??_C@_1M@OJONDMDL@?$AAf?$AAr?$AA?9?$AAM?$AAC@ 000000018002ad60     libcpmt:winapinls.obj
 0002:00003d70       ??_C@_1BG@OBCNFJB@?$AAs?$AAr?$AA?9?$AAB?$AAA?$AA?9?$AAL?$AAa?$AAt?$AAn@ 000000018002ad70     libcpmt:winapinls.obj
 0002:00003d88       ??_C@_1O@KEMEEGPO@?$AAs?$AAm?$AAa?$AA?9?$AAN?$AAO@ 000000018002ad88     libcpmt:winapinls.obj
 0002:00003d98       ??_C@_1M@ELMGFODK@?$AAa?$AAr?$AA?9?$AAT?$AAN@ 000000018002ad98     libcpmt:winapinls.obj
 0002:00003da8       ??_C@_1M@BHDLHFAF@?$AAe?$AAn?$AA?9?$AAZ?$AAA@ 000000018002ada8     libcpmt:winapinls.obj
 0002:00003db8       ??_C@_1M@BMGIGLIF@?$AAe?$AAs?$AA?9?$AAD?$AAO@ 000000018002adb8     libcpmt:winapinls.obj
 0002:00003dc8       ??_C@_1BG@CMBHIPBE@?$AAs?$AAr?$AA?9?$AAB?$AAA?$AA?9?$AAC?$AAy?$AAr?$AAl@ 000000018002adc8     libcpmt:winapinls.obj
 0002:00003de0       ??_C@_1O@HEDBLHNP@?$AAs?$AAm?$AAa?$AA?9?$AAS?$AAE@ 000000018002ade0     libcpmt:winapinls.obj
 0002:00003df0       ??_C@_1M@DAGCADIM@?$AAa?$AAr?$AA?9?$AAO?$AAM@ 000000018002adf0     libcpmt:winapinls.obj
 0002:00003e00       ??_C@_1M@FODLMICG@?$AAe?$AAn?$AA?9?$AAJ?$AAM@ 000000018002ae00     libcpmt:winapinls.obj
 0002:00003e10       ??_C@_1M@DNMLCIHB@?$AAe?$AAs?$AA?9?$AAV?$AAE@ 000000018002ae10     libcpmt:winapinls.obj
 0002:00003e20       ??_C@_1O@EOKHMKJK@?$AAs?$AAm?$AAs?$AA?9?$AAF?$AAI@ 000000018002ae20     libcpmt:winapinls.obj
 0002:00003e30       ??_C@_1M@CAFJMKOF@?$AAa?$AAr?$AA?9?$AAY?$AAE@ 000000018002ae30     libcpmt:winapinls.obj
 0002:00003e40       ??_C@_1M@CBFHIJLI@?$AAe?$AAn?$AA?9?$AAC?$AAB@ 000000018002ae40     libcpmt:winapinls.obj
 0002:00003e50       ??_C@_1M@BGNFLDN@?$AAe?$AAs?$AA?9?$AAC?$AAO@ 000000018002ae50     libcpmt:winapinls.obj
 0002:00003e60       ??_C@_1O@JMPHMAMC@?$AAs?$AAm?$AAn?$AA?9?$AAF?$AAI@ 000000018002ae60     libcpmt:winapinls.obj
 0002:00003e70       ??_C@_1M@JLANABKE@?$AAa?$AAr?$AA?9?$AAS?$AAY@ 000000018002ae70     libcpmt:winapinls.obj
 0002:00003e80       ??_C@_1M@HPKGCFGN@?$AAe?$AAn?$AA?9?$AAB?$AAZ@ 000000018002ae80     libcpmt:winapinls.obj
 0002:00003e90       ??_C@_1M@OLJCMLGM@?$AAe?$AAs?$AA?9?$AAP?$AAE@ 000000018002ae90     libcpmt:winapinls.obj
 0002:00003ea0       ??_C@_1M@MKKGFKLE@?$AAa?$AAr?$AA?9?$AAJ?$AAO@ 000000018002aea0     libcpmt:winapinls.obj
 0002:00003eb0       ??_C@_1M@EKPGLDNI@?$AAe?$AAn?$AA?9?$AAT?$AAT@ 000000018002aeb0     libcpmt:winapinls.obj
 0002:00003ec0       ??_C@_1M@OONGHFHE@?$AAe?$AAs?$AA?9?$AAA?$AAR@ 000000018002aec0     libcpmt:winapinls.obj
 0002:00003ed0       ??_C@_1M@OOJFGBHE@?$AAa?$AAr?$AA?9?$AAL?$AAB@ 000000018002aed0     libcpmt:winapinls.obj
 0002:00003ee0       ??_C@_1M@GCEJHNEG@?$AAe?$AAn?$AA?9?$AAZ?$AAW@ 000000018002aee0     libcpmt:winapinls.obj
 0002:00003ef0       ??_C@_1M@JNOCAHJI@?$AAe?$AAs?$AA?9?$AAE?$AAC@ 000000018002aef0     libcpmt:winapinls.obj
 0002:00003f00       ??_C@_1M@JEFHPGGB@?$AAa?$AAr?$AA?9?$AAK?$AAW@ 000000018002af00     libcpmt:winapinls.obj
 0002:00003f10       ??_C@_1M@MLKIBJOJ@?$AAe?$AAn?$AA?9?$AAP?$AAH@ 000000018002af10     libcpmt:winapinls.obj
 0002:00003f20       ??_C@_1M@BDNIPEND@?$AAe?$AAs?$AA?9?$AAC?$AAL@ 000000018002af20     libcpmt:winapinls.obj
 0002:00003f30       ??_C@_1M@MPNMEKBD@?$AAa?$AAr?$AA?9?$AAA?$AAE@ 000000018002af30     libcpmt:winapinls.obj
 0002:00003f40       ??_C@_1M@KBJALCPI@?$AAe?$AAs?$AA?9?$AAU?$AAY@ 000000018002af40     libcpmt:winapinls.obj
 0002:00003f50       ??_C@_1M@LLCCOAGA@?$AAa?$AAr?$AA?9?$AAB?$AAH@ 000000018002af50     libcpmt:winapinls.obj
 0002:00003f60       ??_C@_1M@PBFNCDEL@?$AAe?$AAs?$AA?9?$AAP?$AAY@ 000000018002af60     libcpmt:winapinls.obj
 0002:00003f70       ??_C@_1M@EDGINPNP@?$AAa?$AAr?$AA?9?$AAQ?$AAA@ 000000018002af70     libcpmt:winapinls.obj
 0002:00003f80       ??_C@_1M@MKDBIIJI@?$AAe?$AAs?$AA?9?$AAB?$AAO@ 000000018002af80     libcpmt:winapinls.obj
 0002:00003f90       ??_C@_1M@CPKKEBLD@?$AAe?$AAs?$AA?9?$AAS?$AAV@ 000000018002af90     libcpmt:winapinls.obj
 0002:00003fa0       ??_C@_1M@NDBGMMJL@?$AAe?$AAs?$AA?9?$AAH?$AAN@ 000000018002afa0     libcpmt:winapinls.obj
 0002:00003fb0       ??_C@_1M@JIJIBHDP@?$AAe?$AAs?$AA?9?$AAN?$AAI@ 000000018002afb0     libcpmt:winapinls.obj
 0002:00003fc0       ??_C@_1M@CGFMKEEK@?$AAe?$AAs?$AA?9?$AAP?$AAR@ 000000018002afc0     libcpmt:winapinls.obj
 0002:00003fd0       ??_C@_1O@ICJHKIIK@?$AAz?$AAh?$AA?9?$AAC?$AAH?$AAT@ 000000018002afd0     libcpmt:winapinls.obj
 0002:00003fe0       ??_C@_15CLNEJCE@?$AAs?$AAr@ 000000018002afe0     libcpmt:winapinls.obj
 0002:00003fe8       ??_C@_1M@KAHEKEIG@?$AAa?$AAf?$AA?9?$AAz?$AAa@ 000000018002afe8     libcpmt:winapinls.obj
 0002:00003ff8       ??_C@_1M@GIECOABL@?$AAa?$AAr?$AA?9?$AAa?$AAe@ 000000018002aff8     libcpmt:winapinls.obj
 0002:00004008       ??_C@_1M@BMLMEKGI@?$AAa?$AAr?$AA?9?$AAb?$AAh@ 000000018002b008     libcpmt:winapinls.obj
 0002:00004018       ??_C@_1M@DAPFDGGB@?$AAa?$AAr?$AA?9?$AAd?$AAz@ 000000018002b018     libcpmt:winapinls.obj
 0002:00004028       ??_C@_1M@FJNKGKIG@?$AAa?$AAr?$AA?9?$AAe?$AAg@ 000000018002b028     libcpmt:winapinls.obj
 0002:00004038       ??_C@_1M@FLGKKCLO@?$AAa?$AAr?$AA?9?$AAi?$AAq@ 000000018002b038     libcpmt:winapinls.obj
 0002:00004048       ??_C@_1M@GNDIPALM@?$AAa?$AAr?$AA?9?$AAj?$AAo@ 000000018002b048     libcpmt:winapinls.obj
 0002:00004058       ??_C@_1M@DDMJFMGJ@?$AAa?$AAr?$AA?9?$AAk?$AAw@ 000000018002b058     libcpmt:winapinls.obj
 0002:00004068       ??_C@_1M@EJALMLHM@?$AAa?$AAr?$AA?9?$AAl?$AAb@ 000000018002b068     libcpmt:winapinls.obj
 0002:00004078       ??_C@_1M@MOBDBLOC@?$AAa?$AAr?$AA?9?$AAl?$AAy@ 000000018002b078     libcpmt:winapinls.obj
 0002:00004088       ??_C@_1M@JAOCLHDH@?$AAa?$AAr?$AA?9?$AAm?$AAa@ 000000018002b088     libcpmt:winapinls.obj
 0002:00004098       ??_C@_1M@JHPMKJIE@?$AAa?$AAr?$AA?9?$AAo?$AAm@ 000000018002b098     libcpmt:winapinls.obj
 0002:000040a8       ??_C@_1M@OEPGHFNH@?$AAa?$AAr?$AA?9?$AAq?$AAa@ 000000018002b0a8     libcpmt:winapinls.obj
 0002:000040b8       ??_C@_1M@KJDONENM@?$AAa?$AAr?$AA?9?$AAs?$AAa@ 000000018002b0b8     libcpmt:winapinls.obj
 0002:000040c8       ??_C@_1M@DMJDKLKM@?$AAa?$AAr?$AA?9?$AAs?$AAy@ 000000018002b0c8     libcpmt:winapinls.obj
 0002:000040d8       ??_C@_1M@OMFIPEDC@?$AAa?$AAr?$AA?9?$AAt?$AAn@ 000000018002b0d8     libcpmt:winapinls.obj
 0002:000040e8       ??_C@_1M@IHMHGAON@?$AAa?$AAr?$AA?9?$AAy?$AAe@ 000000018002b0e8     libcpmt:winapinls.obj
 0002:000040f8       ??_C@_1BG@KDCPGJGB@?$AAa?$AAz?$AA?9?$AAa?$AAz?$AA?9?$AAc?$AAy?$AAr?$AAl@ 000000018002b0f8     libcpmt:winapinls.obj
 0002:00004110       ??_C@_1BG@IBCKDDOE@?$AAa?$AAz?$AA?9?$AAa?$AAz?$AA?9?$AAl?$AAa?$AAt?$AAn@ 000000018002b110     libcpmt:winapinls.obj
 0002:00004128       ??_C@_1M@EGPFDCPD@?$AAb?$AAe?$AA?9?$AAb?$AAy@ 000000018002b128     libcpmt:winapinls.obj
 0002:00004138       ??_C@_1M@PCMGMCGC@?$AAb?$AAg?$AA?9?$AAb?$AAg@ 000000018002b138     libcpmt:winapinls.obj
 0002:00004148       ??_C@_1M@BJBMFGOB@?$AAb?$AAn?$AA?9?$AAi?$AAn@ 000000018002b148     libcpmt:winapinls.obj
 0002:00004158       ??_C@_1BG@EAKMMACD@?$AAb?$AAs?$AA?9?$AAb?$AAa?$AA?9?$AAl?$AAa?$AAt?$AAn@ 000000018002b158     libcpmt:winapinls.obj
 0002:00004170       ??_C@_1M@KGADAODK@?$AAc?$AAa?$AA?9?$AAe?$AAs@ 000000018002b170     libcpmt:winapinls.obj
 0002:00004180       ??_C@_1M@COAJPDHI@?$AAc?$AAs?$AA?9?$AAc?$AAz@ 000000018002b180     libcpmt:winapinls.obj
 0002:00004190       ??_C@_1M@DHBHFONH@?$AAc?$AAy?$AA?9?$AAg?$AAb@ 000000018002b190     libcpmt:winapinls.obj
 0002:000041a0       ??_C@_1M@IMGKELGA@?$AAd?$AAa?$AA?9?$AAd?$AAk@ 000000018002b1a0     libcpmt:winapinls.obj
 0002:000041b0       ??_C@_1M@NNDGDNGA@?$AAd?$AAe?$AA?9?$AAa?$AAt@ 000000018002b1b0     libcpmt:winapinls.obj
 0002:000041c0       ??_C@_1M@IKDBHEEM@?$AAd?$AAe?$AA?9?$AAc?$AAh@ 000000018002b1c0     libcpmt:winapinls.obj
 0002:000041d0       ??_C@_1M@GFFOJMCJ@?$AAd?$AAe?$AA?9?$AAd?$AAe@ 000000018002b1d0     libcpmt:winapinls.obj
 0002:000041e0       ??_C@_1M@MDNLKBPM@?$AAd?$AAe?$AA?9?$AAl?$AAi@ 000000018002b1e0     libcpmt:winapinls.obj
 0002:000041f0       ??_C@_1M@NJBEEJNL@?$AAd?$AAe?$AA?9?$AAl?$AAu@ 000000018002b1f0     libcpmt:winapinls.obj
 0002:00004200       ??_C@_1O@GNNELBAP@?$AAd?$AAi?$AAv?$AA?9?$AAm?$AAv@ 000000018002b200     libcpmt:winapinls.obj
 0002:00004210       ??_C@_1M@EJLEOGAE@?$AAe?$AAl?$AA?9?$AAg?$AAr@ 000000018002b210     libcpmt:winapinls.obj
 0002:00004220       ??_C@_1M@GMPONJN@?$AAe?$AAn?$AA?9?$AAa?$AAu@ 000000018002b220     libcpmt:winapinls.obj
 0002:00004230       ??_C@_1M@NIDIIPGF@?$AAe?$AAn?$AA?9?$AAb?$AAz@ 000000018002b230     libcpmt:winapinls.obj
 0002:00004240       ??_C@_1M@JEHMIMFO@?$AAe?$AAn?$AA?9?$AAc?$AAa@ 000000018002b240     libcpmt:winapinls.obj
 0002:00004250       ??_C@_1M@IGMJCDLA@?$AAe?$AAn?$AA?9?$AAc?$AAb@ 000000018002b250     libcpmt:winapinls.obj
 0002:00004260       ??_C@_1M@BNFIGBKG@?$AAe?$AAn?$AA?9?$AAg?$AAb@ 000000018002b260     libcpmt:winapinls.obj
 0002:00004270       ??_C@_1M@LKIFDIGP@?$AAe?$AAn?$AA?9?$AAi?$AAe@ 000000018002b270     libcpmt:winapinls.obj
 0002:00004280       ??_C@_1M@PJKFGCCO@?$AAe?$AAn?$AA?9?$AAj?$AAm@ 000000018002b280     libcpmt:winapinls.obj
 0002:00004290       ??_C@_1M@KPPKEPBO@?$AAe?$AAn?$AA?9?$AAn?$AAz@ 000000018002b290     libcpmt:winapinls.obj
 0002:000042a0       ??_C@_1M@GMDGLDOB@?$AAe?$AAn?$AA?9?$AAp?$AAh@ 000000018002b2a0     libcpmt:winapinls.obj
 0002:000042b0       ??_C@_1M@ONGIBJNA@?$AAe?$AAn?$AA?9?$AAt?$AAt@ 000000018002b2b0     libcpmt:winapinls.obj
 0002:000042c0       ??_C@_1M@LLODPCMM@?$AAe?$AAn?$AA?9?$AAu?$AAs@ 000000018002b2c0     libcpmt:winapinls.obj
 0002:000042d0       ??_C@_1M@LAKFNPAN@?$AAe?$AAn?$AA?9?$AAz?$AAa@ 000000018002b2d0     libcpmt:winapinls.obj
 0002:000042e0       ??_C@_1M@MFNHNHEO@?$AAe?$AAn?$AA?9?$AAz?$AAw@ 000000018002b2e0     libcpmt:winapinls.obj
 0002:000042f0       ??_C@_1M@EJEINPHM@?$AAe?$AAs?$AA?9?$AAa?$AAr@ 000000018002b2f0     libcpmt:winapinls.obj
 0002:00004300       ??_C@_1M@GNKPCCJA@?$AAe?$AAs?$AA?9?$AAb?$AAo@ 000000018002b300     libcpmt:winapinls.obj
 0002:00004310       ??_C@_1M@LEEGFONL@?$AAe?$AAs?$AA?9?$AAc?$AAl@ 000000018002b310     libcpmt:winapinls.obj
 0002:00004320       ??_C@_1M@KGPDPBDF@?$AAe?$AAs?$AA?9?$AAc?$AAo@ 000000018002b320     libcpmt:winapinls.obj
 0002:00004330       ??_C@_1M@EIAHOHH@?$AAe?$AAs?$AA?9?$AAc?$AAr@ 000000018002b330     libcpmt:winapinls.obj
 0002:00004340       ??_C@_1M@LLPGMBIN@?$AAe?$AAs?$AA?9?$AAd?$AAo@ 000000018002b340     libcpmt:winapinls.obj
 0002:00004350       ??_C@_1M@DKHMKNJA@?$AAe?$AAs?$AA?9?$AAe?$AAc@ 000000018002b350     libcpmt:winapinls.obj
 0002:00004360       ??_C@_1M@GKGFPKAP@?$AAe?$AAs?$AA?9?$AAe?$AAs@ 000000018002b360     libcpmt:winapinls.obj
 0002:00004370       ??_C@_1M@LKHKGDLN@?$AAe?$AAs?$AA?9?$AAg?$AAt@ 000000018002b370     libcpmt:winapinls.obj
 0002:00004380       ??_C@_1M@HEIIGGJD@?$AAe?$AAs?$AA?9?$AAh?$AAn@ 000000018002b380     libcpmt:winapinls.obj
 0002:00004390       ??_C@_1M@FBDHPPGD@?$AAe?$AAs?$AA?9?$AAm?$AAx@ 000000018002b390     libcpmt:winapinls.obj
 0002:000043a0       ??_C@_1M@DPAGLNDH@?$AAe?$AAs?$AA?9?$AAn?$AAi@ 000000018002b3a0     libcpmt:winapinls.obj
 0002:000043b0       ??_C@_1M@MDGOPGDD@?$AAe?$AAs?$AA?9?$AAp?$AAa@ 000000018002b3b0     libcpmt:winapinls.obj
 0002:000043c0       ??_C@_1M@EMAMGBGE@?$AAe?$AAs?$AA?9?$AAp?$AAe@ 000000018002b3c0     libcpmt:winapinls.obj
 0002:000043d0       ??_C@_1M@IBMCAOEC@?$AAe?$AAs?$AA?9?$AAp?$AAr@ 000000018002b3d0     libcpmt:winapinls.obj
 0002:000043e0       ??_C@_1M@FGMDIJED@?$AAe?$AAs?$AA?9?$AAp?$AAy@ 000000018002b3e0     libcpmt:winapinls.obj
 0002:000043f0       ??_C@_1M@IIDEOLLL@?$AAe?$AAs?$AA?9?$AAs?$AAv@ 000000018002b3f0     libcpmt:winapinls.obj
 0002:00004400       ??_C@_1M@GAOBIPA@?$AAe?$AAs?$AA?9?$AAu?$AAy@ 000000018002b400     libcpmt:winapinls.obj
 0002:00004410       ??_C@_1M@JKFFICHJ@?$AAe?$AAs?$AA?9?$AAv?$AAe@ 000000018002b410     libcpmt:winapinls.obj
 0002:00004420       ??_C@_1M@PNMLOJDF@?$AAe?$AAt?$AA?9?$AAe?$AAe@ 000000018002b420     libcpmt:winapinls.obj
 0002:00004430       ??_C@_1M@GHHLIKEI@?$AAe?$AAu?$AA?9?$AAe?$AAs@ 000000018002b430     libcpmt:winapinls.obj
 0002:00004440       ??_C@_1M@PBNONODE@?$AAf?$AAa?$AA?9?$AAi?$AAr@ 000000018002b440     libcpmt:winapinls.obj
 0002:00004450       ??_C@_1M@JEEHPMIL@?$AAf?$AAi?$AA?9?$AAf?$AAi@ 000000018002b450     libcpmt:winapinls.obj
 0002:00004460       ??_C@_1M@LMDCNDBA@?$AAf?$AAo?$AA?9?$AAf?$AAo@ 000000018002b460     libcpmt:winapinls.obj
 0002:00004470       ??_C@_1M@JKEOHLDK@?$AAf?$AAr?$AA?9?$AAb?$AAe@ 000000018002b470     libcpmt:winapinls.obj
 0002:00004480       ??_C@_1M@NOHADPMI@?$AAf?$AAr?$AA?9?$AAc?$AAa@ 000000018002b480     libcpmt:winapinls.obj
 0002:00004490       ??_C@_1M@KDHIHAEC@?$AAf?$AAr?$AA?9?$AAc?$AAh@ 000000018002b490     libcpmt:winapinls.obj
 0002:000044a0       ??_C@_1M@MMBBFGAK@?$AAf?$AAr?$AA?9?$AAf?$AAr@ 000000018002b4a0     libcpmt:winapinls.obj
 0002:000044b0       ??_C@_1M@PAFNENNF@?$AAf?$AAr?$AA?9?$AAl?$AAu@ 000000018002b4b0     libcpmt:winapinls.obj
 0002:000044c0       ??_C@_1M@EOHDJGDD@?$AAf?$AAr?$AA?9?$AAm?$AAc@ 000000018002b4c0     libcpmt:winapinls.obj
 0002:000044d0       ??_C@_1M@FAPLLOPF@?$AAg?$AAl?$AA?9?$AAe?$AAs@ 000000018002b4d0     libcpmt:winapinls.obj
 0002:000044e0       ??_C@_1M@FOPBFLOO@?$AAg?$AAu?$AA?9?$AAi?$AAn@ 000000018002b4e0     libcpmt:winapinls.obj
 0002:000044f0       ??_C@_1M@KBMCINPM@?$AAh?$AAe?$AA?9?$AAi?$AAl@ 000000018002b4f0     libcpmt:winapinls.obj
 0002:00004500       ??_C@_1M@BBPHKFPJ@?$AAh?$AAi?$AA?9?$AAi?$AAn@ 000000018002b500     libcpmt:winapinls.obj
 0002:00004510       ??_C@_1M@PMBNDPHD@?$AAh?$AAr?$AA?9?$AAb?$AAa@ 000000018002b510     libcpmt:winapinls.obj
 0002:00004520       ??_C@_1M@BPCKOEGE@?$AAh?$AAr?$AA?9?$AAh?$AAr@ 000000018002b520     libcpmt:winapinls.obj
 0002:00004530       ??_C@_1M@GACBMHKE@?$AAh?$AAu?$AA?9?$AAh?$AAu@ 000000018002b530     libcpmt:winapinls.obj
 0002:00004540       ??_C@_1M@MILPAJJC@?$AAh?$AAy?$AA?9?$AAa?$AAm@ 000000018002b540     libcpmt:winapinls.obj
 0002:00004550       ??_C@_1M@BABBICEC@?$AAi?$AAd?$AA?9?$AAi?$AAd@ 000000018002b550     libcpmt:winapinls.obj
 0002:00004560       ??_C@_1M@BIKNHHPF@?$AAi?$AAs?$AA?9?$AAi?$AAs@ 000000018002b560     libcpmt:winapinls.obj
 0002:00004570       ??_C@_1M@NMPCJPHE@?$AAi?$AAt?$AA?9?$AAc?$AAh@ 000000018002b570     libcpmt:winapinls.obj
 0002:00004580       ??_C@_1M@GHKGFEDF@?$AAi?$AAt?$AA?9?$AAi?$AAt@ 000000018002b580     libcpmt:winapinls.obj
 0002:00004590       ??_C@_1M@NIEJCJJA@?$AAj?$AAa?$AA?9?$AAj?$AAp@ 000000018002b590     libcpmt:winapinls.obj
 0002:000045a0       ??_C@_1M@JILFNBIM@?$AAk?$AAa?$AA?9?$AAg?$AAe@ 000000018002b5a0     libcpmt:winapinls.obj
 0002:000045b0       ??_C@_1M@PACPMGPH@?$AAk?$AAk?$AA?9?$AAk?$AAz@ 000000018002b5b0     libcpmt:winapinls.obj
 0002:000045c0       ??_C@_1M@IELFGMHA@?$AAk?$AAn?$AA?9?$AAi?$AAn@ 000000018002b5c0     libcpmt:winapinls.obj
 0002:000045d0       ??_C@_1M@DMHAEOGC@?$AAk?$AAo?$AA?9?$AAk?$AAr@ 000000018002b5d0     libcpmt:winapinls.obj
 0002:000045e0       ??_C@_1O@IBBJHCH@?$AAk?$AAo?$AAk?$AA?9?$AAi?$AAn@ 000000018002b5e0     libcpmt:winapinls.obj
 0002:000045f0       ??_C@_1M@HBAHBIGA@?$AAk?$AAy?$AA?9?$AAk?$AAg@ 000000018002b5f0     libcpmt:winapinls.obj
 0002:00004600       ??_C@_1M@KPMILCJG@?$AAl?$AAt?$AA?9?$AAl?$AAt@ 000000018002b600     libcpmt:winapinls.obj
 0002:00004610       ??_C@_1M@BDEKKCA@?$AAl?$AAv?$AA?9?$AAl?$AAv@ 000000018002b610     libcpmt:winapinls.obj
 0002:00004620       ??_C@_1M@ELCKCCJJ@?$AAm?$AAi?$AA?9?$AAn?$AAz@ 000000018002b620     libcpmt:winapinls.obj
 0002:00004630       ??_C@_1M@CBOOLAPA@?$AAm?$AAk?$AA?9?$AAm?$AAk@ 000000018002b630     libcpmt:winapinls.obj
 0002:00004640       ??_C@_1M@GPHNBJKN@?$AAm?$AAl?$AA?9?$AAi?$AAn@ 000000018002b640     libcpmt:winapinls.obj
 0002:00004650       ??_C@_1M@PABJILIG@?$AAm?$AAn?$AA?9?$AAm?$AAn@ 000000018002b650     libcpmt:winapinls.obj
 0002:00004660       ??_C@_1M@FGBKKIPG@?$AAm?$AAr?$AA?9?$AAi?$AAn@ 000000018002b660     libcpmt:winapinls.obj
 0002:00004670       ??_C@_1M@NDBPDDAL@?$AAm?$AAs?$AA?9?$AAb?$AAn@ 000000018002b670     libcpmt:winapinls.obj
 0002:00004680       ??_C@_1M@OPIHOOPI@?$AAm?$AAs?$AA?9?$AAm?$AAy@ 000000018002b680     libcpmt:winapinls.obj
 0002:00004690       ??_C@_1M@PPDBCNFM@?$AAm?$AAt?$AA?9?$AAm?$AAt@ 000000018002b690     libcpmt:winapinls.obj
 0002:000046a0       ??_C@_1M@KDJDKMDD@?$AAn?$AAb?$AA?9?$AAn?$AAo@ 000000018002b6a0     libcpmt:winapinls.obj
 0002:000046b0       ??_C@_1M@KFCFLMJP@?$AAn?$AAl?$AA?9?$AAb?$AAe@ 000000018002b6b0     libcpmt:winapinls.obj
 0002:000046c0       ??_C@_1M@KPOPDDGO@?$AAn?$AAl?$AA?9?$AAn?$AAl@ 000000018002b6c0     libcpmt:winapinls.obj
 0002:000046d0       ??_C@_1M@LJKPEMLN@?$AAn?$AAn?$AA?9?$AAn?$AAo@ 000000018002b6d0     libcpmt:winapinls.obj
 0002:000046e0       ??_C@_1M@BDGHHBFL@?$AAn?$AAs?$AA?9?$AAz?$AAa@ 000000018002b6e0     libcpmt:winapinls.obj
 0002:000046f0       ??_C@_1M@IDEHOAP@?$AAp?$AAa?$AA?9?$AAi?$AAn@ 000000018002b6f0     libcpmt:winapinls.obj
 0002:00004700       ??_C@_1M@HDBKGOGH@?$AAp?$AAl?$AA?9?$AAp?$AAl@ 000000018002b700     libcpmt:winapinls.obj
 0002:00004710       ??_C@_1M@LJLLCMEH@?$AAp?$AAt?$AA?9?$AAb?$AAr@ 000000018002b710     libcpmt:winapinls.obj
 0002:00004720       ??_C@_1M@NCMONAAL@?$AAp?$AAt?$AA?9?$AAp?$AAt@ 000000018002b720     libcpmt:winapinls.obj
 0002:00004730       ??_C@_1O@EAKMAJDN@?$AAq?$AAu?$AAz?$AA?9?$AAb?$AAo@ 000000018002b730     libcpmt:winapinls.obj
 0002:00004740       ??_C@_1O@BHHPIGDN@?$AAq?$AAu?$AAz?$AA?9?$AAe?$AAc@ 000000018002b740     libcpmt:winapinls.obj
 0002:00004750       ??_C@_1O@GBAPEKMJ@?$AAq?$AAu?$AAz?$AA?9?$AAp?$AAe@ 000000018002b750     libcpmt:winapinls.obj
 0002:00004760       ??_C@_1M@CLGLEFBO@?$AAr?$AAo?$AA?9?$AAr?$AAo@ 000000018002b760     libcpmt:winapinls.obj
 0002:00004770       ??_C@_1M@CEEDODME@?$AAr?$AAu?$AA?9?$AAr?$AAu@ 000000018002b770     libcpmt:winapinls.obj
 0002:00004780       ??_C@_1M@HPKKKMPP@?$AAs?$AAa?$AA?9?$AAi?$AAn@ 000000018002b780     libcpmt:winapinls.obj
 0002:00004790       ??_C@_1M@BKMAIGOJ@?$AAs?$AAe?$AA?9?$AAf?$AAi@ 000000018002b790     libcpmt:winapinls.obj
 0002:000047a0       ??_C@_1M@NDPIFLFI@?$AAs?$AAe?$AA?9?$AAn?$AAo@ 000000018002b7a0     libcpmt:winapinls.obj
 0002:000047b0       ??_C@_1M@DANKKHJ@?$AAs?$AAe?$AA?9?$AAs?$AAe@ 000000018002b7b0     libcpmt:winapinls.obj
 0002:000047c0       ??_C@_1M@PNBLONPJ@?$AAs?$AAk?$AA?9?$AAs?$AAk@ 000000018002b7c0     libcpmt:winapinls.obj
 0002:000047d0       ??_C@_1M@LFMODOAL@?$AAs?$AAl?$AA?9?$AAs?$AAi@ 000000018002b7d0     libcpmt:winapinls.obj
 0002:000047e0       ??_C@_1O@DFKOMPG@?$AAs?$AAm?$AAa?$AA?9?$AAn?$AAo@ 000000018002b7e0     libcpmt:winapinls.obj
 0002:000047f0       ??_C@_1O@NDKPBNNH@?$AAs?$AAm?$AAa?$AA?9?$AAs?$AAe@ 000000018002b7f0     libcpmt:winapinls.obj
 0002:00004800       ??_C@_1O@PLLKBHAB@?$AAs?$AAm?$AAj?$AA?9?$AAn?$AAo@ 000000018002b800     libcpmt:winapinls.obj
 0002:00004810       ??_C@_1O@CLEPOGCA@?$AAs?$AAm?$AAj?$AA?9?$AAs?$AAe@ 000000018002b810     libcpmt:winapinls.obj
 0002:00004820       ??_C@_1O@DLGJGKMK@?$AAs?$AAm?$AAn?$AA?9?$AAf?$AAi@ 000000018002b820     libcpmt:winapinls.obj
 0002:00004830       ??_C@_1O@OJDJGAJC@?$AAs?$AAm?$AAs?$AA?9?$AAf?$AAi@ 000000018002b830     libcpmt:winapinls.obj
 0002:00004840       ??_C@_1M@BOFOGHPB@?$AAs?$AAq?$AA?9?$AAa?$AAl@ 000000018002b840     libcpmt:winapinls.obj
 0002:00004850       ??_C@_1BG@LJBBIPGB@?$AAs?$AAr?$AA?9?$AAb?$AAa?$AA?9?$AAc?$AAy?$AAr?$AAl@ 000000018002b850     libcpmt:winapinls.obj
 0002:00004868       ??_C@_1BG@JLBENFOE@?$AAs?$AAr?$AA?9?$AAb?$AAa?$AA?9?$AAl?$AAa?$AAt?$AAn@ 000000018002b868     libcpmt:winapinls.obj
 0002:00004880       ??_C@_1BG@KODPNHE@?$AAs?$AAr?$AA?9?$AAs?$AAp?$AA?9?$AAc?$AAy?$AAr?$AAl@ 000000018002b880     libcpmt:winapinls.obj
 0002:00004898       ??_C@_1BG@CIOGKHPB@?$AAs?$AAr?$AA?9?$AAs?$AAp?$AA?9?$AAl?$AAa?$AAt?$AAn@ 000000018002b898     libcpmt:winapinls.obj
 0002:000048b0       ??_C@_1M@NGFJLMAC@?$AAs?$AAv?$AA?9?$AAf?$AAi@ 000000018002b8b0     libcpmt:winapinls.obj
 0002:000048c0       ??_C@_1M@MPJEJAJC@?$AAs?$AAv?$AA?9?$AAs?$AAe@ 000000018002b8c0     libcpmt:winapinls.obj
 0002:000048d0       ??_C@_1M@MPNDHLFK@?$AAs?$AAw?$AA?9?$AAk?$AAe@ 000000018002b8d0     libcpmt:winapinls.obj
 0002:000048e0       ??_C@_1O@KOHBJJI@?$AAs?$AAy?$AAr?$AA?9?$AAs?$AAy@ 000000018002b8e0     libcpmt:winapinls.obj
 0002:000048f0       ??_C@_1M@LDCEFHA@?$AAt?$AAa?$AA?9?$AAi?$AAn@ 000000018002b8f0     libcpmt:winapinls.obj
 0002:00004900       ??_C@_1M@CNJOFAK@?$AAt?$AAe?$AA?9?$AAi?$AAn@ 000000018002b900     libcpmt:winapinls.obj
 0002:00004910       ??_C@_1M@GNAECACD@?$AAt?$AAh?$AA?9?$AAt?$AAh@ 000000018002b910     libcpmt:winapinls.obj
 0002:00004920       ??_C@_1M@CHBIHOJO@?$AAt?$AAn?$AA?9?$AAz?$AAa@ 000000018002b920     libcpmt:winapinls.obj
 0002:00004930       ??_C@_1M@GCCMIGPJ@?$AAt?$AAr?$AA?9?$AAt?$AAr@ 000000018002b930     libcpmt:winapinls.obj
 0002:00004940       ??_C@_1M@CELMCNBK@?$AAt?$AAt?$AA?9?$AAr?$AAu@ 000000018002b940     libcpmt:winapinls.obj
 0002:00004950       ??_C@_1M@KLMCELGA@?$AAu?$AAk?$AA?9?$AAu?$AAa@ 000000018002b950     libcpmt:winapinls.obj
 0002:00004960       ??_C@_1M@EPAJJAJF@?$AAu?$AAr?$AA?9?$AAp?$AAk@ 000000018002b960     libcpmt:winapinls.obj
 0002:00004970       ??_C@_1BG@GEGPMCDJ@?$AAu?$AAz?$AA?9?$AAu?$AAz?$AA?9?$AAc?$AAy?$AAr?$AAl@ 000000018002b970     libcpmt:winapinls.obj
 0002:00004988       ??_C@_1BG@EGGKJILM@?$AAu?$AAz?$AA?9?$AAu?$AAz?$AA?9?$AAl?$AAa?$AAt?$AAn@ 000000018002b988     libcpmt:winapinls.obj
 0002:000049a0       ??_C@_1M@GFOCLFF@?$AAv?$AAi?$AA?9?$AAv?$AAn@ 000000018002b9a0     libcpmt:winapinls.obj
 0002:000049b0       ??_C@_1M@CPAMEDFI@?$AAx?$AAh?$AA?9?$AAz?$AAa@ 000000018002b9b0     libcpmt:winapinls.obj
 0002:000049c0       ??_C@_1O@EBKIFIGN@?$AAz?$AAh?$AA?9?$AAc?$AAh?$AAs@ 000000018002b9c0     libcpmt:winapinls.obj
 0002:000049d0       ??_C@_1O@NMHPGANE@?$AAz?$AAh?$AA?9?$AAc?$AAh?$AAt@ 000000018002b9d0     libcpmt:winapinls.obj
 0002:000049e0       ??_C@_1M@LPINJOMC@?$AAz?$AAh?$AA?9?$AAc?$AAn@ 000000018002b9e0     libcpmt:winapinls.obj
 0002:000049f0       ??_C@_1M@OCJEJODD@?$AAz?$AAh?$AA?9?$AAh?$AAk@ 000000018002b9f0     libcpmt:winapinls.obj
 0002:00004a00       ??_C@_1M@DNDLJINH@?$AAz?$AAh?$AA?9?$AAm?$AAo@ 000000018002ba00     libcpmt:winapinls.obj
 0002:00004a10       ??_C@_1M@MBFDNDND@?$AAz?$AAh?$AA?9?$AAs?$AAg@ 000000018002ba10     libcpmt:winapinls.obj
 0002:00004a20       ??_C@_1M@IMEPLEPE@?$AAz?$AAh?$AA?9?$AAt?$AAw@ 000000018002ba20     libcpmt:winapinls.obj
 0002:00004a30       ??_C@_1M@BBGHNHJP@?$AAz?$AAu?$AA?9?$AAz?$AAa@ 000000018002ba30     libcpmt:winapinls.obj
 0002:00004a50       _pDefaultRawDllMain        000000018002ba50     LIBCMT:dll_dllmain.obj
 0002:00004a50       _pRawDllMain               000000018002ba50     LIBCMT:dll_dllmain.obj
 0002:00004a60       ??_7type_info@@6B@         000000018002ba60     LIBCMT:std_type_info_static.obj
 0002:00004a70       ??_7bad_array_new_length@std@@6B@ 000000018002ba70     LIBCMT:throw_bad_alloc.obj
 0002:00004a80       ??_C@_0BF@KINCDENJ@bad?5array?5new?5length@ 000000018002ba80     LIBCMT:throw_bad_alloc.obj
 0002:00004b78       _pDestructExceptionObject  000000018002bb78     libvcruntime:ehhelpers.obj
 0002:00004b88       ??_7bad_exception@std@@6B@ 000000018002bb88     libvcruntime:frame.obj
 0002:00004b98       ??_C@_0O@DPKOEFFH@bad?5exception@ 000000018002bb98     libvcruntime:frame.obj
 0002:00004bc0       ??_C@_1DM@KHCHBNEB@?$AAa?$AAp?$AAi?$AA?9?$AAm?$AAs?$AA?9?$AAw?$AAi?$AAn?$AA?9?$AAc?$AAo?$AAr?$AAe@ 000000018002bbc0     libvcruntime:winapi_downlevel.obj
 0002:00004c00       ??_C@_1DK@LPPGFMPP@?$AAa?$AAp?$AAi?$AA?9?$AAm?$AAs?$AA?9?$AAw?$AAi?$AAn?$AA?9?$AAc?$AAo?$AAr?$AAe@ 000000018002bc00     libvcruntime:winapi_downlevel.obj
 0002:00004c40       ??_C@_1BC@GDMECMAK@?$AAk?$AAe?$AAr?$AAn?$AAe?$AAl?$AA3?$AA2@ 000000018002bc40     libvcruntime:winapi_downlevel.obj
 0002:00004c58       ??_C@_1BA@PFFKHIOG@?$AAa?$AAp?$AAi?$AA?9?$AAm?$AAs?$AA?9@ 000000018002bc58     libvcruntime:winapi_downlevel.obj
 0002:00004c68       ??_C@_1BA@IAIFMGEF@?$AAe?$AAx?$AAt?$AA?9?$AAm?$AAs?$AA?9@ 000000018002bc68     libvcruntime:winapi_downlevel.obj
 0002:00004fd8       ??_C@_08EHJDFFNH@__based?$CI@ 000000018002bfd8     libvcruntime:undname.obj
 0002:00004fe8       ??_C@_07KOLFKCDI@__cdecl@  000000018002bfe8     libvcruntime:undname.obj
 0002:00004ff0       ??_C@_08GHMPAG@__pascal@   000000018002bff0     libvcruntime:undname.obj
 0002:00005000       ??_C@_09IFJBGAPI@__stdcall@ 000000018002c000     libvcruntime:undname.obj
 0002:00005010       ??_C@_0L@NPHFGOKO@__thiscall@ 000000018002c010     libvcruntime:undname.obj
 0002:00005020       ??_C@_0L@JMKHOMEK@__fastcall@ 000000018002c020     libvcruntime:undname.obj
 0002:00005030       ??_C@_0N@BCKKPABJ@__vectorcall@ 000000018002c030     libvcruntime:undname.obj
 0002:00005040       ??_C@_09HIJEGCPM@__clrcall@ 000000018002c040     libvcruntime:undname.obj
 0002:0000504c       ??_C@_06GHPCKEAG@__eabi@   000000018002c04c     libvcruntime:undname.obj
 0002:00005058       ??_C@_09IOPIDJLG@__swift_1@ 000000018002c058     libvcruntime:undname.obj
 0002:00005068       ??_C@_09KFNFGKHF@__swift_2@ 000000018002c068     libvcruntime:undname.obj
 0002:00005078       ??_C@_07JOMMBBKO@__ptr64@  000000018002c078     libvcruntime:undname.obj
 0002:00005080       ??_C@_0L@PILCLIHE@__restrict@ 000000018002c080     libvcruntime:undname.obj
 0002:00005090       ??_C@_0M@GFIIJFMG@__unaligned@ 000000018002c090     libvcruntime:undname.obj
 0002:000050a0       ??_C@_09DHDLOLLB@restrict?$CI@ 000000018002c0a0     libvcruntime:undname.obj
 0002:000050ac       ??_C@_04NIHEBCM@?5new@     000000018002c0ac     libvcruntime:undname.obj
 0002:000050b8       ??_C@_07FPCDHGMM@?5delete@ 000000018002c0b8     libvcruntime:undname.obj
 0002:000050c0       ??_C@_01NEMOKFLO@?$DN@     000000018002c0c0     libvcruntime:undname.obj
 0002:000050c4       ??_C@_02GPIOPFAK@?$DO?$DO@ 000000018002c0c4     libvcruntime:undname.obj
 0002:000050c8       ??_C@_02FODMEDOG@?$DM?$DM@ 000000018002c0c8     libvcruntime:undname.obj
 0002:000050cc       ??_C@_01DCLJPIOD@?$CB@     000000018002c0cc     libvcruntime:undname.obj
 0002:000050d0       ??_C@_02EGOFBIJA@?$DN?$DN@ 000000018002c0d0     libvcruntime:undname.obj
 0002:000050d4       ??_C@_02FDNJECIE@?$CB?$DN@ 000000018002c0d4     libvcruntime:undname.obj
 0002:000050d8       ??_C@_02GPECMEKF@?$FL?$FN@ 000000018002c0d8     libvcruntime:undname.obj
 0002:000050e0       ??_C@_08LHJFAFGD@operator@ 000000018002c0e0     libvcruntime:undname.obj
 0002:000050ec       ??_C@_02HBOOOICD@?9?$DO@   000000018002c0ec     libvcruntime:undname.obj
 0002:000050f0       ??_C@_02ECNGHCIF@?$CL?$CL@ 000000018002c0f0     libvcruntime:undname.obj
 0002:000050f4       ??_C@_02BAABKJLB@?9?9@     000000018002c0f4     libvcruntime:undname.obj
 0002:000050f8       ??_C@_01MIFGBAGJ@?$CL@     000000018002c0f8     libvcruntime:undname.obj
 0002:000050fc       ??_C@_01HNPIGOCE@?$CG@     000000018002c0fc     libvcruntime:undname.obj
 0002:00005100       ??_C@_03MNHNFDLC@?9?$DO?$CK@ 000000018002c100     libvcruntime:undname.obj
 0002:00005104       ??_C@_01KMDKNFGN@?1@       000000018002c104     libvcruntime:undname.obj
 0002:00005108       ??_C@_01FGNFDNOH@?$CF@     000000018002c108     libvcruntime:undname.obj
 0002:0000510c       ??_C@_01MNNFJEPP@?$DM@     000000018002c10c     libvcruntime:undname.obj
 0002:00005110       ??_C@_02EHCHHCKH@?$DM?$DN@ 000000018002c110     libvcruntime:undname.obj
 0002:00005114       ??_C@_01PPODPGHN@?$DO@     000000018002c114     libvcruntime:undname.obj
 0002:00005118       ??_C@_02EEKDKGMJ@?$DO?$DN@ 000000018002c118     libvcruntime:undname.obj
 0002:0000511c       ??_C@_01IHBHIGKO@?0@       000000018002c11c     libvcruntime:undname.obj
 0002:00005120       ??_C@_02HCKGKOFO@?$CI?$CJ@ 000000018002c120     libvcruntime:undname.obj
 0002:00005124       ??_C@_01PJKLJHI@?$HO@      000000018002c124     libvcruntime:undname.obj
 0002:00005128       ??_C@_01JKBOJNNK@?$FO@     000000018002c128     libvcruntime:undname.obj
 0002:0000512c       ??_C@_01DNKMNLPK@?$HM@     000000018002c12c     libvcruntime:undname.obj
 0002:00005130       ??_C@_02PPKAJPJL@?$CG?$CG@ 000000018002c130     libvcruntime:undname.obj
 0002:00005134       ??_C@_02NONPIBCD@?$HM?$HM@ 000000018002c134     libvcruntime:undname.obj
 0002:00005138       ??_C@_02FPIMKNGF@?$CK?$DN@ 000000018002c138     libvcruntime:undname.obj
 0002:0000513c       ??_C@_02FOEOMHFC@?$CL?$DN@ 000000018002c13c     libvcruntime:undname.obj
 0002:00005140       ??_C@_02FKMDLLOA@?9?$DN@   000000018002c140     libvcruntime:undname.obj
 0002:00005144       ??_C@_02FJEHGPIO@?1?$DN@   000000018002c144     libvcruntime:undname.obj
 0002:00005148       ??_C@_02FENAOKFI@?$CF?$DN@ 000000018002c148     libvcruntime:undname.obj
 0002:0000514c       ??_C@_03IKFCCPFF@?$DO?$DO?$DN@ 000000018002c14c     libvcruntime:undname.obj
 0002:00005150       ??_C@_03CDNPDDLA@?$DM?$DM?$DN@ 000000018002c150     libvcruntime:undname.obj
 0002:00005154       ??_C@_02FGJGFEAB@?$CG?$DN@ 000000018002c154     libvcruntime:undname.obj
 0002:00005158       ??_C@_02DHLNPPGH@?$HM?$DN@ 000000018002c158     libvcruntime:undname.obj
 0002:0000515c       ??_C@_02MHEGNOJ@?$FO?$DN@  000000018002c15c     libvcruntime:undname.obj
 0002:00005160       ??_C@_09IFPLHPGF@?$GAvftable?8@ 000000018002c160     libvcruntime:undname.obj
 0002:00005170       ??_C@_09BLBHBJP@?$GAvbtable?8@ 000000018002c170     libvcruntime:undname.obj
 0002:00005180       ??_C@_07FEEIOKP@?$GAvcall?8@ 000000018002c180     libvcruntime:undname.obj
 0002:00005188       ??_C@_08LLFFHHDJ@?$GAtypeof?8@ 000000018002c188     libvcruntime:undname.obj
 0002:00005198       ??_C@_0BF@KDPPACIK@?$GAlocal?5static?5guard?8@ 000000018002c198     libvcruntime:undname.obj
 0002:000051b0       ??_C@_08OBABFOLI@?$GAstring?8@ 000000018002c1b0     libvcruntime:undname.obj
 0002:000051c0       ??_C@_0BD@JDLKDPAB@?$GAvbase?5destructor?8@ 000000018002c1c0     libvcruntime:undname.obj
 0002:000051d8       ??_C@_0BN@DEGPLNFK@?$GAvector?5deleting?5destructor?8@ 000000018002c1d8     libvcruntime:undname.obj
 0002:000051f8       ??_C@_0BO@OBMKPJIG@?$GAdefault?5constructor?5closure?8@ 000000018002c1f8     libvcruntime:undname.obj
 0002:00005218       ??_C@_0BN@IMDCHIKM@?$GAscalar?5deleting?5destructor?8@ 000000018002c218     libvcruntime:undname.obj
 0002:00005238       ??_C@_0BO@PFGOCPJJ@?$GAvector?5constructor?5iterator?8@ 000000018002c238     libvcruntime:undname.obj
 0002:00005258       ??_C@_0BN@LFPFMEDL@?$GAvector?5destructor?5iterator?8@ 000000018002c258     libvcruntime:undname.obj
 0002:00005278       ??_C@_0CE@IKBNEHA@?$GAvector?5vbase?5constructor?5itera@ 000000018002c278     libvcruntime:undname.obj
 0002:000052a0       ??_C@_0BL@NILFHHPC@?$GAvirtual?5displacement?5map?8@ 000000018002c2a0     libvcruntime:undname.obj
 0002:000052c0       ??_C@_0CB@JONCMFFK@?$GAeh?5vector?5constructor?5iterator@ 000000018002c2c0     libvcruntime:undname.obj
 0002:000052e8       ??_C@_0CA@GCEOPDGL@?$GAeh?5vector?5destructor?5iterator?8@ 000000018002c2e8     libvcruntime:undname.obj
 0002:00005308       ??_C@_0CH@OOJPLCPH@?$GAeh?5vector?5vbase?5constructor?5it@ 000000018002c308     libvcruntime:undname.obj
 0002:00005330       ??_C@_0BL@LLKPOHJI@?$GAcopy?5constructor?5closure?8@ 000000018002c330     libvcruntime:undname.obj
 0002:00005350       ??_C@_0BA@KBCDOMBN@?$GAudt?5returning?8@ 000000018002c350     libvcruntime:undname.obj
 0002:00005360       ??_C@_03KLGMFNMG@?$GAEH@   000000018002c360     libvcruntime:undname.obj
 0002:00005364       ??_C@_05KHLCHHI@?$GARTTI@  000000018002c364     libvcruntime:undname.obj
 0002:00005370       ??_C@_0BA@KKLDJDLB@?$GAlocal?5vftable?8@ 000000018002c370     libvcruntime:undname.obj
 0002:00005380       ??_C@_0CE@IIHCMGGL@?$GAlocal?5vftable?5constructor?5clos@ 000000018002c380     libvcruntime:undname.obj
 0002:000053a4       ??_C@_06FHBGPFGH@?5new?$FL?$FN@ 000000018002c3a4     libvcruntime:undname.obj
 0002:000053b0       ??_C@_09LBNFPBCA@?5delete?$FL?$FN@ 000000018002c3b0     libvcruntime:undname.obj
 0002:000053c0       ??_C@_0P@HJKNJFNN@?$GAomni?5callsig?8@ 000000018002c3c0     libvcruntime:undname.obj
 0002:000053d0       ??_C@_0BL@CNOONJFP@?$GAplacement?5delete?5closure?8@ 000000018002c3d0     libvcruntime:undname.obj
 0002:000053f0       ??_C@_0BN@CKNJLHMB@?$GAplacement?5delete?$FL?$FN?5closure?8@ 000000018002c3f0     libvcruntime:undname.obj
 0002:00005410       ??_C@_0CG@CFDHKGGD@?$GAmanaged?5vector?5constructor?5ite@ 000000018002c410     libvcruntime:undname.obj
 0002:00005438       ??_C@_0CF@IMGKMJNO@?$GAmanaged?5vector?5destructor?5iter@ 000000018002c438     libvcruntime:undname.obj
 0002:00005460       ??_C@_0CG@HLDDJMAG@?$GAeh?5vector?5copy?5constructor?5ite@ 000000018002c460     libvcruntime:undname.obj
 0002:00005488       ??_C@_0CM@FCBBDIGB@?$GAeh?5vector?5vbase?5copy?5construct@ 000000018002c488     libvcruntime:undname.obj
 0002:000054b8       ??_C@_0BL@CLIPGLGB@?$GAdynamic?5initializer?5for?5?8@ 000000018002c4b8     libvcruntime:undname.obj
 0002:000054d8       ??_C@_0CB@PDBIFEP@?$GAdynamic?5atexit?5destructor?5for?5@ 000000018002c4d8     libvcruntime:undname.obj
 0002:00005500       ??_C@_0CD@CGAJBKEJ@?$GAvector?5copy?5constructor?5iterat@ 000000018002c500     libvcruntime:undname.obj
 0002:00005528       ??_C@_0CJ@GJELGAMM@?$GAvector?5vbase?5copy?5constructor?5@ 000000018002c528     libvcruntime:undname.obj
 0002:00005558       ??_C@_0CL@FGIJHLCE@?$GAmanaged?5vector?5copy?5constructo@ 000000018002c558     libvcruntime:undname.obj
 0002:00005588       ??_C@_0BM@PMGGMLDN@?$GAlocal?5static?5thread?5guard?8@ 000000018002c588     libvcruntime:undname.obj
 0002:000055a8       ??_C@_0N@BDNMDMOL@operator?5?$CC?$CC?5@ 000000018002c5a8     libvcruntime:undname.obj
 0002:000055b8       ??_C@_0BC@GGEBGALA@operator?5co_await@ 000000018002c5b8     libvcruntime:undname.obj
 0002:000055d0       ??_C@_0BC@DAFEJGAK@?5Type?5Descriptor?8@ 000000018002c5d0     libvcruntime:undname.obj
 0002:000055e8       ??_C@_0BM@LDKODKLH@?5Base?5Class?5Descriptor?5at?5?$CI@ 000000018002c5e8     libvcruntime:undname.obj
 0002:00005608       ??_C@_0BD@LGICGFMM@?5Base?5Class?5Array?8@ 000000018002c608     libvcruntime:undname.obj
 0002:00005620       ??_C@_0BN@MECKDCOJ@?5Class?5Hierarchy?5Descriptor?8@ 000000018002c620     libvcruntime:undname.obj
 0002:00005640       ??_C@_0BK@CFCOFLF@?5Complete?5Object?5Locator?8@ 000000018002c640     libvcruntime:undname.obj
 0002:00005660       ??_C@_1FE@LHBLIKM@?$AAA?$AAs?$AAs?$AAe?$AAr?$AAt?$AAi?$AAo?$AAn?$AA?5?$AAf?$AAa?$AAi?$AAl?$AAe?$AAd?$AA?3?$AA?5?$AA?$CF?$AAT?$AAs?$AA?0?$AA?5?$AAf?$AAi?$AAl?$AAe?$AA?5?$AA?$CF?$AAT?$AAs?$AA?0@ 000000018002c660     libucrt:assert.obj
 0002:000056c0       ??_C@_1EK@MBDPDCGA@?$AAM?$AAi?$AAc?$AAr?$AAo?$AAs?$AAo?$AAf?$AAt?$AA?5?$AAV?$AAi?$AAs?$AAu?$AAa?$AAl?$AA?5?$AAC?$AA?$CL?$AA?$CL?$AA?5?$AAR?$AAu?$AAn?$AAt?$AAi?$AAm?$AAe?$AA?5?$AAL?$AAi?$AAb@ 000000018002c6c0     libucrt:assert.obj
 0002:00005710       ??_C@_1CE@OJBNHDMO@?$AAA?$AAs?$AAs?$AAe?$AAr?$AAt?$AAi?$AAo?$AAn?$AA?5?$AAf?$AAa?$AAi?$AAl?$AAe?$AAd?$AA?$CB?$AA?$AA@ 000000018002c710     libucrt:assert.obj
 0002:00005738       ??_C@_1BE@PHKBBGE@?$AAP?$AAr?$AAo?$AAg?$AAr?$AAa?$AAm?$AA?3?$AA?5?$AA?$AA@ 000000018002c738     libucrt:assert.obj
 0002:00005750       ??_C@_1O@HEMHKNDC@?$AAF?$AAi?$AAl?$AAe?$AA?3?$AA?5?$AA?$AA@ 000000018002c750     libucrt:assert.obj
 0002:00005760       ??_C@_1O@KCAFKHJE@?$AAL?$AAi?$AAn?$AAe?$AA?3?$AA?5?$AA?$AA@ 000000018002c760     libucrt:assert.obj
 0002:00005770       ??_C@_1BK@PEDCIPMA@?$AAE?$AAx?$AAp?$AAr?$AAe?$AAs?$AAs?$AAi?$AAo?$AAn?$AA?3?$AA?5?$AA?$AA@ 000000018002c770     libucrt:assert.obj
 0002:00005790       ??_C@_1OA@EGMLFBHJ@?$AAF?$AAo?$AAr?$AA?5?$AAi?$AAn?$AAf?$AAo?$AAr?$AAm?$AAa?$AAt?$AAi?$AAo?$AAn?$AA?5?$AAo?$AAn?$AA?5?$AAh?$AAo?$AAw?$AA?5?$AAy?$AAo?$AAu?$AAr?$AA?5?$AAp?$AAr?$AAo?$AAg@ 000000018002c790     libucrt:assert.obj
 0002:00005870       ??_C@_1HK@POCJMFGK@?$AA?$CI?$AAP?$AAr?$AAe?$AAs?$AAs?$AA?5?$AAR?$AAe?$AAt?$AAr?$AAy?$AA?5?$AAt?$AAo?$AA?5?$AAd?$AAe?$AAb?$AAu?$AAg?$AA?5?$AAt?$AAh?$AAe?$AA?5?$AAa?$AAp?$AAp?$AAl?$AAi?$AAc@ 000000018002c870     libucrt:assert.obj
 0002:000058f0       ??_C@_17LGKOMLJ@?$AA?4?$AA?4?$AA?4?$AA?$AA@ 000000018002c8f0     libucrt:assert.obj
 0002:000058f8       ??_C@_13LBAGMAIH@?$AA?6?$AA?$AA@ 000000018002c8f8     libucrt:assert.obj
 0002:000058fc       ??_C@_15IABLJNFO@?$AA?6?$AA?6?$AA?$AA@ 000000018002c8fc     libucrt:assert.obj
 0002:00005908       ??_C@_1CO@EAEJAADC@?$AA?$DM?$AAp?$AAr?$AAo?$AAg?$AAr?$AAa?$AAm?$AA?5?$AAn?$AAa?$AAm?$AAe?$AA?5?$AAu?$AAn?$AAk?$AAn?$AAo?$AAw?$AAn?$AA?$DO?$AA?$AA@ 000000018002c908     libucrt:assert.obj
 0002:00005940       standard_lookup_table      000000018002c940     libucrt:output.obj
 0002:000059a0       ??_C@_1O@CEDCILHN@?$AA?$CI?$AAn?$AAu?$AAl?$AAl?$AA?$CJ?$AA?$AA@ 000000018002c9a0     libucrt:output.obj
 0002:000059b0       ??_C@_06OJHGLDPL@?$CInull?$CJ?$AA@ 000000018002c9b0     libucrt:output.obj
 0002:000059b8       __real@3ff0000000000000    000000018002c9b8     libucrt:log2.obj
 0002:000059c0       ??_C@_1BI@BGOHAHKC@?$AAm?$AAs?$AAc?$AAo?$AAr?$AAe?$AAe?$AA?4?$AAd?$AAl?$AAl?$AA?$AA@ 000000018002c9c0     libucrt:exit.obj
 0002:000059d8       ??_C@_0P@MIGLKIOC@CorExitProcess?$AA@ 000000018002c9d8     libucrt:exit.obj
 0002:000059f0       __newctype                 000000018002c9f0     libucrt:ctype.obj
 0002:00005cf0       __newclmap                 000000018002ccf0     libucrt:ctype.obj
 0002:00005e70       __newcumap                 000000018002ce70     libucrt:ctype.obj
 0002:00005ff0       _wctype                    000000018002cff0     libucrt:ctype.obj
 0002:00006370       ?large_power_data@?1??multiply_by_power_of_ten@__crt_strtox@@YA_NAEAUbig_integer@2@I@Z@4QBIB 000000018002d370     libucrt:strtod.obj
 0002:00006c80       ?large_power_indices@?1??multiply_by_power_of_ten@__crt_strtox@@YA_NAEAUbig_integer@2@I@Z@4QBUunpack_index@?1??12@YA_N0I@Z@B 000000018002dc80     libucrt:strtod.obj
 0002:00006d18       ?small_powers_of_ten@?1??multiply_by_power_of_ten@__crt_strtox@@YA_NAEAUbig_integer@2@I@Z@4QBIB 000000018002dd18     libucrt:strtod.obj
 0002:000089f0       __acrt_exception_action_table 000000018002f9f0     libucrt:exception_filter.obj
 0002:00008ab0       __acrt_signal_action_table_count 000000018002fab0     libucrt:exception_filter.obj
 0002:00008ab8       __acrt_signal_action_first_fpe_index 000000018002fab8     libucrt:exception_filter.obj
 0002:00008ac0       __acrt_signal_action_fpe_count 000000018002fac0     libucrt:exception_filter.obj
 0002:00008c70       ??_C@_1EA@JGEFHKEI@?$AAa?$AAp?$AAi?$AA?9?$AAm?$AAs?$AA?9?$AAw?$AAi?$AAn?$AA?9?$AAc?$AAo?$AAr?$AAe?$AA?9?$AAd?$AAa?$AAt?$AAe?$AAt?$AAi?$AAm?$AAe?$AA?9?$AAl?$AA1?$AA?9?$AA1?$AA?9?$AA1?$AA?$AA@ 000000018002fc70     libucrt:winapi_thunks.obj
 0002:00008cb0       ??_C@_1DM@KHCHBNEB@?$AAa?$AAp?$AAi?$AA?9?$AAm?$AAs?$AA?9?$AAw?$AAi?$AAn?$AA?9?$AAc?$AAo?$AAr?$AAe?$AA?9?$AAf?$AAi?$AAb?$AAe?$AAr?$AAs?$AA?9?$AAl?$AA1?$AA?9?$AA1?$AA?9?$AA1?$AA?$AA@ 000000018002fcb0     libucrt:winapi_thunks.obj
 0002:00008cf0       ??_C@_1DI@IJCEHOCB@?$AAa?$AAp?$AAi?$AA?9?$AAm?$AAs?$AA?9?$AAw?$AAi?$AAn?$AA?9?$AAc?$AAo?$AAr?$AAe?$AA?9?$AAf?$AAi?$AAl?$AAe?$AA?9?$AAl?$AA1?$AA?9?$AA2?$AA?9?$AA2?$AA?$AA@ 000000018002fcf0     libucrt:winapi_thunks.obj
 0002:00008d30       ??_C@_1EI@MPIAOHOC@?$AAa?$AAp?$AAi?$AA?9?$AAm?$AAs?$AA?9?$AAw?$AAi?$AAn?$AA?9?$AAc?$AAo?$AAr?$AAe?$AA?9?$AAl?$AAo?$AAc?$AAa?$AAl?$AAi?$AAz?$AAa?$AAt?$AAi?$AAo?$AAn?$AA?9?$AAl?$AA1?$AA?9@ 000000018002fd30     libucrt:winapi_thunks.obj
 0002:00008d80       ??_C@_1FK@FPHCKFIE@?$AAa?$AAp?$AAi?$AA?9?$AAm?$AAs?$AA?9?$AAw?$AAi?$AAn?$AA?9?$AAc?$AAo?$AAr?$AAe?$AA?9?$AAl?$AAo?$AAc?$AAa?$AAl?$AAi?$AAz?$AAa?$AAt?$AAi?$AAo?$AAn?$AA?9?$AAo?$AAb?$AAs@ 000000018002fd80     libucrt:winapi_thunks.obj
 0002:00008de0       ??_C@_1EM@DILCGIIO@?$AAa?$AAp?$AAi?$AA?9?$AAm?$AAs?$AA?9?$AAw?$AAi?$AAn?$AA?9?$AAc?$AAo?$AAr?$AAe?$AA?9?$AAp?$AAr?$AAo?$AAc?$AAe?$AAs?$AAs?$AAt?$AAh?$AAr?$AAe?$AAa?$AAd?$AAs?$AA?9?$AAl@ 000000018002fde0     libucrt:winapi_thunks.obj
 0002:00008e30       ??_C@_1DM@LNCGDDPN@?$AAa?$AAp?$AAi?$AA?9?$AAm?$AAs?$AA?9?$AAw?$AAi?$AAn?$AA?9?$AAc?$AAo?$AAr?$AAe?$AA?9?$AAs?$AAt?$AAr?$AAi?$AAn?$AAg?$AA?9?$AAl?$AA1?$AA?9?$AA1?$AA?9?$AA0?$AA?$AA@ 000000018002fe30     libucrt:winapi_thunks.obj
 0002:00008e70       ??_C@_1DK@LPPGFMPP@?$AAa?$AAp?$AAi?$AA?9?$AAm?$AAs?$AA?9?$AAw?$AAi?$AAn?$AA?9?$AAc?$AAo?$AAr?$AAe?$AA?9?$AAs?$AAy?$AAn?$AAc?$AAh?$AA?9?$AAl?$AA1?$AA?9?$AA2?$AA?9?$AA0?$AA?$AA@ 000000018002fe70     libucrt:winapi_thunks.obj
 0002:00008eb0       ??_C@_1DO@FPAPJEMD@?$AAa?$AAp?$AAi?$AA?9?$AAm?$AAs?$AA?9?$AAw?$AAi?$AAn?$AA?9?$AAc?$AAo?$AAr?$AAe?$AA?9?$AAs?$AAy?$AAs?$AAi?$AAn?$AAf?$AAo?$AA?9?$AAl?$AA1?$AA?9?$AA2?$AA?9?$AA1?$AA?$AA@ 000000018002feb0     libucrt:winapi_thunks.obj
 0002:00008ef0       ??_C@_1DK@NDHNAHIO@?$AAa?$AAp?$AAi?$AA?9?$AAm?$AAs?$AA?9?$AAw?$AAi?$AAn?$AA?9?$AAc?$AAo?$AAr?$AAe?$AA?9?$AAw?$AAi?$AAn?$AAr?$AAt?$AA?9?$AAl?$AA1?$AA?9?$AA1?$AA?9?$AA0?$AA?$AA@ 000000018002fef0     libucrt:winapi_thunks.obj
 0002:00008f30       ??_C@_1DM@KGHDGBCM@?$AAa?$AAp?$AAi?$AA?9?$AAm?$AAs?$AA?9?$AAw?$AAi?$AAn?$AA?9?$AAc?$AAo?$AAr?$AAe?$AA?9?$AAx?$AAs?$AAt?$AAa?$AAt?$AAe?$AA?9?$AAl?$AA2?$AA?9?$AA1?$AA?9?$AA0?$AA?$AA@ 000000018002ff30     libucrt:winapi_thunks.obj
 0002:00008f70       ??_C@_1EO@IJIOEFOH@?$AAa?$AAp?$AAi?$AA?9?$AAm?$AAs?$AA?9?$AAw?$AAi?$AAn?$AA?9?$AAr?$AAt?$AAc?$AAo?$AAr?$AAe?$AA?9?$AAn?$AAt?$AAu?$AAs?$AAe?$AAr?$AA?9?$AAw?$AAi?$AAn?$AAd?$AAo?$AAw?$AA?9@ 000000018002ff70     libucrt:winapi_thunks.obj
 0002:00008fc0       ??_C@_1FG@HHGEKANL@?$AAa?$AAp?$AAi?$AA?9?$AAm?$AAs?$AA?9?$AAw?$AAi?$AAn?$AA?9?$AAs?$AAe?$AAc?$AAu?$AAr?$AAi?$AAt?$AAy?$AA?9?$AAs?$AAy?$AAs?$AAt?$AAe?$AAm?$AAf?$AAu?$AAn?$AAc?$AAt?$AAi@ 000000018002ffc0     libucrt:winapi_thunks.obj
 0002:00009020       ??_C@_1EG@DBIOJECG@?$AAe?$AAx?$AAt?$AA?9?$AAm?$AAs?$AA?9?$AAw?$AAi?$AAn?$AA?9?$AAn?$AAt?$AAu?$AAs?$AAe?$AAr?$AA?9?$AAd?$AAi?$AAa?$AAl?$AAo?$AAg?$AAb?$AAo?$AAx?$AA?9?$AAl?$AA1?$AA?9?$AA1@ 0000000180030020     libucrt:winapi_thunks.obj
 0002:00009070       ??_C@_1EO@FIHMJCLF@?$AAe?$AAx?$AAt?$AA?9?$AAm?$AAs?$AA?9?$AAw?$AAi?$AAn?$AA?9?$AAn?$AAt?$AAu?$AAs?$AAe?$AAr?$AA?9?$AAw?$AAi?$AAn?$AAd?$AAo?$AAw?$AAs?$AAt?$AAa?$AAt?$AAi?$AAo?$AAn?$AA?9@ 0000000180030070     libucrt:winapi_thunks.obj
 0002:000090c0       ??_C@_1BC@DNHGCMLG@?$AAa?$AAd?$AAv?$AAa?$AAp?$AAi?$AA3?$AA2?$AA?$AA@ 00000001800300c0     libucrt:winapi_thunks.obj
 0002:000090d8       ??_C@_1BC@GDMECMAK@?$AAk?$AAe?$AAr?$AAn?$AAe?$AAl?$AA3?$AA2?$AA?$AA@ 00000001800300d8     libucrt:winapi_thunks.obj
 0002:000090f0       ??_C@_1M@OAIMIKLP@?$AAn?$AAt?$AAd?$AAl?$AAl?$AA?$AA@ 00000001800300f0     libucrt:winapi_thunks.obj
 0002:00009100       ??_C@_1EG@DPGNFKGC@?$AAa?$AAp?$AAi?$AA?9?$AAm?$AAs?$AA?9?$AAw?$AAi?$AAn?$AA?9?$AAa?$AAp?$AAp?$AAm?$AAo?$AAd?$AAe?$AAl?$AA?9?$AAr?$AAu?$AAn?$AAt?$AAi?$AAm?$AAe?$AA?9?$AAl?$AA1?$AA?9?$AA1@ 0000000180030100     libucrt:winapi_thunks.obj
 0002:00009148       ??_C@_1O@BCCLBEOE@?$AAu?$AAs?$AAe?$AAr?$AA3?$AA2?$AA?$AA@ 0000000180030148     libucrt:winapi_thunks.obj
 0002:00009158       ??_C@_1BA@PFFKHIOG@?$AAa?$AAp?$AAi?$AA?9?$AAm?$AAs?$AA?9?$AA?$AA@ 0000000180030158     libucrt:winapi_thunks.obj
 0002:00009168       ??_C@_1BA@IAIFMGEF@?$AAe?$AAx?$AAt?$AA?9?$AAm?$AAs?$AA?9?$AA?$AA@ 0000000180030168     libucrt:winapi_thunks.obj
 0002:00009180       ??_C@_0BA@FHFNEAED@AreFileApisANSI?$AA@ 0000000180030180     libucrt:winapi_thunks.obj
 0002:00009198       ??_C@_08KNHFBNJ@FlsAlloc?$AA@ 0000000180030198     libucrt:winapi_thunks.obj
 0002:000091b0       ??_C@_07PEJMOBNF@FlsFree?$AA@ 00000001800301b0     libucrt:winapi_thunks.obj
 0002:000091c0       ??_C@_0M@GDNOONDI@FlsGetValue?$AA@ 00000001800301c0     libucrt:winapi_thunks.obj
 0002:000091d8       ??_C@_0M@JCPCPOEF@FlsSetValue?$AA@ 00000001800301d8     libucrt:winapi_thunks.obj
 0002:000091f0       ??_C@_0BA@HNOPNCHB@GetActiveWindow?$AA@ 00000001800301f0     libucrt:winapi_thunks.obj
 0002:00009208       ??_C@_0BD@HHGDFDBJ@GetLastActivePopup?$AA@ 0000000180030208     libucrt:winapi_thunks.obj
 0002:00009228       ??_C@_0BI@DFKBFLJE@GetProcessWindowStation?$AA@ 0000000180030228     libucrt:winapi_thunks.obj
 0002:00009248       ??_C@_0BK@DEKFELLI@GetUserObjectInformationW?$AA@ 0000000180030248     libucrt:winapi_thunks.obj
 0002:00009270       ??_C@_0BM@HCFOFFN@InitializeCriticalSectionEx?$AA@ 0000000180030270     libucrt:winapi_thunks.obj
 0002:00009298       ??_C@_0O@KKBNKAPF@LCMapStringEx?$AA@ 0000000180030298     libucrt:winapi_thunks.obj
 0002:000092b0       ??_C@_0BB@HBDEELFH@LocaleNameToLCID?$AA@ 00000001800302b0     libucrt:winapi_thunks.obj
 0002:000092d0       ??_C@_0M@CHKKJDAI@MessageBoxA?$AA@ 00000001800302d0     libucrt:winapi_thunks.obj
 0002:000092e8       ??_C@_0M@DLDCCGNP@MessageBoxW?$AA@ 00000001800302e8     libucrt:winapi_thunks.obj
 0002:000092f8       ??_C@_0CF@OJOFEIGO@AppPolicyGetProcessTerminationMe@ 00000001800302f8     libucrt:winapi_thunks.obj
 0002:00009328       ??_C@_0CE@OICFMIKE@AppPolicyGetShowDeveloperDiagnos@ 0000000180030328     libucrt:winapi_thunks.obj
 0002:00009350       ??_C@_0BL@ODDJNEDA@AppPolicyGetWindowingModel?$AA@ 0000000180030350     libucrt:winapi_thunks.obj
 0002:0000936c       ??_C@_03OEIAHPBN@INF?$AA@  000000018003036c     libucrt:cvt.obj
 0002:00009370       ??_C@_03OJHLLCGB@inf?$AA@  0000000180030370     libucrt:cvt.obj
 0002:00009374       ??_C@_03LKNCIKJB@NAN?$AA@  0000000180030374     libucrt:cvt.obj
 0002:00009378       ??_C@_03LHCJEHON@nan?$AA@  0000000180030378     libucrt:cvt.obj
 0002:00009380       ??_C@_09OFJJIMPC@NAN?$CISNAN?$CJ?$AA@ 0000000180030380     libucrt:cvt.obj
 0002:00009390       ??_C@_09IPFBKMDL@nan?$CIsnan?$CJ?$AA@ 0000000180030390     libucrt:cvt.obj
 0002:000093a0       ??_C@_08IKHNHAJ@NAN?$CIIND?$CJ?$AA@ 00000001800303a0     libucrt:cvt.obj
 0002:000093b0       ??_C@_08OFCDMILK@nan?$CIind?$CJ?$AA@ 00000001800303b0     libucrt:cvt.obj
 0002:000093bc       ??_C@_05KLBDPFGC@e?$CL000?$AA@ 00000001800303bc     libucrt:cvt.obj
 0002:000093d0       __lc_time_c                00000001800303d0     libucrt:nlsdata.obj
 0002:00009690       ??_C@_03KOEHGMDN@Sun?$AA@  0000000180030690     libucrt:nlsdata.obj
 0002:00009694       ??_C@_03PDAGKDH@Mon?$AA@   0000000180030694     libucrt:nlsdata.obj
 0002:00009698       ??_C@_03NAGEINEP@Tue?$AA@  0000000180030698     libucrt:nlsdata.obj
 0002:0000969c       ??_C@_03MHOMLAJA@Wed?$AA@  000000018003069c     libucrt:nlsdata.obj
 0002:000096a0       ??_C@_03IOFIKPDN@Thu?$AA@  00000001800306a0     libucrt:nlsdata.obj
 0002:000096a4       ??_C@_03IDIOELNC@Fri?$AA@  00000001800306a4     libucrt:nlsdata.obj
 0002:000096a8       ??_C@_03FEFJNEK@Sat?$AA@   00000001800306a8     libucrt:nlsdata.obj
 0002:000096ac       ??_C@_06OOPIFAJ@Sunday?$AA@ 00000001800306ac     libucrt:nlsdata.obj
 0002:000096b4       ??_C@_06JLEDEDGH@Monday?$AA@ 00000001800306b4     libucrt:nlsdata.obj
 0002:000096c0       ??_C@_07BAAGCFCM@Tuesday?$AA@ 00000001800306c0     libucrt:nlsdata.obj
 0002:000096c8       ??_C@_09DLIGFAKA@Wednesday?$AA@ 00000001800306c8     libucrt:nlsdata.obj
 0002:000096d8       ??_C@_08HACCIKIA@Thursday?$AA@ 00000001800306d8     libucrt:nlsdata.obj
 0002:000096e4       ??_C@_06JECMNKMI@Friday?$AA@ 00000001800306e4     libucrt:nlsdata.obj
 0002:000096f0       ??_C@_08INBOOONO@Saturday?$AA@ 00000001800306f0     libucrt:nlsdata.obj
 0002:000096fc       ??_C@_03JIHJHPIE@Jan?$AA@  00000001800306fc     libucrt:nlsdata.obj
 0002:00009700       ??_C@_03HJBDCHOM@Feb?$AA@  0000000180030700     libucrt:nlsdata.obj
 0002:00009704       ??_C@_03ODNJBKGA@Mar?$AA@  0000000180030704     libucrt:nlsdata.obj
 0002:00009708       ??_C@_03LEOLGMJP@Apr?$AA@  0000000180030708     libucrt:nlsdata.obj
 0002:0000970c       ??_C@_03CNMDKL@May?$AA@    000000018003070c     libucrt:nlsdata.obj
 0002:00009710       ??_C@_03IDFGHECI@Jun?$AA@  0000000180030710     libucrt:nlsdata.obj
 0002:00009714       ??_C@_03LBGABGKK@Jul?$AA@  0000000180030714     libucrt:nlsdata.obj
 0002:00009718       ??_C@_03IFJFEIGA@Aug?$AA@  0000000180030718     libucrt:nlsdata.obj
 0002:0000971c       ??_C@_03GGCAPAJC@Sep?$AA@  000000018003071c     libucrt:nlsdata.obj
 0002:00009720       ??_C@_03BMAOKBAD@Oct?$AA@  0000000180030720     libucrt:nlsdata.obj
 0002:00009724       ??_C@_03JPJOFNIA@Nov?$AA@  0000000180030724     libucrt:nlsdata.obj
 0002:00009728       ??_C@_03MKABNOCG@Dec?$AA@  0000000180030728     libucrt:nlsdata.obj
 0002:00009730       ??_C@_07CGJPFGJA@January?$AA@ 0000000180030730     libucrt:nlsdata.obj
 0002:00009738       ??_C@_08GNJGEPFN@February?$AA@ 0000000180030738     libucrt:nlsdata.obj
 0002:00009744       ??_C@_05HPCKOFNC@March?$AA@ 0000000180030744     libucrt:nlsdata.obj
 0002:0000974c       ??_C@_05DMJDNLEJ@April?$AA@ 000000018003074c     libucrt:nlsdata.obj
 0002:00009754       ??_C@_04CNLMGBGM@June?$AA@ 0000000180030754     libucrt:nlsdata.obj
 0002:0000975c       ??_C@_04MIEPOIFP@July?$AA@ 000000018003075c     libucrt:nlsdata.obj
 0002:00009764       ??_C@_06LBBHFDDG@August?$AA@ 0000000180030764     libucrt:nlsdata.obj
 0002:00009770       ??_C@_09BHHEALKD@September?$AA@ 0000000180030770     libucrt:nlsdata.obj
 0002:00009780       ??_C@_07JJNFCEND@October?$AA@ 0000000180030780     libucrt:nlsdata.obj
 0002:00009788       ??_C@_08HCHEGEOA@November?$AA@ 0000000180030788     libucrt:nlsdata.obj
 0002:00009798       ??_C@_08EDHMEBNP@December?$AA@ 0000000180030798     libucrt:nlsdata.obj
 0002:000097a4       ??_C@_02DEDBPAFC@AM?$AA@   00000001800307a4     libucrt:nlsdata.obj
 0002:000097a8       ??_C@_02CJNFDJBF@PM?$AA@   00000001800307a8     libucrt:nlsdata.obj
 0002:000097b0       ??_C@_08BPBNCDIB@MM?1dd?1yy?$AA@ 00000001800307b0     libucrt:nlsdata.obj
 0002:000097c0       ??_C@_0BE@CKGJFCPC@dddd?0?5MMMM?5dd?0?5yyyy?$AA@ 00000001800307c0     libucrt:nlsdata.obj
 0002:000097d8       ??_C@_08JCCMCCIL@HH?3mm?3ss?$AA@ 00000001800307d8     libucrt:nlsdata.obj
 0002:000097e8       ??_C@_17MBGCMIPB@?$AAS?$AAu?$AAn?$AA?$AA@ 00000001800307e8     libucrt:nlsdata.obj
 0002:000097f0       ??_C@_17KBOMKBF@?$AAM?$AAo?$AAn?$AA?$AA@ 00000001800307f0     libucrt:nlsdata.obj
 0002:000097f8       ??_C@_17BMKGEGOJ@?$AAT?$AAu?$AAe?$AA?$AA@ 00000001800307f8     libucrt:nlsdata.obj
 0002:00009800       ??_C@_17CJEDCEPE@?$AAW?$AAe?$AAd?$AA?$AA@ 0000000180030800     libucrt:nlsdata.obj
 0002:00009808       ??_C@_17PDPHAADD@?$AAT?$AAh?$AAu?$AA?$AA@ 0000000180030808     libucrt:nlsdata.obj
 0002:00009810       ??_C@_17HFOLPPLP@?$AAF?$AAr?$AAi?$AA?$AA@ 0000000180030810     libucrt:nlsdata.obj
 0002:00009818       ??_C@_17GGIBDPIH@?$AAS?$AAa?$AAt?$AA?$AA@ 0000000180030818     libucrt:nlsdata.obj
 0002:00009820       ??_C@_1O@IHNHDHPB@?$AAS?$AAu?$AAn?$AAd?$AAa?$AAy?$AA?$AA@ 0000000180030820     libucrt:nlsdata.obj
 0002:00009830       ??_C@_1O@MMNBFLIA@?$AAM?$AAo?$AAn?$AAd?$AAa?$AAy?$AA?$AA@ 0000000180030830     libucrt:nlsdata.obj
 0002:00009840       ??_C@_1BA@ENFBFFEK@?$AAT?$AAu?$AAe?$AAs?$AAd?$AAa?$AAy?$AA?$AA@ 0000000180030840     libucrt:nlsdata.obj
 0002:00009850       ??_C@_1BE@EBOGMDOH@?$AAW?$AAe?$AAd?$AAn?$AAe?$AAs?$AAd?$AAa?$AAy?$AA?$AA@ 0000000180030850     libucrt:nlsdata.obj
 0002:00009868       ??_C@_1BC@HHMNLIHE@?$AAT?$AAh?$AAu?$AAr?$AAs?$AAd?$AAa?$AAy?$AA?$AA@ 0000000180030868     libucrt:nlsdata.obj
 0002:00009880       ??_C@_1O@PDICJHAG@?$AAF?$AAr?$AAi?$AAd?$AAa?$AAy?$AA?$AA@ 0000000180030880     libucrt:nlsdata.obj
 0002:00009890       ??_C@_1BC@ENMNNPAJ@?$AAS?$AAa?$AAt?$AAu?$AAr?$AAd?$AAa?$AAy?$AA?$AA@ 0000000180030890     libucrt:nlsdata.obj
 0002:000098a8       ??_C@_17DKNBKCHM@?$AAJ?$AAa?$AAn?$AA?$AA@ 00000001800308a8     libucrt:nlsdata.obj
 0002:000098b0       ??_C@_17LMDJEKJN@?$AAF?$AAe?$AAb?$AA?$AA@ 00000001800308b0     libucrt:nlsdata.obj
 0002:000098b8       ??_C@_17CKNLEDEC@?$AAM?$AAa?$AAr?$AA?$AA@ 00000001800308b8     libucrt:nlsdata.obj
 0002:000098c0       ??_C@_17LFPOIHDD@?$AAA?$AAp?$AAr?$AA?$AA@ 00000001800308c0     libucrt:nlsdata.obj
 0002:000098c8       ??_C@_17PNNKMEED@?$AAM?$AAa?$AAy?$AA?$AA@ 00000001800308c8     libucrt:nlsdata.obj
 0002:000098d0       ??_C@_17KCJGOCPB@?$AAJ?$AAu?$AAn?$AA?$AA@ 00000001800308d0     libucrt:nlsdata.obj
 0002:000098d8       ??_C@_17IJPCKHK@?$AAJ?$AAu?$AAl?$AA?$AA@ 00000001800308d8     libucrt:nlsdata.obj
 0002:000098e0       ??_C@_17ICPELBCN@?$AAA?$AAu?$AAg?$AA?$AA@ 00000001800308e0     libucrt:nlsdata.obj
 0002:000098e8       ??_C@_17HCHCOKMG@?$AAS?$AAe?$AAp?$AA?$AA@ 00000001800308e8     libucrt:nlsdata.obj
 0002:000098f0       ??_C@_17FNLKOI@?$AAO?$AAc?$AAt?$AA?$AA@ 00000001800308f0     libucrt:nlsdata.obj
 0002:000098f8       ??_C@_17BBDMLCIG@?$AAN?$AAo?$AAv?$AA?$AA@ 00000001800308f8     libucrt:nlsdata.obj
 0002:00009900       ??_C@_17EGKACKIF@?$AAD?$AAe?$AAc?$AA?$AA@ 0000000180030900     libucrt:nlsdata.obj
 0002:00009908       ??_C@_1BA@EFMEIEBA@?$AAJ?$AAa?$AAn?$AAu?$AAa?$AAr?$AAy?$AA?$AA@ 0000000180030908     libucrt:nlsdata.obj
 0002:00009918       ??_C@_1BC@JGDDFFAM@?$AAF?$AAe?$AAb?$AAr?$AAu?$AAa?$AAr?$AAy?$AA?$AA@ 0000000180030918     libucrt:nlsdata.obj
 0002:00009930       ??_C@_1M@IKEENEDF@?$AAM?$AAa?$AAr?$AAc?$AAh?$AA?$AA@ 0000000180030930     libucrt:nlsdata.obj
 0002:00009940       ??_C@_1M@GJNLMHFD@?$AAA?$AAp?$AAr?$AAi?$AAl?$AA?$AA@ 0000000180030940     libucrt:nlsdata.obj
 0002:00009950       ??_C@_19EPFLPGAP@?$AAJ?$AAu?$AAn?$AAe?$AA?$AA@ 0000000180030950     libucrt:nlsdata.obj
 0002:00009960       ??_C@_19BIFMLPCD@?$AAJ?$AAu?$AAl?$AAy?$AA?$AA@ 0000000180030960     libucrt:nlsdata.obj
 0002:00009970       ??_C@_1O@PAHLKOAC@?$AAA?$AAu?$AAg?$AAu?$AAs?$AAt?$AA?$AA@ 0000000180030970     libucrt:nlsdata.obj
 0002:00009980       ??_C@_1BE@DKAAMBJL@?$AAS?$AAe?$AAp?$AAt?$AAe?$AAm?$AAb?$AAe?$AAr?$AA?$AA@ 0000000180030980     libucrt:nlsdata.obj
 0002:00009998       ??_C@_1BA@EPANDLNG@?$AAO?$AAc?$AAt?$AAo?$AAb?$AAe?$AAr?$AA?$AA@ 0000000180030998     libucrt:nlsdata.obj
 0002:000099a8       ??_C@_1BC@BGLIFPF@?$AAN?$AAo?$AAv?$AAe?$AAm?$AAb?$AAe?$AAr?$AA?$AA@ 00000001800309a8     libucrt:nlsdata.obj
 0002:000099c0       ??_C@_1BC@FEMKIFH@?$AAD?$AAe?$AAc?$AAe?$AAm?$AAb?$AAe?$AAr?$AA?$AA@ 00000001800309c0     libucrt:nlsdata.obj
 0002:000099d4       ??_C@_15ODEHAHHF@?$AAA?$AAM?$AA?$AA@ 00000001800309d4     libucrt:nlsdata.obj
 0002:000099dc       ??_C@_15CLMNNGEL@?$AAP?$AAM?$AA?$AA@ 00000001800309dc     libucrt:nlsdata.obj
 0002:000099e8       ??_C@_1BC@IEBCMHCM@?$AAM?$AAM?$AA?1?$AAd?$AAd?$AA?1?$AAy?$AAy?$AA?$AA@ 00000001800309e8     libucrt:nlsdata.obj
 0002:00009a00       ??_C@_1CI@KNAKOEBC@?$AAd?$AAd?$AAd?$AAd?$AA?0?$AA?5?$AAM?$AAM?$AAM?$AAM?$AA?5?$AAd?$AAd?$AA?0?$AA?5?$AAy?$AAy?$AAy?$AAy?$AA?$AA@ 0000000180030a00     libucrt:nlsdata.obj
 0002:00009a28       ??_C@_1BC@GDGBMEMK@?$AAH?$AAH?$AA?3?$AAm?$AAm?$AA?3?$AAs?$AAs?$AA?$AA@ 0000000180030a28     libucrt:nlsdata.obj
 0002:00009a40       ??_C@_1M@BMHNFIME@?$AAe?$AAn?$AA?9?$AAU?$AAS?$AA?$AA@ 0000000180030a40     libucrt:nlsdata.obj
 0002:00009a4c       ??_C@_03JGHBODFD@pow?$AA@  0000000180030a4c     libucrt:fpexcept.obj
 0002:00009a50       ??_C@_05HGHHAHAP@log10?$AA@ 0000000180030a50     libucrt:fpexcept.obj
 0002:00009a60       __log_256_lead             0000000180030a60     libucrt:log_256_lead_tail_table.obj
 0002:0000a270       __log_256_tail             0000000180031270     libucrt:log_256_lead_tail_table.obj
 0002:0000aa80       __two_to_jby64_head_table  0000000180031a80     libucrt:two_to_jby64_head_tail_table.obj
 0002:0000ac80       __two_to_jby64_tail_table  0000000180031c80     libucrt:two_to_jby64_head_tail_table.obj
 0002:0000ae80       ??_C@_04MBFDLNIM@powf?$AA@ 0000000180031e80     libucrt:pow_special.obj
 0002:0000ae90       __two_to_jby64_table       0000000180031e90     libucrt:two_to_jby64_table.obj
 0002:0000b090       __log_F_inv_qword          0000000180032090     libucrt:log_f_inv_qword_table.obj
 0002:0000b8c0       ??_C@_1M@HPNHIDJI@?$AAj?$AAa?$AA?9?$AAJ?$AAP?$AA?$AA@ 00000001800328c0     libucrt:mbctype.obj
 0002:0000b8d0       ??_C@_1M@BIBDDEMK@?$AAz?$AAh?$AA?9?$AAC?$AAN?$AA?$AA@ 00000001800328d0     libucrt:mbctype.obj
 0002:0000b8e0       ??_C@_1M@JLOOOEGK@?$AAk?$AAo?$AA?9?$AAK?$AAR?$AA?$AA@ 00000001800328e0     libucrt:mbctype.obj
 0002:0000b8f0       ??_C@_1M@CLNBBOPM@?$AAz?$AAh?$AA?9?$AAT?$AAW?$AA?$AA@ 00000001800328f0     libucrt:mbctype.obj
 0002:0000c740       ??_C@_15EMKDOKLE@?$AAa?$AAr?$AA?$AA@ 0000000180033740     libucrt:lcidtoname_downlevel.obj
 0002:0000c748       ??_C@_15KNPADPLH@?$AAb?$AAg?$AA?$AA@ 0000000180033748     libucrt:lcidtoname_downlevel.obj
 0002:0000c750       ??_C@_15EDMHLDMO@?$AAc?$AAa?$AA?$AA@ 0000000180033750     libucrt:lcidtoname_downlevel.obj
 0002:0000c758       ??_C@_1O@BPEAJADD@?$AAz?$AAh?$AA?9?$AAC?$AAH?$AAS?$AA?$AA@ 0000000180033758     libucrt:lcidtoname_downlevel.obj
 0002:0000c768       ??_C@_15LJNHCMNK@?$AAc?$AAs?$AA?$AA@ 0000000180033768     libucrt:lcidtoname_downlevel.obj
 0002:0000c770       ??_C@_15FOMCIDHG@?$AAd?$AAa?$AA?$AA@ 0000000180033770     libucrt:lcidtoname_downlevel.obj
 0002:0000c778       ??_C@_15NBKABECB@?$AAd?$AAe?$AA?$AA@ 0000000180033778     libucrt:lcidtoname_downlevel.obj
 0002:0000c780       ??_C@_15GHPEIIAO@?$AAe?$AAl?$AA?$AA@ 0000000180033780     libucrt:lcidtoname_downlevel.obj
 0002:0000c788       ??_C@_15MNPNEAIF@?$AAe?$AAn?$AA?$AA@ 0000000180033788     libucrt:lcidtoname_downlevel.obj
 0002:0000c790       ??_C@_15GPIOMPMH@?$AAe?$AAs?$AA?$AA@ 0000000180033790     libucrt:lcidtoname_downlevel.obj
 0002:0000c798       ??_C@_15NGLOAKJC@?$AAf?$AAi?$AA?$AA@ 0000000180033798     libucrt:lcidtoname_downlevel.obj
 0002:0000c7a0       ??_C@_15FBKGNKAM@?$AAf?$AAr?$AA?$AA@ 00000001800337a0     libucrt:lcidtoname_downlevel.obj
 0002:0000c7a8       ??_C@_15KGGCNEFK@?$AAh?$AAe?$AA?$AA@ 00000001800337a8     libucrt:lcidtoname_downlevel.obj
 0002:0000c7b0       ??_C@_15PGHLIDMF@?$AAh?$AAu?$AA?$AA@ 00000001800337b0     libucrt:lcidtoname_downlevel.obj
 0002:0000c7b8       ??_C@_15BIEMAPLM@?$AAi?$AAs?$AA?$AA@ 00000001800337b8     libucrt:lcidtoname_downlevel.obj
 0002:0000c7c0       ??_C@_15IFJLDHAF@?$AAi?$AAt?$AA?$AA@ 00000001800337c0     libucrt:lcidtoname_downlevel.obj
 0002:0000c7c8       ??_C@_15GEMIOCAG@?$AAj?$AAa?$AA?$AA@ 00000001800337c8     libucrt:lcidtoname_downlevel.obj
 0002:0000c7d0       ??_C@_15EPELEGJA@?$AAk?$AAo?$AA?$AA@ 00000001800337d0     libucrt:lcidtoname_downlevel.obj
 0002:0000c7d8       ??_C@_15NDDHIMN@?$AAn?$AAl?$AA?$AA@ 00000001800337d8     libucrt:lcidtoname_downlevel.obj
 0002:0000c7e0       ??_C@_15BPIGNHCD@?$AAn?$AAo?$AA?$AA@ 00000001800337e0     libucrt:lcidtoname_downlevel.obj
 0002:0000c7e8       ??_C@_15DEOPBLCG@?$AAp?$AAl?$AA?$AA@ 00000001800337e8     libucrt:lcidtoname_downlevel.obj
 0002:0000c7f0       ??_C@_15KBECGEFG@?$AAp?$AAt?$AA?$AA@ 00000001800337f0     libucrt:lcidtoname_downlevel.obj
 0002:0000c7f8       ??_C@_15GLJCBFMD@?$AAr?$AAo?$AA?$AA@ 00000001800337f8     libucrt:lcidtoname_downlevel.obj
 0002:0000c800       ??_C@_15FEDGKCDI@?$AAr?$AAu?$AA?$AA@ 0000000180033800     libucrt:lcidtoname_downlevel.obj
 0002:0000c808       ??_C@_15GLKMLLHM@?$AAh?$AAr?$AA?$AA@ 0000000180033808     libucrt:lcidtoname_downlevel.obj
 0002:0000c810       ??_C@_15CPKMFBDB@?$AAs?$AAk?$AA?$AA@ 0000000180033810     libucrt:lcidtoname_downlevel.obj
 0002:0000c818       ??_C@_15BAAIOGMK@?$AAs?$AAq?$AA?$AA@ 0000000180033818     libucrt:lcidtoname_downlevel.obj
 0002:0000c820       ??_C@_15INNPNOHD@?$AAs?$AAv?$AA?$AA@ 0000000180033820     libucrt:lcidtoname_downlevel.obj
 0002:0000c828       ??_C@_15CABMMOGH@?$AAt?$AAh?$AA?$AA@ 0000000180033828     libucrt:lcidtoname_downlevel.obj
 0002:0000c830       ??_C@_15BPLIHJJM@?$AAt?$AAr?$AA?$AA@ 0000000180033830     libucrt:lcidtoname_downlevel.obj
 0002:0000c838       ??_C@_15NEOEKKDJ@?$AAu?$AAr?$AA?$AA@ 0000000180033838     libucrt:lcidtoname_downlevel.obj
 0002:0000c840       ??_C@_15NFICGAJK@?$AAi?$AAd?$AA?$AA@ 0000000180033840     libucrt:lcidtoname_downlevel.obj
 0002:0000c848       ??_C@_15PJPFLCCM@?$AAu?$AAk?$AA?$AA@ 0000000180033848     libucrt:lcidtoname_downlevel.obj
 0002:0000c850       ??_C@_15HPJPHDM@?$AAb?$AAe?$AA?$AA@ 0000000180033850     libucrt:lcidtoname_downlevel.obj
 0002:0000c858       ??_C@_15LCHLGJII@?$AAs?$AAl?$AA?$AA@ 0000000180033858     libucrt:lcidtoname_downlevel.obj
 0002:0000c860       ??_C@_15PCFJPHHO@?$AAe?$AAt?$AA?$AA@ 0000000180033860     libucrt:lcidtoname_downlevel.obj
 0002:0000c868       ??_C@_15HPFPGODN@?$AAl?$AAv?$AA?$AA@ 0000000180033868     libucrt:lcidtoname_downlevel.obj
 0002:0000c870       ??_C@_15NFFGKGLG@?$AAl?$AAt?$AA?$AA@ 0000000180033870     libucrt:lcidtoname_downlevel.obj
 0002:0000c878       ??_C@_15BDAKCCHN@?$AAf?$AAa?$AA?$AA@ 0000000180033878     libucrt:lcidtoname_downlevel.obj
 0002:0000c880       ??_C@_15NFGIAIAJ@?$AAv?$AAi?$AA?$AA@ 0000000180033880     libucrt:lcidtoname_downlevel.obj
 0002:0000c888       ??_C@_15LMKNDMHN@?$AAh?$AAy?$AA?$AA@ 0000000180033888     libucrt:lcidtoname_downlevel.obj
 0002:0000c890       ??_C@_15IJBHMCFL@?$AAa?$AAz?$AA?$AA@ 0000000180033890     libucrt:lcidtoname_downlevel.obj
 0002:0000c898       ??_C@_15EKOFJABL@?$AAe?$AAu?$AA?$AA@ 0000000180033898     libucrt:lcidtoname_downlevel.obj
 0002:0000c8a0       ??_C@_15BGHADCNK@?$AAm?$AAk?$AA?$AA@ 00000001800338a0     libucrt:lcidtoname_downlevel.obj
 0002:0000c8a8       ??_C@_15JDNICKHM@?$AAa?$AAf?$AA?$AA@ 00000001800338a8     libucrt:lcidtoname_downlevel.obj
 0002:0000c8b0       ??_C@_15KPJEDBKD@?$AAk?$AAa?$AA?$AA@ 00000001800338b0     libucrt:lcidtoname_downlevel.obj
 0002:0000c8b8       ??_C@_15PDNFFFEO@?$AAf?$AAo?$AA?$AA@ 00000001800338b8     libucrt:lcidtoname_downlevel.obj
 0002:0000c8c0       ??_C@_15OMLEGLOC@?$AAh?$AAi?$AA?$AA@ 00000001800338c0     libucrt:lcidtoname_downlevel.obj
 0002:0000c8c8       ??_C@_15IDNNENKK@?$AAm?$AAs?$AA?$AA@ 00000001800338c8     libucrt:lcidtoname_downlevel.obj
 0002:0000c8d0       ??_C@_15MACJNBMH@?$AAk?$AAk?$AA?$AA@ 00000001800338d0     libucrt:lcidtoname_downlevel.obj
 0002:0000c8d8       ??_C@_15DKDJEOND@?$AAk?$AAy?$AA?$AA@ 00000001800338d8     libucrt:lcidtoname_downlevel.obj
 0002:0000c8e0       ??_C@_15DFGDLJBG@?$AAs?$AAw?$AA?$AA@ 00000001800338e0     libucrt:lcidtoname_downlevel.obj
 0002:0000c8e8       ??_C@_15BBFAICNG@?$AAu?$AAz?$AA?$AA@ 00000001800338e8     libucrt:lcidtoname_downlevel.obj
 0002:0000c8f0       ??_C@_15DKNDCGEA@?$AAt?$AAt?$AA?$AA@ 00000001800338f0     libucrt:lcidtoname_downlevel.obj
 0002:0000c8f8       ??_C@_15MGIFMDPL@?$AAp?$AAa?$AA?$AA@ 00000001800338f8     libucrt:lcidtoname_downlevel.obj
 0002:0000c900       ??_C@_15HCNDBBA@?$AAg?$AAu?$AA?$AA@ 0000000180033900     libucrt:lcidtoname_downlevel.obj
 0002:0000c908       ??_C@_15FNBEIBON@?$AAt?$AAa?$AA?$AA@ 0000000180033908     libucrt:lcidtoname_downlevel.obj
 0002:0000c910       ??_C@_15NCHGBGLK@?$AAt?$AAe?$AA?$AA@ 0000000180033910     libucrt:lcidtoname_downlevel.obj
 0002:0000c918       ??_C@_15PHPHCBPF@?$AAk?$AAn?$AA?$AA@ 0000000180033918     libucrt:lcidtoname_downlevel.obj
 0002:0000c920       ??_C@_15DLGBCKMP@?$AAm?$AAr?$AA?$AA@ 0000000180033920     libucrt:lcidtoname_downlevel.obj
 0002:0000c928       ??_C@_15EABBLBFF@?$AAs?$AAa?$AA?$AA@ 0000000180033928     libucrt:lcidtoname_downlevel.obj
 0002:0000c930       ??_C@_15CBKOMCOI@?$AAm?$AAn?$AA?$AA@ 0000000180033930     libucrt:lcidtoname_downlevel.obj
 0002:0000c938       ??_C@_15CKDMCJAF@?$AAg?$AAl?$AA?$AA@ 0000000180033938     libucrt:lcidtoname_downlevel.obj
 0002:0000c940       ??_C@_17CNJFBPG@?$AAk?$AAo?$AAk?$AA?$AA@ 0000000180033940     libucrt:lcidtoname_downlevel.obj
 0002:0000c948       ??_C@_17FFBJICPL@?$AAs?$AAy?$AAr?$AA?$AA@ 0000000180033948     libucrt:lcidtoname_downlevel.obj
 0002:0000c950       ??_C@_17KPNDCPAF@?$AAd?$AAi?$AAv?$AA?$AA@ 0000000180033950     libucrt:lcidtoname_downlevel.obj
 0002:0000c958       ??_C@_11LOCGONAA@?$AA?$AA@ 0000000180033958     libucrt:lcidtoname_downlevel.obj
 0002:0000c960       ??_C@_1M@OKAHONE@?$AAa?$AAr?$AA?9?$AAS?$AAA?$AA?$AA@ 0000000180033960     libucrt:lcidtoname_downlevel.obj
 0002:0000c970       ??_C@_1M@FFFIGIGK@?$AAb?$AAg?$AA?9?$AAB?$AAG?$AA?$AA@ 0000000180033970     libucrt:lcidtoname_downlevel.obj
 0002:0000c980       ??_C@_1M@BJNKEDC@?$AAc?$AAa?$AA?9?$AAE?$AAS?$AA?$AA@ 0000000180033980     libucrt:lcidtoname_downlevel.obj
 0002:0000c990       ??_C@_1M@IJJHFJHA@?$AAc?$AAs?$AA?9?$AAC?$AAZ?$AA?$AA@ 0000000180033990     libucrt:lcidtoname_downlevel.obj
 0002:0000c9a0       ??_C@_1M@CLPEOBGI@?$AAd?$AAa?$AA?9?$AAD?$AAK?$AA?$AA@ 00000001800339a0     libucrt:lcidtoname_downlevel.obj
 0002:0000c9b0       ??_C@_1M@MCMADGCB@?$AAd?$AAe?$AA?9?$AAD?$AAE?$AA?$AA@ 00000001800339b0     libucrt:lcidtoname_downlevel.obj
 0002:0000c9c0       ??_C@_1M@OOCKEMAM@?$AAe?$AAl?$AA?9?$AAG?$AAR?$AA?$AA@ 00000001800339c0     libucrt:lcidtoname_downlevel.obj
 0002:0000c9d0       ??_C@_1M@DDNJFGID@?$AAf?$AAi?$AA?9?$AAF?$AAI?$AA?$AA@ 00000001800339d0     libucrt:lcidtoname_downlevel.obj
 0002:0000c9e0       ??_C@_1M@GLIPPMAC@?$AAf?$AAr?$AA?9?$AAF?$AAR?$AA?$AA@ 00000001800339e0     libucrt:lcidtoname_downlevel.obj
 0002:0000c9f0       ??_C@_1M@GFMCHPE@?$AAh?$AAe?$AA?9?$AAI?$AAL?$AA?$AA@ 00000001800339f0     libucrt:lcidtoname_downlevel.obj
 0002:0000ca00       ??_C@_1M@MHLPGNKM@?$AAh?$AAu?$AA?9?$AAH?$AAU?$AA?$AA@ 0000000180033a00     libucrt:lcidtoname_downlevel.obj
 0002:0000ca10       ??_C@_1M@LPDDNNPN@?$AAi?$AAs?$AA?9?$AAI?$AAS?$AA?$AA@ 0000000180033a10     libucrt:lcidtoname_downlevel.obj
 0002:0000ca20       ??_C@_1M@MADIPODN@?$AAi?$AAt?$AA?9?$AAI?$AAT?$AA?$AA@ 0000000180033a20     libucrt:lcidtoname_downlevel.obj
 0002:0000ca30       ??_C@_1M@IHBJJGG@?$AAn?$AAl?$AA?9?$AAN?$AAL?$AA?$AA@ 0000000180033a30     libucrt:lcidtoname_downlevel.obj
 0002:0000ca40       ??_C@_1M@EANAGDL@?$AAn?$AAb?$AA?9?$AAN?$AAO?$AA?$AA@ 0000000180033a40     libucrt:lcidtoname_downlevel.obj
 0002:0000ca50       ??_C@_1M@NEIEMEGP@?$AAp?$AAl?$AA?9?$AAP?$AAL?$AA?$AA@ 0000000180033a50     libucrt:lcidtoname_downlevel.obj
 0002:0000ca60       ??_C@_1M@BOCFIGEP@?$AAp?$AAt?$AA?9?$AAB?$AAR?$AA?$AA@ 0000000180033a60     libucrt:lcidtoname_downlevel.obj
 0002:0000ca70       ??_C@_1M@IMPFOPBG@?$AAr?$AAo?$AA?9?$AAR?$AAO?$AA?$AA@ 0000000180033a70     libucrt:lcidtoname_downlevel.obj
 0002:0000ca80       ??_C@_1M@IDNNEJMM@?$AAr?$AAu?$AA?9?$AAR?$AAU?$AA?$AA@ 0000000180033a80     libucrt:lcidtoname_downlevel.obj
 0002:0000ca90       ??_C@_1M@LILEEOGM@?$AAh?$AAr?$AA?9?$AAH?$AAR?$AA?$AA@ 0000000180033a90     libucrt:lcidtoname_downlevel.obj
 0002:0000caa0       ??_C@_1M@FKIFEHPB@?$AAs?$AAk?$AA?9?$AAS?$AAK?$AA?$AA@ 0000000180033aa0     libucrt:lcidtoname_downlevel.obj
 0002:0000cab0       ??_C@_1M@LJMAMNPJ@?$AAs?$AAq?$AA?9?$AAA?$AAL?$AA?$AA@ 0000000180033ab0     libucrt:lcidtoname_downlevel.obj
 0002:0000cac0       ??_C@_1M@GIAKDKJK@?$AAs?$AAv?$AA?9?$AAS?$AAE?$AA?$AA@ 0000000180033ac0     libucrt:lcidtoname_downlevel.obj
 0002:0000cad0       ??_C@_1M@MKJKIKCL@?$AAt?$AAh?$AA?9?$AAT?$AAH?$AA?$AA@ 0000000180033ad0     libucrt:lcidtoname_downlevel.obj
 0002:0000cae0       ??_C@_1M@MFLCCMPB@?$AAt?$AAr?$AA?9?$AAT?$AAR?$AA?$AA@ 0000000180033ae0     libucrt:lcidtoname_downlevel.obj
 0002:0000caf0       ??_C@_1M@OIJHDKJN@?$AAu?$AAr?$AA?9?$AAP?$AAK?$AA?$AA@ 0000000180033af0     libucrt:lcidtoname_downlevel.obj
 0002:0000cb00       ??_C@_1M@LHIPCIEK@?$AAi?$AAd?$AA?9?$AAI?$AAD?$AA?$AA@ 0000000180033b00     libucrt:lcidtoname_downlevel.obj
 0002:0000cb10       ??_C@_1M@MFMOBGI@?$AAu?$AAk?$AA?9?$AAU?$AAA?$AA?$AA@ 0000000180033b10     libucrt:lcidtoname_downlevel.obj
 0002:0000cb20       ??_C@_1M@OBGLJIPL@?$AAb?$AAe?$AA?9?$AAB?$AAY?$AA?$AA@ 0000000180033b20     libucrt:lcidtoname_downlevel.obj
 0002:0000cb30       ??_C@_1M@BCFAJEAD@?$AAs?$AAl?$AA?9?$AAS?$AAI?$AA?$AA@ 0000000180033b30     libucrt:lcidtoname_downlevel.obj
 0002:0000cb40       ??_C@_1M@FKFFEDDN@?$AAe?$AAt?$AA?9?$AAE?$AAE?$AA?$AA@ 0000000180033b40     libucrt:lcidtoname_downlevel.obj
 0002:0000cb50       ??_C@_1M@KGKKAACI@?$AAl?$AAv?$AA?9?$AAL?$AAV?$AA?$AA@ 0000000180033b50     libucrt:lcidtoname_downlevel.obj
 0002:0000cb60       ??_C@_1M@IFGBIJO@?$AAl?$AAt?$AA?9?$AAL?$AAT?$AA?$AA@ 0000000180033b60     libucrt:lcidtoname_downlevel.obj
 0002:0000cb70       ??_C@_1M@FGEAHEDM@?$AAf?$AAa?$AA?9?$AAI?$AAR?$AA?$AA@ 0000000180033b70     libucrt:lcidtoname_downlevel.obj
 0002:0000cb80       ??_C@_1M@KBMAIBFN@?$AAv?$AAi?$AA?9?$AAV?$AAN?$AA?$AA@ 0000000180033b80     libucrt:lcidtoname_downlevel.obj
 0002:0000cb90       ??_C@_1M@GPCBKDJK@?$AAh?$AAy?$AA?9?$AAA?$AAM?$AA?$AA@ 0000000180033b90     libucrt:lcidtoname_downlevel.obj
 0002:0000cba0       ??_C@_1BG@BECMDDJB@?$AAa?$AAz?$AA?9?$AAA?$AAZ?$AA?9?$AAL?$AAa?$AAt?$AAn?$AA?$AA@ 0000000180033ba0     libucrt:lcidtoname_downlevel.obj
 0002:0000cbb8       ??_C@_1M@MAOFCAEA@?$AAe?$AAu?$AA?9?$AAE?$AAS?$AA?$AA@ 0000000180033bb8     libucrt:lcidtoname_downlevel.obj
 0002:0000cbc8       ??_C@_1M@IGHABKPI@?$AAm?$AAk?$AA?9?$AAM?$AAK?$AA?$AA@ 0000000180033bc8     libucrt:lcidtoname_downlevel.obj
 0002:0000cbd8       ??_C@_1M@IAIGNEJG@?$AAt?$AAn?$AA?9?$AAZ?$AAA?$AA?$AA@ 0000000180033bd8     libucrt:lcidtoname_downlevel.obj
 0002:0000cbe8       ??_C@_1M@IIJCOJFA@?$AAx?$AAh?$AA?9?$AAZ?$AAA?$AA?$AA@ 0000000180033be8     libucrt:lcidtoname_downlevel.obj
 0002:0000cbf8       ??_C@_1M@LGPJHNJH@?$AAz?$AAu?$AA?9?$AAZ?$AAA?$AA?$AA@ 0000000180033bf8     libucrt:lcidtoname_downlevel.obj
 0002:0000cc08       ??_C@_1M@HOKAOIO@?$AAa?$AAf?$AA?9?$AAZ?$AAA?$AA?$AA@ 0000000180033c08     libucrt:lcidtoname_downlevel.obj
 0002:0000cc18       ??_C@_1M@DPCLHLIE@?$AAk?$AAa?$AA?9?$AAG?$AAE?$AA?$AA@ 0000000180033c18     libucrt:lcidtoname_downlevel.obj
 0002:0000cc28       ??_C@_1M@BLKMHJBI@?$AAf?$AAo?$AA?9?$AAF?$AAO?$AA?$AA@ 0000000180033c28     libucrt:lcidtoname_downlevel.obj
 0002:0000cc38       ??_C@_1M@LGGJAPPB@?$AAh?$AAi?$AA?9?$AAI?$AAN?$AA?$AA@ 0000000180033c38     libucrt:lcidtoname_downlevel.obj
 0002:0000cc48       ??_C@_1M@FIKPIHFE@?$AAm?$AAt?$AA?9?$AAM?$AAT?$AA?$AA@ 0000000180033c48     libucrt:lcidtoname_downlevel.obj
 0002:0000cc58       ??_C@_1M@HEGGPBFA@?$AAs?$AAe?$AA?9?$AAN?$AAO?$AA?$AA@ 0000000180033c58     libucrt:lcidtoname_downlevel.obj
 0002:0000cc68       ??_C@_1M@EIBJEEPA@?$AAm?$AAs?$AA?9?$AAM?$AAY?$AA?$AA@ 0000000180033c68     libucrt:lcidtoname_downlevel.obj
 0002:0000cc78       ??_C@_1M@FHLBGMPP@?$AAk?$AAk?$AA?9?$AAK?$AAZ?$AA?$AA@ 0000000180033c78     libucrt:lcidtoname_downlevel.obj
 0002:0000cc88       ??_C@_1M@NGJJLCGI@?$AAk?$AAy?$AA?9?$AAK?$AAG?$AA?$AA@ 0000000180033c88     libucrt:lcidtoname_downlevel.obj
 0002:0000cc98       ??_C@_1M@GIENNBFC@?$AAs?$AAw?$AA?9?$AAK?$AAE?$AA?$AA@ 0000000180033c98     libucrt:lcidtoname_downlevel.obj
 0002:0000cca8       ??_C@_1BG@NDGMJIMJ@?$AAu?$AAz?$AA?9?$AAU?$AAZ?$AA?9?$AAL?$AAa?$AAt?$AAn?$AA?$AA@ 0000000180033ca8     libucrt:lcidtoname_downlevel.obj
 0002:0000ccc0       ??_C@_1M@IDCCIHBC@?$AAt?$AAt?$AA?9?$AAR?$AAU?$AA?$AA@ 0000000180033cc0     libucrt:lcidtoname_downlevel.obj
 0002:0000ccd0       ??_C@_1M@LOICPMOJ@?$AAb?$AAn?$AA?9?$AAI?$AAN?$AA?$AA@ 0000000180033cd0     libucrt:lcidtoname_downlevel.obj
 0002:0000cce0       ??_C@_1M@KPKKNEAH@?$AAp?$AAa?$AA?9?$AAI?$AAN?$AA?$AA@ 0000000180033ce0     libucrt:lcidtoname_downlevel.obj
 0002:0000ccf0       ??_C@_1M@PJGPPBOG@?$AAg?$AAu?$AA?9?$AAI?$AAN?$AA?$AA@ 0000000180033cf0     libucrt:lcidtoname_downlevel.obj
 0002:0000cd00       ??_C@_1M@KMKMOPHI@?$AAt?$AAa?$AA?9?$AAI?$AAN?$AA?$AA@ 0000000180033d00     libucrt:lcidtoname_downlevel.obj
 0002:0000cd10       ??_C@_1M@KFEHEPAC@?$AAt?$AAe?$AA?9?$AAI?$AAN?$AA?$AA@ 0000000180033d10     libucrt:lcidtoname_downlevel.obj
 0002:0000cd20       ??_C@_1M@CDCLMGHI@?$AAk?$AAn?$AA?9?$AAI?$AAN?$AA?$AA@ 0000000180033d20     libucrt:lcidtoname_downlevel.obj
 0002:0000cd30       ??_C@_1M@MIODLDKF@?$AAm?$AAl?$AA?9?$AAI?$AAN?$AA?$AA@ 0000000180033d30     libucrt:lcidtoname_downlevel.obj
 0002:0000cd40       ??_C@_1M@PBIEACPO@?$AAm?$AAr?$AA?9?$AAI?$AAN?$AA?$AA@ 0000000180033d40     libucrt:lcidtoname_downlevel.obj
 0002:0000cd50       ??_C@_1M@NIDEAGPH@?$AAs?$AAa?$AA?9?$AAI?$AAN?$AA?$AA@ 0000000180033d50     libucrt:lcidtoname_downlevel.obj
 0002:0000cd60       ??_C@_1M@FHIHCBIO@?$AAm?$AAn?$AA?9?$AAM?$AAN?$AA?$AA@ 0000000180033d60     libucrt:lcidtoname_downlevel.obj
 0002:0000cd70       ??_C@_1M@JAIJPENP@?$AAc?$AAy?$AA?9?$AAG?$AAB?$AA?$AA@ 0000000180033d70     libucrt:lcidtoname_downlevel.obj
 0002:0000cd80       ??_C@_1M@PHGFBEPN@?$AAg?$AAl?$AA?9?$AAE?$AAS?$AA?$AA@ 0000000180033d80     libucrt:lcidtoname_downlevel.obj
 0002:0000cd90       ??_C@_1O@KPIPDNCP@?$AAk?$AAo?$AAk?$AA?9?$AAI?$AAN?$AA?$AA@ 0000000180033d90     libucrt:lcidtoname_downlevel.obj
 0002:0000cda0       ??_C@_1O@KNHJLDJA@?$AAs?$AAy?$AAr?$AA?9?$AAS?$AAY?$AA?$AA@ 0000000180033da0     libucrt:lcidtoname_downlevel.obj
 0002:0000cdb0       ??_C@_1O@MKEKBLAH@?$AAd?$AAi?$AAv?$AA?9?$AAM?$AAV?$AA?$AA@ 0000000180033db0     libucrt:lcidtoname_downlevel.obj
 0002:0000cdc0       ??_C@_1O@OHDCKDDF@?$AAq?$AAu?$AAz?$AA?9?$AAB?$AAO?$AA?$AA@ 0000000180033dc0     libucrt:lcidtoname_downlevel.obj
 0002:0000cdd0       ??_C@_1M@LEPJNLFD@?$AAn?$AAs?$AA?9?$AAZ?$AAA?$AA?$AA@ 0000000180033dd0     libucrt:lcidtoname_downlevel.obj
 0002:0000cde0       ??_C@_1M@OMLEIIJB@?$AAm?$AAi?$AA?9?$AAN?$AAZ?$AA?$AA@ 0000000180033de0     libucrt:lcidtoname_downlevel.obj
 0002:0000cdf0       ??_C@_1M@PMPEAILG@?$AAa?$AAr?$AA?9?$AAI?$AAQ?$AA?$AA@ 0000000180033df0     libucrt:lcidtoname_downlevel.obj
 0002:0000ce00       ??_C@_1M@CNKPNOEE@?$AAd?$AAe?$AA?9?$AAC?$AAH?$AA?$AA@ 0000000180033e00     libucrt:lcidtoname_downlevel.obj
 0002:0000ce10       ??_C@_1M@LKMGMLKO@?$AAe?$AAn?$AA?9?$AAG?$AAB?$AA?$AA@ 0000000180033e10     libucrt:lcidtoname_downlevel.obj
 0002:0000ce20       ??_C@_1M@PGKJFFGL@?$AAe?$AAs?$AA?9?$AAM?$AAX?$AA?$AA@ 0000000180033e20     libucrt:lcidtoname_downlevel.obj
 0002:0000ce30       ??_C@_1M@DNNANBDC@?$AAf?$AAr?$AA?9?$AAB?$AAE?$AA?$AA@ 0000000180033e30     libucrt:lcidtoname_downlevel.obj
 0002:0000ce40       ??_C@_1M@HLGMDFHM@?$AAi?$AAt?$AA?9?$AAC?$AAH?$AA?$AA@ 0000000180033e40     libucrt:lcidtoname_downlevel.obj
 0002:0000ce50       ??_C@_1M@CLLBGJH@?$AAn?$AAl?$AA?9?$AAB?$AAE?$AA?$AA@ 0000000180033e50     libucrt:lcidtoname_downlevel.obj
 0002:0000ce60       ??_C@_1M@BODBOGLF@?$AAn?$AAn?$AA?9?$AAN?$AAO?$AA?$AA@ 0000000180033e60     libucrt:lcidtoname_downlevel.obj
 0002:0000ce70       ??_C@_1M@HFFAHKAD@?$AAp?$AAt?$AA?9?$AAP?$AAT?$AA?$AA@ 0000000180033e70     libucrt:lcidtoname_downlevel.obj
 0002:0000ce80       ??_C@_1BG@LNOAKHIE@?$AAs?$AAr?$AA?9?$AAS?$AAP?$AA?9?$AAL?$AAa?$AAt?$AAn?$AA?$AA@ 0000000180033e80     libucrt:lcidtoname_downlevel.obj
 0002:0000ce98       ??_C@_1M@HBMHBGAK@?$AAs?$AAv?$AA?9?$AAF?$AAI?$AA?$AA@ 0000000180033e98     libucrt:lcidtoname_downlevel.obj
 0002:0000cea8       ??_C@_1BG@DGCJGJBE@?$AAa?$AAz?$AA?9?$AAA?$AAZ?$AA?9?$AAC?$AAy?$AAr?$AAl?$AA?$AA@ 0000000180033ea8     libucrt:lcidtoname_downlevel.obj
 0002:0000cec0       ??_C@_1M@KEJDAAHB@?$AAs?$AAe?$AA?9?$AAS?$AAE?$AA?$AA@ 0000000180033ec0     libucrt:lcidtoname_downlevel.obj
 0002:0000ced0       ??_C@_1M@HEIBJJAD@?$AAm?$AAs?$AA?9?$AAB?$AAN?$AA?$AA@ 0000000180033ed0     libucrt:lcidtoname_downlevel.obj
 0002:0000cee0       ??_C@_1BG@PBGJMCEM@?$AAu?$AAz?$AA?9?$AAU?$AAZ?$AA?9?$AAC?$AAy?$AAr?$AAl?$AA?$AA@ 0000000180033ee0     libucrt:lcidtoname_downlevel.obj
 0002:0000cef8       ??_C@_1O@LAOBCMDF@?$AAq?$AAu?$AAz?$AA?9?$AAE?$AAC?$AA?$AA@ 0000000180033ef8     libucrt:lcidtoname_downlevel.obj
 0002:0000cf08       ??_C@_1M@POEEMAIO@?$AAa?$AAr?$AA?9?$AAE?$AAG?$AA?$AA@ 0000000180033f08     libucrt:lcidtoname_downlevel.obj
 0002:0000cf18       ??_C@_1M@EFAKDEDL@?$AAz?$AAh?$AA?9?$AAH?$AAK?$AA?$AA@ 0000000180033f18     libucrt:lcidtoname_downlevel.obj
 0002:0000cf28       ??_C@_1M@HKKIJHGI@?$AAd?$AAe?$AA?9?$AAA?$AAT?$AA?$AA@ 0000000180033f28     libucrt:lcidtoname_downlevel.obj
 0002:0000cf38       ??_C@_1M@KBFBEHJF@?$AAe?$AAn?$AA?9?$AAA?$AAU?$AA?$AA@ 0000000180033f38     libucrt:lcidtoname_downlevel.obj
 0002:0000cf48       ??_C@_1M@MNPLFAAH@?$AAe?$AAs?$AA?9?$AAE?$AAS?$AA?$AA@ 0000000180033f48     libucrt:lcidtoname_downlevel.obj
 0002:0000cf58       ??_C@_1M@HJOOJFMA@?$AAf?$AAr?$AA?9?$AAC?$AAA?$AA?$AA@ 0000000180033f58     libucrt:lcidtoname_downlevel.obj
 0002:0000cf68       ??_C@_1BG@JPOFPNAB@?$AAs?$AAr?$AA?9?$AAS?$AAP?$AA?9?$AAC?$AAy?$AAr?$AAl?$AA?$AA@ 0000000180033f68     libucrt:lcidtoname_downlevel.obj
 0002:0000cf80       ??_C@_1M@LNFOCMOB@?$AAs?$AAe?$AA?9?$AAF?$AAI?$AA?$AA@ 0000000180033f80     libucrt:lcidtoname_downlevel.obj
 0002:0000cf90       ??_C@_1O@MGJBOAMB@?$AAq?$AAu?$AAz?$AA?9?$AAP?$AAE?$AA?$AA@ 0000000180033f90     libucrt:lcidtoname_downlevel.obj
 0002:0000cfa0       ??_C@_1M@GJINLBOK@?$AAa?$AAr?$AA?9?$AAL?$AAY?$AA?$AA@ 0000000180033fa0     libucrt:lcidtoname_downlevel.obj
 0002:0000cfb0       ??_C@_1M@GGMNHJNL@?$AAz?$AAh?$AA?9?$AAS?$AAG?$AA?$AA@ 0000000180033fb0     libucrt:lcidtoname_downlevel.obj
 0002:0000cfc0       ??_C@_1M@HOIKODND@?$AAd?$AAe?$AA?9?$AAL?$AAU?$AA?$AA@ 0000000180033fc0     libucrt:lcidtoname_downlevel.obj
 0002:0000cfd0       ??_C@_1M@DDOCCGFG@?$AAe?$AAn?$AA?9?$AAC?$AAA?$AA?$AA@ 0000000180033fd0     libucrt:lcidtoname_downlevel.obj
 0002:0000cfe0       ??_C@_1M@BNOEMJLF@?$AAe?$AAs?$AA?9?$AAG?$AAT?$AA?$AA@ 0000000180033fe0     libucrt:lcidtoname_downlevel.obj
 0002:0000cff0       ??_C@_1M@EOGNKEK@?$AAf?$AAr?$AA?9?$AAC?$AAH?$AA?$AA@ 0000000180033ff0     libucrt:lcidtoname_downlevel.obj
 0002:0000d000       ??_C@_1M@FLIDJFHL@?$AAh?$AAr?$AA?9?$AAB?$AAA?$AA?$AA@ 0000000180034000     libucrt:lcidtoname_downlevel.obj
 0002:0000d010       ??_C@_1O@FMCELNAJ@?$AAs?$AAm?$AAj?$AA?9?$AAN?$AAO?$AA?$AA@ 0000000180034010     libucrt:lcidtoname_downlevel.obj
 0002:0000d020       ??_C@_1M@JHGLJMGJ@?$AAa?$AAr?$AA?9?$AAD?$AAZ?$AA?$AA@ 0000000180034020     libucrt:lcidtoname_downlevel.obj
 0002:0000d030       ??_C@_1M@JKKFDCNP@?$AAz?$AAh?$AA?9?$AAM?$AAO?$AA?$AA@ 0000000180034030     libucrt:lcidtoname_downlevel.obj
 0002:0000d040       ??_C@_1M@GEEFALPE@?$AAd?$AAe?$AA?9?$AAL?$AAI?$AA?$AA@ 0000000180034040     libucrt:lcidtoname_downlevel.obj
 0002:0000d050       ??_C@_1M@IGEOFBG@?$AAe?$AAn?$AA?9?$AAN?$AAZ?$AA?$AA@ 0000000180034050     libucrt:lcidtoname_downlevel.obj
 0002:0000d060       ??_C@_1M@KDBONEHP@?$AAe?$AAs?$AA?9?$AAC?$AAR?$AA?$AA@ 0000000180034060     libucrt:lcidtoname_downlevel.obj
 0002:0000d070       ??_C@_1M@FHMDOHNN@?$AAf?$AAr?$AA?9?$AAL?$AAU?$AA?$AA@ 0000000180034070     libucrt:lcidtoname_downlevel.obj
 0002:0000d080       ??_C@_1BG@NFKKMAFG@?$AAb?$AAs?$AA?9?$AAB?$AAA?$AA?9?$AAL?$AAa?$AAt?$AAn?$AA?$AA@ 0000000180034080     libucrt:lcidtoname_downlevel.obj
 0002:0000d098       ??_C@_1O@IMNBEMCI@?$AAs?$AAm?$AAj?$AA?9?$AAS?$AAE?$AA?$AA@ 0000000180034098     libucrt:lcidtoname_downlevel.obj
 0002:0000d0a8       ??_C@_1M@DHHMBNDP@?$AAa?$AAr?$AA?9?$AAM?$AAA?$AA?$AA@ 00000001800340a8     libucrt:lcidtoname_downlevel.obj
 0002:0000d0b8       ??_C@_1M@BNBLJCGH@?$AAe?$AAn?$AA?9?$AAI?$AAE?$AA?$AA@ 00000001800340b8     libucrt:lcidtoname_downlevel.obj
 0002:0000d0c8       ??_C@_1M@GEPAFMDL@?$AAe?$AAs?$AA?9?$AAP?$AAA?$AA?$AA@ 00000001800340c8     libucrt:lcidtoname_downlevel.obj
 0002:0000d0d8       ??_C@_1M@OJONDMDL@?$AAf?$AAr?$AA?9?$AAM?$AAC?$AA?$AA@ 00000001800340d8     libucrt:lcidtoname_downlevel.obj
 0002:0000d0e8       ??_C@_1BG@OBCNFJB@?$AAs?$AAr?$AA?9?$AAB?$AAA?$AA?9?$AAL?$AAa?$AAt?$AAn?$AA?$AA@ 00000001800340e8     libucrt:lcidtoname_downlevel.obj
 0002:0000d100       ??_C@_1O@KEMEEGPO@?$AAs?$AAm?$AAa?$AA?9?$AAN?$AAO?$AA?$AA@ 0000000180034100     libucrt:lcidtoname_downlevel.obj
 0002:0000d110       ??_C@_1M@ELMGFODK@?$AAa?$AAr?$AA?9?$AAT?$AAN?$AA?$AA@ 0000000180034110     libucrt:lcidtoname_downlevel.obj
 0002:0000d120       ??_C@_1M@BHDLHFAF@?$AAe?$AAn?$AA?9?$AAZ?$AAA?$AA?$AA@ 0000000180034120     libucrt:lcidtoname_downlevel.obj
 0002:0000d130       ??_C@_1M@BMGIGLIF@?$AAe?$AAs?$AA?9?$AAD?$AAO?$AA?$AA@ 0000000180034130     libucrt:lcidtoname_downlevel.obj
 0002:0000d140       ??_C@_1BG@CMBHIPBE@?$AAs?$AAr?$AA?9?$AAB?$AAA?$AA?9?$AAC?$AAy?$AAr?$AAl?$AA?$AA@ 0000000180034140     libucrt:lcidtoname_downlevel.obj
 0002:0000d158       ??_C@_1O@HEDBLHNP@?$AAs?$AAm?$AAa?$AA?9?$AAS?$AAE?$AA?$AA@ 0000000180034158     libucrt:lcidtoname_downlevel.obj
 0002:0000d168       ??_C@_1M@DAGCADIM@?$AAa?$AAr?$AA?9?$AAO?$AAM?$AA?$AA@ 0000000180034168     libucrt:lcidtoname_downlevel.obj
 0002:0000d178       ??_C@_1M@FODLMICG@?$AAe?$AAn?$AA?9?$AAJ?$AAM?$AA?$AA@ 0000000180034178     libucrt:lcidtoname_downlevel.obj
 0002:0000d188       ??_C@_1M@DNMLCIHB@?$AAe?$AAs?$AA?9?$AAV?$AAE?$AA?$AA@ 0000000180034188     libucrt:lcidtoname_downlevel.obj
 0002:0000d198       ??_C@_1O@EOKHMKJK@?$AAs?$AAm?$AAs?$AA?9?$AAF?$AAI?$AA?$AA@ 0000000180034198     libucrt:lcidtoname_downlevel.obj
 0002:0000d1a8       ??_C@_1M@CAFJMKOF@?$AAa?$AAr?$AA?9?$AAY?$AAE?$AA?$AA@ 00000001800341a8     libucrt:lcidtoname_downlevel.obj
 0002:0000d1b8       ??_C@_1M@CBFHIJLI@?$AAe?$AAn?$AA?9?$AAC?$AAB?$AA?$AA@ 00000001800341b8     libucrt:lcidtoname_downlevel.obj
 0002:0000d1c8       ??_C@_1M@BGNFLDN@?$AAe?$AAs?$AA?9?$AAC?$AAO?$AA?$AA@ 00000001800341c8     libucrt:lcidtoname_downlevel.obj
 0002:0000d1d8       ??_C@_1O@JMPHMAMC@?$AAs?$AAm?$AAn?$AA?9?$AAF?$AAI?$AA?$AA@ 00000001800341d8     libucrt:lcidtoname_downlevel.obj
 0002:0000d1e8       ??_C@_1M@JLANABKE@?$AAa?$AAr?$AA?9?$AAS?$AAY?$AA?$AA@ 00000001800341e8     libucrt:lcidtoname_downlevel.obj
 0002:0000d1f8       ??_C@_1M@HPKGCFGN@?$AAe?$AAn?$AA?9?$AAB?$AAZ?$AA?$AA@ 00000001800341f8     libucrt:lcidtoname_downlevel.obj
 0002:0000d208       ??_C@_1M@OLJCMLGM@?$AAe?$AAs?$AA?9?$AAP?$AAE?$AA?$AA@ 0000000180034208     libucrt:lcidtoname_downlevel.obj
 0002:0000d218       ??_C@_1M@MKKGFKLE@?$AAa?$AAr?$AA?9?$AAJ?$AAO?$AA?$AA@ 0000000180034218     libucrt:lcidtoname_downlevel.obj
 0002:0000d228       ??_C@_1M@EKPGLDNI@?$AAe?$AAn?$AA?9?$AAT?$AAT?$AA?$AA@ 0000000180034228     libucrt:lcidtoname_downlevel.obj
 0002:0000d238       ??_C@_1M@OONGHFHE@?$AAe?$AAs?$AA?9?$AAA?$AAR?$AA?$AA@ 0000000180034238     libucrt:lcidtoname_downlevel.obj
 0002:0000d248       ??_C@_1M@OOJFGBHE@?$AAa?$AAr?$AA?9?$AAL?$AAB?$AA?$AA@ 0000000180034248     libucrt:lcidtoname_downlevel.obj
 0002:0000d258       ??_C@_1M@GCEJHNEG@?$AAe?$AAn?$AA?9?$AAZ?$AAW?$AA?$AA@ 0000000180034258     libucrt:lcidtoname_downlevel.obj
 0002:0000d268       ??_C@_1M@JNOCAHJI@?$AAe?$AAs?$AA?9?$AAE?$AAC?$AA?$AA@ 0000000180034268     libucrt:lcidtoname_downlevel.obj
 0002:0000d278       ??_C@_1M@JEFHPGGB@?$AAa?$AAr?$AA?9?$AAK?$AAW?$AA?$AA@ 0000000180034278     libucrt:lcidtoname_downlevel.obj
 0002:0000d288       ??_C@_1M@MLKIBJOJ@?$AAe?$AAn?$AA?9?$AAP?$AAH?$AA?$AA@ 0000000180034288     libucrt:lcidtoname_downlevel.obj
 0002:0000d298       ??_C@_1M@BDNIPEND@?$AAe?$AAs?$AA?9?$AAC?$AAL?$AA?$AA@ 0000000180034298     libucrt:lcidtoname_downlevel.obj
 0002:0000d2a8       ??_C@_1M@MPNMEKBD@?$AAa?$AAr?$AA?9?$AAA?$AAE?$AA?$AA@ 00000001800342a8     libucrt:lcidtoname_downlevel.obj
 0002:0000d2b8       ??_C@_1M@KBJALCPI@?$AAe?$AAs?$AA?9?$AAU?$AAY?$AA?$AA@ 00000001800342b8     libucrt:lcidtoname_downlevel.obj
 0002:0000d2c8       ??_C@_1M@LLCCOAGA@?$AAa?$AAr?$AA?9?$AAB?$AAH?$AA?$AA@ 00000001800342c8     libucrt:lcidtoname_downlevel.obj
 0002:0000d2d8       ??_C@_1M@PBFNCDEL@?$AAe?$AAs?$AA?9?$AAP?$AAY?$AA?$AA@ 00000001800342d8     libucrt:lcidtoname_downlevel.obj
 0002:0000d2e8       ??_C@_1M@EDGINPNP@?$AAa?$AAr?$AA?9?$AAQ?$AAA?$AA?$AA@ 00000001800342e8     libucrt:lcidtoname_downlevel.obj
 0002:0000d2f8       ??_C@_1M@MKDBIIJI@?$AAe?$AAs?$AA?9?$AAB?$AAO?$AA?$AA@ 00000001800342f8     libucrt:lcidtoname_downlevel.obj
 0002:0000d308       ??_C@_1M@CPKKEBLD@?$AAe?$AAs?$AA?9?$AAS?$AAV?$AA?$AA@ 0000000180034308     libucrt:lcidtoname_downlevel.obj
 0002:0000d318       ??_C@_1M@NDBGMMJL@?$AAe?$AAs?$AA?9?$AAH?$AAN?$AA?$AA@ 0000000180034318     libucrt:lcidtoname_downlevel.obj
 0002:0000d328       ??_C@_1M@JIJIBHDP@?$AAe?$AAs?$AA?9?$AAN?$AAI?$AA?$AA@ 0000000180034328     libucrt:lcidtoname_downlevel.obj
 0002:0000d338       ??_C@_1M@CGFMKEEK@?$AAe?$AAs?$AA?9?$AAP?$AAR?$AA?$AA@ 0000000180034338     libucrt:lcidtoname_downlevel.obj
 0002:0000d348       ??_C@_1O@ICJHKIIK@?$AAz?$AAh?$AA?9?$AAC?$AAH?$AAT?$AA?$AA@ 0000000180034348     libucrt:lcidtoname_downlevel.obj
 0002:0000d358       ??_C@_15CLNEJCE@?$AAs?$AAr?$AA?$AA@ 0000000180034358     libucrt:lcidtoname_downlevel.obj
 0002:0000e1a0       ??_C@_1M@KAHEKEIG@?$AAa?$AAf?$AA?9?$AAz?$AAa?$AA?$AA@ 00000001800351a0     libucrt:lcidtoname_downlevel.obj
 0002:0000e1b0       ??_C@_1M@GIECOABL@?$AAa?$AAr?$AA?9?$AAa?$AAe?$AA?$AA@ 00000001800351b0     libucrt:lcidtoname_downlevel.obj
 0002:0000e1c0       ??_C@_1M@BMLMEKGI@?$AAa?$AAr?$AA?9?$AAb?$AAh?$AA?$AA@ 00000001800351c0     libucrt:lcidtoname_downlevel.obj
 0002:0000e1d0       ??_C@_1M@DAPFDGGB@?$AAa?$AAr?$AA?9?$AAd?$AAz?$AA?$AA@ 00000001800351d0     libucrt:lcidtoname_downlevel.obj
 0002:0000e1e0       ??_C@_1M@FJNKGKIG@?$AAa?$AAr?$AA?9?$AAe?$AAg?$AA?$AA@ 00000001800351e0     libucrt:lcidtoname_downlevel.obj
 0002:0000e1f0       ??_C@_1M@FLGKKCLO@?$AAa?$AAr?$AA?9?$AAi?$AAq?$AA?$AA@ 00000001800351f0     libucrt:lcidtoname_downlevel.obj
 0002:0000e200       ??_C@_1M@GNDIPALM@?$AAa?$AAr?$AA?9?$AAj?$AAo?$AA?$AA@ 0000000180035200     libucrt:lcidtoname_downlevel.obj
 0002:0000e210       ??_C@_1M@DDMJFMGJ@?$AAa?$AAr?$AA?9?$AAk?$AAw?$AA?$AA@ 0000000180035210     libucrt:lcidtoname_downlevel.obj
 0002:0000e220       ??_C@_1M@EJALMLHM@?$AAa?$AAr?$AA?9?$AAl?$AAb?$AA?$AA@ 0000000180035220     libucrt:lcidtoname_downlevel.obj
 0002:0000e230       ??_C@_1M@MOBDBLOC@?$AAa?$AAr?$AA?9?$AAl?$AAy?$AA?$AA@ 0000000180035230     libucrt:lcidtoname_downlevel.obj
 0002:0000e240       ??_C@_1M@JAOCLHDH@?$AAa?$AAr?$AA?9?$AAm?$AAa?$AA?$AA@ 0000000180035240     libucrt:lcidtoname_downlevel.obj
 0002:0000e250       ??_C@_1M@JHPMKJIE@?$AAa?$AAr?$AA?9?$AAo?$AAm?$AA?$AA@ 0000000180035250     libucrt:lcidtoname_downlevel.obj
 0002:0000e260       ??_C@_1M@OEPGHFNH@?$AAa?$AAr?$AA?9?$AAq?$AAa?$AA?$AA@ 0000000180035260     libucrt:lcidtoname_downlevel.obj
 0002:0000e270       ??_C@_1M@KJDONENM@?$AAa?$AAr?$AA?9?$AAs?$AAa?$AA?$AA@ 0000000180035270     libucrt:lcidtoname_downlevel.obj
 0002:0000e280       ??_C@_1M@DMJDKLKM@?$AAa?$AAr?$AA?9?$AAs?$AAy?$AA?$AA@ 0000000180035280     libucrt:lcidtoname_downlevel.obj
 0002:0000e290       ??_C@_1M@OMFIPEDC@?$AAa?$AAr?$AA?9?$AAt?$AAn?$AA?$AA@ 0000000180035290     libucrt:lcidtoname_downlevel.obj
 0002:0000e2a0       ??_C@_1M@IHMHGAON@?$AAa?$AAr?$AA?9?$AAy?$AAe?$AA?$AA@ 00000001800352a0     libucrt:lcidtoname_downlevel.obj
 0002:0000e2b0       ??_C@_1BG@KDCPGJGB@?$AAa?$AAz?$AA?9?$AAa?$AAz?$AA?9?$AAc?$AAy?$AAr?$AAl?$AA?$AA@ 00000001800352b0     libucrt:lcidtoname_downlevel.obj
 0002:0000e2c8       ??_C@_1BG@IBCKDDOE@?$AAa?$AAz?$AA?9?$AAa?$AAz?$AA?9?$AAl?$AAa?$AAt?$AAn?$AA?$AA@ 00000001800352c8     libucrt:lcidtoname_downlevel.obj
 0002:0000e2e0       ??_C@_1M@EGPFDCPD@?$AAb?$AAe?$AA?9?$AAb?$AAy?$AA?$AA@ 00000001800352e0     libucrt:lcidtoname_downlevel.obj
 0002:0000e2f0       ??_C@_1M@PCMGMCGC@?$AAb?$AAg?$AA?9?$AAb?$AAg?$AA?$AA@ 00000001800352f0     libucrt:lcidtoname_downlevel.obj
 0002:0000e300       ??_C@_1M@BJBMFGOB@?$AAb?$AAn?$AA?9?$AAi?$AAn?$AA?$AA@ 0000000180035300     libucrt:lcidtoname_downlevel.obj
 0002:0000e310       ??_C@_1BG@EAKMMACD@?$AAb?$AAs?$AA?9?$AAb?$AAa?$AA?9?$AAl?$AAa?$AAt?$AAn?$AA?$AA@ 0000000180035310     libucrt:lcidtoname_downlevel.obj
 0002:0000e328       ??_C@_1M@KGADAODK@?$AAc?$AAa?$AA?9?$AAe?$AAs?$AA?$AA@ 0000000180035328     libucrt:lcidtoname_downlevel.obj
 0002:0000e338       ??_C@_1M@COAJPDHI@?$AAc?$AAs?$AA?9?$AAc?$AAz?$AA?$AA@ 0000000180035338     libucrt:lcidtoname_downlevel.obj
 0002:0000e348       ??_C@_1M@DHBHFONH@?$AAc?$AAy?$AA?9?$AAg?$AAb?$AA?$AA@ 0000000180035348     libucrt:lcidtoname_downlevel.obj
 0002:0000e358       ??_C@_1M@IMGKELGA@?$AAd?$AAa?$AA?9?$AAd?$AAk?$AA?$AA@ 0000000180035358     libucrt:lcidtoname_downlevel.obj
 0002:0000e368       ??_C@_1M@NNDGDNGA@?$AAd?$AAe?$AA?9?$AAa?$AAt?$AA?$AA@ 0000000180035368     libucrt:lcidtoname_downlevel.obj
 0002:0000e378       ??_C@_1M@IKDBHEEM@?$AAd?$AAe?$AA?9?$AAc?$AAh?$AA?$AA@ 0000000180035378     libucrt:lcidtoname_downlevel.obj
 0002:0000e388       ??_C@_1M@GFFOJMCJ@?$AAd?$AAe?$AA?9?$AAd?$AAe?$AA?$AA@ 0000000180035388     libucrt:lcidtoname_downlevel.obj
 0002:0000e398       ??_C@_1M@MDNLKBPM@?$AAd?$AAe?$AA?9?$AAl?$AAi?$AA?$AA@ 0000000180035398     libucrt:lcidtoname_downlevel.obj
 0002:0000e3a8       ??_C@_1M@NJBEEJNL@?$AAd?$AAe?$AA?9?$AAl?$AAu?$AA?$AA@ 00000001800353a8     libucrt:lcidtoname_downlevel.obj
 0002:0000e3b8       ??_C@_1O@GNNELBAP@?$AAd?$AAi?$AAv?$AA?9?$AAm?$AAv?$AA?$AA@ 00000001800353b8     libucrt:lcidtoname_downlevel.obj
 0002:0000e3c8       ??_C@_1M@EJLEOGAE@?$AAe?$AAl?$AA?9?$AAg?$AAr?$AA?$AA@ 00000001800353c8     libucrt:lcidtoname_downlevel.obj
 0002:0000e3d8       ??_C@_1M@GMPONJN@?$AAe?$AAn?$AA?9?$AAa?$AAu?$AA?$AA@ 00000001800353d8     libucrt:lcidtoname_downlevel.obj
 0002:0000e3e8       ??_C@_1M@NIDIIPGF@?$AAe?$AAn?$AA?9?$AAb?$AAz?$AA?$AA@ 00000001800353e8     libucrt:lcidtoname_downlevel.obj
 0002:0000e3f8       ??_C@_1M@JEHMIMFO@?$AAe?$AAn?$AA?9?$AAc?$AAa?$AA?$AA@ 00000001800353f8     libucrt:lcidtoname_downlevel.obj
 0002:0000e408       ??_C@_1M@IGMJCDLA@?$AAe?$AAn?$AA?9?$AAc?$AAb?$AA?$AA@ 0000000180035408     libucrt:lcidtoname_downlevel.obj
 0002:0000e418       ??_C@_1M@BNFIGBKG@?$AAe?$AAn?$AA?9?$AAg?$AAb?$AA?$AA@ 0000000180035418     libucrt:lcidtoname_downlevel.obj
 0002:0000e428       ??_C@_1M@LKIFDIGP@?$AAe?$AAn?$AA?9?$AAi?$AAe?$AA?$AA@ 0000000180035428     libucrt:lcidtoname_downlevel.obj
 0002:0000e438       ??_C@_1M@PJKFGCCO@?$AAe?$AAn?$AA?9?$AAj?$AAm?$AA?$AA@ 0000000180035438     libucrt:lcidtoname_downlevel.obj
 0002:0000e448       ??_C@_1M@KPPKEPBO@?$AAe?$AAn?$AA?9?$AAn?$AAz?$AA?$AA@ 0000000180035448     libucrt:lcidtoname_downlevel.obj
 0002:0000e458       ??_C@_1M@GMDGLDOB@?$AAe?$AAn?$AA?9?$AAp?$AAh?$AA?$AA@ 0000000180035458     libucrt:lcidtoname_downlevel.obj
 0002:0000e468       ??_C@_1M@ONGIBJNA@?$AAe?$AAn?$AA?9?$AAt?$AAt?$AA?$AA@ 0000000180035468     libucrt:lcidtoname_downlevel.obj
 0002:0000e478       ??_C@_1M@LLODPCMM@?$AAe?$AAn?$AA?9?$AAu?$AAs?$AA?$AA@ 0000000180035478     libucrt:lcidtoname_downlevel.obj
 0002:0000e488       ??_C@_1M@LAKFNPAN@?$AAe?$AAn?$AA?9?$AAz?$AAa?$AA?$AA@ 0000000180035488     libucrt:lcidtoname_downlevel.obj
 0002:0000e498       ??_C@_1M@MFNHNHEO@?$AAe?$AAn?$AA?9?$AAz?$AAw?$AA?$AA@ 0000000180035498     libucrt:lcidtoname_downlevel.obj
 0002:0000e4a8       ??_C@_1M@EJEINPHM@?$AAe?$AAs?$AA?9?$AAa?$AAr?$AA?$AA@ 00000001800354a8     libucrt:lcidtoname_downlevel.obj
 0002:0000e4b8       ??_C@_1M@GNKPCCJA@?$AAe?$AAs?$AA?9?$AAb?$AAo?$AA?$AA@ 00000001800354b8     libucrt:lcidtoname_downlevel.obj
 0002:0000e4c8       ??_C@_1M@LEEGFONL@?$AAe?$AAs?$AA?9?$AAc?$AAl?$AA?$AA@ 00000001800354c8     libucrt:lcidtoname_downlevel.obj
 0002:0000e4d8       ??_C@_1M@KGPDPBDF@?$AAe?$AAs?$AA?9?$AAc?$AAo?$AA?$AA@ 00000001800354d8     libucrt:lcidtoname_downlevel.obj
 0002:0000e4e8       ??_C@_1M@EIAHOHH@?$AAe?$AAs?$AA?9?$AAc?$AAr?$AA?$AA@ 00000001800354e8     libucrt:lcidtoname_downlevel.obj
 0002:0000e4f8       ??_C@_1M@LLPGMBIN@?$AAe?$AAs?$AA?9?$AAd?$AAo?$AA?$AA@ 00000001800354f8     libucrt:lcidtoname_downlevel.obj
 0002:0000e508       ??_C@_1M@DKHMKNJA@?$AAe?$AAs?$AA?9?$AAe?$AAc?$AA?$AA@ 0000000180035508     libucrt:lcidtoname_downlevel.obj
 0002:0000e518       ??_C@_1M@GKGFPKAP@?$AAe?$AAs?$AA?9?$AAe?$AAs?$AA?$AA@ 0000000180035518     libucrt:lcidtoname_downlevel.obj
 0002:0000e528       ??_C@_1M@LKHKGDLN@?$AAe?$AAs?$AA?9?$AAg?$AAt?$AA?$AA@ 0000000180035528     libucrt:lcidtoname_downlevel.obj
 0002:0000e538       ??_C@_1M@HEIIGGJD@?$AAe?$AAs?$AA?9?$AAh?$AAn?$AA?$AA@ 0000000180035538     libucrt:lcidtoname_downlevel.obj
 0002:0000e548       ??_C@_1M@FBDHPPGD@?$AAe?$AAs?$AA?9?$AAm?$AAx?$AA?$AA@ 0000000180035548     libucrt:lcidtoname_downlevel.obj
 0002:0000e558       ??_C@_1M@DPAGLNDH@?$AAe?$AAs?$AA?9?$AAn?$AAi?$AA?$AA@ 0000000180035558     libucrt:lcidtoname_downlevel.obj
 0002:0000e568       ??_C@_1M@MDGOPGDD@?$AAe?$AAs?$AA?9?$AAp?$AAa?$AA?$AA@ 0000000180035568     libucrt:lcidtoname_downlevel.obj
 0002:0000e578       ??_C@_1M@EMAMGBGE@?$AAe?$AAs?$AA?9?$AAp?$AAe?$AA?$AA@ 0000000180035578     libucrt:lcidtoname_downlevel.obj
 0002:0000e588       ??_C@_1M@IBMCAOEC@?$AAe?$AAs?$AA?9?$AAp?$AAr?$AA?$AA@ 0000000180035588     libucrt:lcidtoname_downlevel.obj
 0002:0000e598       ??_C@_1M@FGMDIJED@?$AAe?$AAs?$AA?9?$AAp?$AAy?$AA?$AA@ 0000000180035598     libucrt:lcidtoname_downlevel.obj
 0002:0000e5a8       ??_C@_1M@IIDEOLLL@?$AAe?$AAs?$AA?9?$AAs?$AAv?$AA?$AA@ 00000001800355a8     libucrt:lcidtoname_downlevel.obj
 0002:0000e5b8       ??_C@_1M@GAOBIPA@?$AAe?$AAs?$AA?9?$AAu?$AAy?$AA?$AA@ 00000001800355b8     libucrt:lcidtoname_downlevel.obj
 0002:0000e5c8       ??_C@_1M@JKFFICHJ@?$AAe?$AAs?$AA?9?$AAv?$AAe?$AA?$AA@ 00000001800355c8     libucrt:lcidtoname_downlevel.obj
 0002:0000e5d8       ??_C@_1M@PNMLOJDF@?$AAe?$AAt?$AA?9?$AAe?$AAe?$AA?$AA@ 00000001800355d8     libucrt:lcidtoname_downlevel.obj
 0002:0000e5e8       ??_C@_1M@GHHLIKEI@?$AAe?$AAu?$AA?9?$AAe?$AAs?$AA?$AA@ 00000001800355e8     libucrt:lcidtoname_downlevel.obj
 0002:0000e5f8       ??_C@_1M@PBNONODE@?$AAf?$AAa?$AA?9?$AAi?$AAr?$AA?$AA@ 00000001800355f8     libucrt:lcidtoname_downlevel.obj
 0002:0000e608       ??_C@_1M@JEEHPMIL@?$AAf?$AAi?$AA?9?$AAf?$AAi?$AA?$AA@ 0000000180035608     libucrt:lcidtoname_downlevel.obj
 0002:0000e618       ??_C@_1M@LMDCNDBA@?$AAf?$AAo?$AA?9?$AAf?$AAo?$AA?$AA@ 0000000180035618     libucrt:lcidtoname_downlevel.obj
 0002:0000e628       ??_C@_1M@JKEOHLDK@?$AAf?$AAr?$AA?9?$AAb?$AAe?$AA?$AA@ 0000000180035628     libucrt:lcidtoname_downlevel.obj
 0002:0000e638       ??_C@_1M@NOHADPMI@?$AAf?$AAr?$AA?9?$AAc?$AAa?$AA?$AA@ 0000000180035638     libucrt:lcidtoname_downlevel.obj
 0002:0000e648       ??_C@_1M@KDHIHAEC@?$AAf?$AAr?$AA?9?$AAc?$AAh?$AA?$AA@ 0000000180035648     libucrt:lcidtoname_downlevel.obj
 0002:0000e658       ??_C@_1M@MMBBFGAK@?$AAf?$AAr?$AA?9?$AAf?$AAr?$AA?$AA@ 0000000180035658     libucrt:lcidtoname_downlevel.obj
 0002:0000e668       ??_C@_1M@PAFNENNF@?$AAf?$AAr?$AA?9?$AAl?$AAu?$AA?$AA@ 0000000180035668     libucrt:lcidtoname_downlevel.obj
 0002:0000e678       ??_C@_1M@EOHDJGDD@?$AAf?$AAr?$AA?9?$AAm?$AAc?$AA?$AA@ 0000000180035678     libucrt:lcidtoname_downlevel.obj
 0002:0000e688       ??_C@_1M@FAPLLOPF@?$AAg?$AAl?$AA?9?$AAe?$AAs?$AA?$AA@ 0000000180035688     libucrt:lcidtoname_downlevel.obj
 0002:0000e698       ??_C@_1M@FOPBFLOO@?$AAg?$AAu?$AA?9?$AAi?$AAn?$AA?$AA@ 0000000180035698     libucrt:lcidtoname_downlevel.obj
 0002:0000e6a8       ??_C@_1M@KBMCINPM@?$AAh?$AAe?$AA?9?$AAi?$AAl?$AA?$AA@ 00000001800356a8     libucrt:lcidtoname_downlevel.obj
 0002:0000e6b8       ??_C@_1M@BBPHKFPJ@?$AAh?$AAi?$AA?9?$AAi?$AAn?$AA?$AA@ 00000001800356b8     libucrt:lcidtoname_downlevel.obj
 0002:0000e6c8       ??_C@_1M@PMBNDPHD@?$AAh?$AAr?$AA?9?$AAb?$AAa?$AA?$AA@ 00000001800356c8     libucrt:lcidtoname_downlevel.obj
 0002:0000e6d8       ??_C@_1M@BPCKOEGE@?$AAh?$AAr?$AA?9?$AAh?$AAr?$AA?$AA@ 00000001800356d8     libucrt:lcidtoname_downlevel.obj
 0002:0000e6e8       ??_C@_1M@GACBMHKE@?$AAh?$AAu?$AA?9?$AAh?$AAu?$AA?$AA@ 00000001800356e8     libucrt:lcidtoname_downlevel.obj
 0002:0000e6f8       ??_C@_1M@MILPAJJC@?$AAh?$AAy?$AA?9?$AAa?$AAm?$AA?$AA@ 00000001800356f8     libucrt:lcidtoname_downlevel.obj
 0002:0000e708       ??_C@_1M@BABBICEC@?$AAi?$AAd?$AA?9?$AAi?$AAd?$AA?$AA@ 0000000180035708     libucrt:lcidtoname_downlevel.obj
 0002:0000e718       ??_C@_1M@BIKNHHPF@?$AAi?$AAs?$AA?9?$AAi?$AAs?$AA?$AA@ 0000000180035718     libucrt:lcidtoname_downlevel.obj
 0002:0000e728       ??_C@_1M@NMPCJPHE@?$AAi?$AAt?$AA?9?$AAc?$AAh?$AA?$AA@ 0000000180035728     libucrt:lcidtoname_downlevel.obj
 0002:0000e738       ??_C@_1M@GHKGFEDF@?$AAi?$AAt?$AA?9?$AAi?$AAt?$AA?$AA@ 0000000180035738     libucrt:lcidtoname_downlevel.obj
 0002:0000e748       ??_C@_1M@NIEJCJJA@?$AAj?$AAa?$AA?9?$AAj?$AAp?$AA?$AA@ 0000000180035748     libucrt:lcidtoname_downlevel.obj
 0002:0000e758       ??_C@_1M@JILFNBIM@?$AAk?$AAa?$AA?9?$AAg?$AAe?$AA?$AA@ 0000000180035758     libucrt:lcidtoname_downlevel.obj
 0002:0000e768       ??_C@_1M@PACPMGPH@?$AAk?$AAk?$AA?9?$AAk?$AAz?$AA?$AA@ 0000000180035768     libucrt:lcidtoname_downlevel.obj
 0002:0000e778       ??_C@_1M@IELFGMHA@?$AAk?$AAn?$AA?9?$AAi?$AAn?$AA?$AA@ 0000000180035778     libucrt:lcidtoname_downlevel.obj
 0002:0000e788       ??_C@_1O@IBBJHCH@?$AAk?$AAo?$AAk?$AA?9?$AAi?$AAn?$AA?$AA@ 0000000180035788     libucrt:lcidtoname_downlevel.obj
 0002:0000e798       ??_C@_1M@DMHAEOGC@?$AAk?$AAo?$AA?9?$AAk?$AAr?$AA?$AA@ 0000000180035798     libucrt:lcidtoname_downlevel.obj
 0002:0000e7a8       ??_C@_1M@HBAHBIGA@?$AAk?$AAy?$AA?9?$AAk?$AAg?$AA?$AA@ 00000001800357a8     libucrt:lcidtoname_downlevel.obj
 0002:0000e7b8       ??_C@_1M@KPMILCJG@?$AAl?$AAt?$AA?9?$AAl?$AAt?$AA?$AA@ 00000001800357b8     libucrt:lcidtoname_downlevel.obj
 0002:0000e7c8       ??_C@_1M@BDEKKCA@?$AAl?$AAv?$AA?9?$AAl?$AAv?$AA?$AA@ 00000001800357c8     libucrt:lcidtoname_downlevel.obj
 0002:0000e7d8       ??_C@_1M@ELCKCCJJ@?$AAm?$AAi?$AA?9?$AAn?$AAz?$AA?$AA@ 00000001800357d8     libucrt:lcidtoname_downlevel.obj
 0002:0000e7e8       ??_C@_1M@CBOOLAPA@?$AAm?$AAk?$AA?9?$AAm?$AAk?$AA?$AA@ 00000001800357e8     libucrt:lcidtoname_downlevel.obj
 0002:0000e7f8       ??_C@_1M@GPHNBJKN@?$AAm?$AAl?$AA?9?$AAi?$AAn?$AA?$AA@ 00000001800357f8     libucrt:lcidtoname_downlevel.obj
 0002:0000e808       ??_C@_1M@PABJILIG@?$AAm?$AAn?$AA?9?$AAm?$AAn?$AA?$AA@ 0000000180035808     libucrt:lcidtoname_downlevel.obj
 0002:0000e818       ??_C@_1M@FGBKKIPG@?$AAm?$AAr?$AA?9?$AAi?$AAn?$AA?$AA@ 0000000180035818     libucrt:lcidtoname_downlevel.obj
 0002:0000e828       ??_C@_1M@NDBPDDAL@?$AAm?$AAs?$AA?9?$AAb?$AAn?$AA?$AA@ 0000000180035828     libucrt:lcidtoname_downlevel.obj
 0002:0000e838       ??_C@_1M@OPIHOOPI@?$AAm?$AAs?$AA?9?$AAm?$AAy?$AA?$AA@ 0000000180035838     libucrt:lcidtoname_downlevel.obj
 0002:0000e848       ??_C@_1M@PPDBCNFM@?$AAm?$AAt?$AA?9?$AAm?$AAt?$AA?$AA@ 0000000180035848     libucrt:lcidtoname_downlevel.obj
 0002:0000e858       ??_C@_1M@KDJDKMDD@?$AAn?$AAb?$AA?9?$AAn?$AAo?$AA?$AA@ 0000000180035858     libucrt:lcidtoname_downlevel.obj
 0002:0000e868       ??_C@_1M@KFCFLMJP@?$AAn?$AAl?$AA?9?$AAb?$AAe?$AA?$AA@ 0000000180035868     libucrt:lcidtoname_downlevel.obj
 0002:0000e878       ??_C@_1M@KPOPDDGO@?$AAn?$AAl?$AA?9?$AAn?$AAl?$AA?$AA@ 0000000180035878     libucrt:lcidtoname_downlevel.obj
 0002:0000e888       ??_C@_1M@LJKPEMLN@?$AAn?$AAn?$AA?9?$AAn?$AAo?$AA?$AA@ 0000000180035888     libucrt:lcidtoname_downlevel.obj
 0002:0000e898       ??_C@_1M@BDGHHBFL@?$AAn?$AAs?$AA?9?$AAz?$AAa?$AA?$AA@ 0000000180035898     libucrt:lcidtoname_downlevel.obj
 0002:0000e8a8       ??_C@_1M@IDEHOAP@?$AAp?$AAa?$AA?9?$AAi?$AAn?$AA?$AA@ 00000001800358a8     libucrt:lcidtoname_downlevel.obj
 0002:0000e8b8       ??_C@_1M@HDBKGOGH@?$AAp?$AAl?$AA?9?$AAp?$AAl?$AA?$AA@ 00000001800358b8     libucrt:lcidtoname_downlevel.obj
 0002:0000e8c8       ??_C@_1M@LJLLCMEH@?$AAp?$AAt?$AA?9?$AAb?$AAr?$AA?$AA@ 00000001800358c8     libucrt:lcidtoname_downlevel.obj
 0002:0000e8d8       ??_C@_1M@NCMONAAL@?$AAp?$AAt?$AA?9?$AAp?$AAt?$AA?$AA@ 00000001800358d8     libucrt:lcidtoname_downlevel.obj
 0002:0000e8e8       ??_C@_1O@EAKMAJDN@?$AAq?$AAu?$AAz?$AA?9?$AAb?$AAo?$AA?$AA@ 00000001800358e8     libucrt:lcidtoname_downlevel.obj
 0002:0000e8f8       ??_C@_1O@BHHPIGDN@?$AAq?$AAu?$AAz?$AA?9?$AAe?$AAc?$AA?$AA@ 00000001800358f8     libucrt:lcidtoname_downlevel.obj
 0002:0000e908       ??_C@_1O@GBAPEKMJ@?$AAq?$AAu?$AAz?$AA?9?$AAp?$AAe?$AA?$AA@ 0000000180035908     libucrt:lcidtoname_downlevel.obj
 0002:0000e918       ??_C@_1M@CLGLEFBO@?$AAr?$AAo?$AA?9?$AAr?$AAo?$AA?$AA@ 0000000180035918     libucrt:lcidtoname_downlevel.obj
 0002:0000e928       ??_C@_1M@CEEDODME@?$AAr?$AAu?$AA?9?$AAr?$AAu?$AA?$AA@ 0000000180035928     libucrt:lcidtoname_downlevel.obj
 0002:0000e938       ??_C@_1M@HPKKKMPP@?$AAs?$AAa?$AA?9?$AAi?$AAn?$AA?$AA@ 0000000180035938     libucrt:lcidtoname_downlevel.obj
 0002:0000e948       ??_C@_1M@BKMAIGOJ@?$AAs?$AAe?$AA?9?$AAf?$AAi?$AA?$AA@ 0000000180035948     libucrt:lcidtoname_downlevel.obj
 0002:0000e958       ??_C@_1M@NDPIFLFI@?$AAs?$AAe?$AA?9?$AAn?$AAo?$AA?$AA@ 0000000180035958     libucrt:lcidtoname_downlevel.obj
 0002:0000e968       ??_C@_1M@DANKKHJ@?$AAs?$AAe?$AA?9?$AAs?$AAe?$AA?$AA@ 0000000180035968     libucrt:lcidtoname_downlevel.obj
 0002:0000e978       ??_C@_1M@PNBLONPJ@?$AAs?$AAk?$AA?9?$AAs?$AAk?$AA?$AA@ 0000000180035978     libucrt:lcidtoname_downlevel.obj
 0002:0000e988       ??_C@_1M@LFMODOAL@?$AAs?$AAl?$AA?9?$AAs?$AAi?$AA?$AA@ 0000000180035988     libucrt:lcidtoname_downlevel.obj
 0002:0000e998       ??_C@_1O@DFKOMPG@?$AAs?$AAm?$AAa?$AA?9?$AAn?$AAo?$AA?$AA@ 0000000180035998     libucrt:lcidtoname_downlevel.obj
 0002:0000e9a8       ??_C@_1O@NDKPBNNH@?$AAs?$AAm?$AAa?$AA?9?$AAs?$AAe?$AA?$AA@ 00000001800359a8     libucrt:lcidtoname_downlevel.obj
 0002:0000e9b8       ??_C@_1O@PLLKBHAB@?$AAs?$AAm?$AAj?$AA?9?$AAn?$AAo?$AA?$AA@ 00000001800359b8     libucrt:lcidtoname_downlevel.obj
 0002:0000e9c8       ??_C@_1O@CLEPOGCA@?$AAs?$AAm?$AAj?$AA?9?$AAs?$AAe?$AA?$AA@ 00000001800359c8     libucrt:lcidtoname_downlevel.obj
 0002:0000e9d8       ??_C@_1O@DLGJGKMK@?$AAs?$AAm?$AAn?$AA?9?$AAf?$AAi?$AA?$AA@ 00000001800359d8     libucrt:lcidtoname_downlevel.obj
 0002:0000e9e8       ??_C@_1O@OJDJGAJC@?$AAs?$AAm?$AAs?$AA?9?$AAf?$AAi?$AA?$AA@ 00000001800359e8     libucrt:lcidtoname_downlevel.obj
 0002:0000e9f8       ??_C@_1M@BOFOGHPB@?$AAs?$AAq?$AA?9?$AAa?$AAl?$AA?$AA@ 00000001800359f8     libucrt:lcidtoname_downlevel.obj
 0002:0000ea08       ??_C@_1BG@LJBBIPGB@?$AAs?$AAr?$AA?9?$AAb?$AAa?$AA?9?$AAc?$AAy?$AAr?$AAl?$AA?$AA@ 0000000180035a08     libucrt:lcidtoname_downlevel.obj
 0002:0000ea20       ??_C@_1BG@JLBENFOE@?$AAs?$AAr?$AA?9?$AAb?$AAa?$AA?9?$AAl?$AAa?$AAt?$AAn?$AA?$AA@ 0000000180035a20     libucrt:lcidtoname_downlevel.obj
 0002:0000ea38       ??_C@_1BG@KODPNHE@?$AAs?$AAr?$AA?9?$AAs?$AAp?$AA?9?$AAc?$AAy?$AAr?$AAl?$AA?$AA@ 0000000180035a38     libucrt:lcidtoname_downlevel.obj
 0002:0000ea50       ??_C@_1BG@CIOGKHPB@?$AAs?$AAr?$AA?9?$AAs?$AAp?$AA?9?$AAl?$AAa?$AAt?$AAn?$AA?$AA@ 0000000180035a50     libucrt:lcidtoname_downlevel.obj
 0002:0000ea68       ??_C@_1M@NGFJLMAC@?$AAs?$AAv?$AA?9?$AAf?$AAi?$AA?$AA@ 0000000180035a68     libucrt:lcidtoname_downlevel.obj
 0002:0000ea78       ??_C@_1M@MPJEJAJC@?$AAs?$AAv?$AA?9?$AAs?$AAe?$AA?$AA@ 0000000180035a78     libucrt:lcidtoname_downlevel.obj
 0002:0000ea88       ??_C@_1M@MPNDHLFK@?$AAs?$AAw?$AA?9?$AAk?$AAe?$AA?$AA@ 0000000180035a88     libucrt:lcidtoname_downlevel.obj
 0002:0000ea98       ??_C@_1O@KOHBJJI@?$AAs?$AAy?$AAr?$AA?9?$AAs?$AAy?$AA?$AA@ 0000000180035a98     libucrt:lcidtoname_downlevel.obj
 0002:0000eaa8       ??_C@_1M@LDCEFHA@?$AAt?$AAa?$AA?9?$AAi?$AAn?$AA?$AA@ 0000000180035aa8     libucrt:lcidtoname_downlevel.obj
 0002:0000eab8       ??_C@_1M@CNJOFAK@?$AAt?$AAe?$AA?9?$AAi?$AAn?$AA?$AA@ 0000000180035ab8     libucrt:lcidtoname_downlevel.obj
 0002:0000eac8       ??_C@_1M@GNAECACD@?$AAt?$AAh?$AA?9?$AAt?$AAh?$AA?$AA@ 0000000180035ac8     libucrt:lcidtoname_downlevel.obj
 0002:0000ead8       ??_C@_1M@CHBIHOJO@?$AAt?$AAn?$AA?9?$AAz?$AAa?$AA?$AA@ 0000000180035ad8     libucrt:lcidtoname_downlevel.obj
 0002:0000eae8       ??_C@_1M@GCCMIGPJ@?$AAt?$AAr?$AA?9?$AAt?$AAr?$AA?$AA@ 0000000180035ae8     libucrt:lcidtoname_downlevel.obj
 0002:0000eaf8       ??_C@_1M@CELMCNBK@?$AAt?$AAt?$AA?9?$AAr?$AAu?$AA?$AA@ 0000000180035af8     libucrt:lcidtoname_downlevel.obj
 0002:0000eb08       ??_C@_1M@KLMCELGA@?$AAu?$AAk?$AA?9?$AAu?$AAa?$AA?$AA@ 0000000180035b08     libucrt:lcidtoname_downlevel.obj
 0002:0000eb18       ??_C@_1M@EPAJJAJF@?$AAu?$AAr?$AA?9?$AAp?$AAk?$AA?$AA@ 0000000180035b18     libucrt:lcidtoname_downlevel.obj
 0002:0000eb28       ??_C@_1BG@GEGPMCDJ@?$AAu?$AAz?$AA?9?$AAu?$AAz?$AA?9?$AAc?$AAy?$AAr?$AAl?$AA?$AA@ 0000000180035b28     libucrt:lcidtoname_downlevel.obj
 0002:0000eb40       ??_C@_1BG@EGGKJILM@?$AAu?$AAz?$AA?9?$AAu?$AAz?$AA?9?$AAl?$AAa?$AAt?$AAn?$AA?$AA@ 0000000180035b40     libucrt:lcidtoname_downlevel.obj
 0002:0000eb58       ??_C@_1M@GFOCLFF@?$AAv?$AAi?$AA?9?$AAv?$AAn?$AA?$AA@ 0000000180035b58     libucrt:lcidtoname_downlevel.obj
 0002:0000eb68       ??_C@_1M@CPAMEDFI@?$AAx?$AAh?$AA?9?$AAz?$AAa?$AA?$AA@ 0000000180035b68     libucrt:lcidtoname_downlevel.obj
 0002:0000eb78       ??_C@_1O@EBKIFIGN@?$AAz?$AAh?$AA?9?$AAc?$AAh?$AAs?$AA?$AA@ 0000000180035b78     libucrt:lcidtoname_downlevel.obj
 0002:0000eb88       ??_C@_1O@NMHPGANE@?$AAz?$AAh?$AA?9?$AAc?$AAh?$AAt?$AA?$AA@ 0000000180035b88     libucrt:lcidtoname_downlevel.obj
 0002:0000eb98       ??_C@_1M@LPINJOMC@?$AAz?$AAh?$AA?9?$AAc?$AAn?$AA?$AA@ 0000000180035b98     libucrt:lcidtoname_downlevel.obj
 0002:0000eba8       ??_C@_1M@OCJEJODD@?$AAz?$AAh?$AA?9?$AAh?$AAk?$AA?$AA@ 0000000180035ba8     libucrt:lcidtoname_downlevel.obj
 0002:0000ebb8       ??_C@_1M@DNDLJINH@?$AAz?$AAh?$AA?9?$AAm?$AAo?$AA?$AA@ 0000000180035bb8     libucrt:lcidtoname_downlevel.obj
 0002:0000ebc8       ??_C@_1M@MBFDNDND@?$AAz?$AAh?$AA?9?$AAs?$AAg?$AA?$AA@ 0000000180035bc8     libucrt:lcidtoname_downlevel.obj
 0002:0000ebd8       ??_C@_1M@IMEPLEPE@?$AAz?$AAh?$AA?9?$AAt?$AAw?$AA?$AA@ 0000000180035bd8     libucrt:lcidtoname_downlevel.obj
 0002:0000ebe8       ??_C@_1M@BBGHNHJP@?$AAz?$AAu?$AA?9?$AAz?$AAa?$AA?$AA@ 0000000180035be8     libucrt:lcidtoname_downlevel.obj
 0002:0000ebf4       ??_C@_00CNPNBAHC@?$AA@     0000000180035bf4     libucrt:mbrtowc.obj
 0002:0000ebf8       ??_C@_01GBGANLPD@0?$AA@    0000000180035bf8     libucrt:cfout.obj
 0002:0000ebfc       ??_C@_05DNEBIAHO@1?$CDINF?$AA@ 0000000180035bfc     libucrt:cfout.obj
 0002:0000ec04       ??_C@_06IMKFLFPG@1?$CDQNAN?$AA@ 0000000180035c04     libucrt:cfout.obj
 0002:0000ec0c       ??_C@_06PGGFOGJG@1?$CDSNAN?$AA@ 0000000180035c0c     libucrt:cfout.obj
 0002:0000ec14       ??_C@_05PHHOCPM@1?$CDIND?$AA@ 0000000180035c14     libucrt:cfout.obj
 0002:0000ec30       ??_C@_1BA@BALFACEM@?$AAC?$AAO?$AAN?$AAO?$AAU?$AAT?$AA$?$AA?$AA@ 0000000180035c30     libucrt:initcon.obj
 0002:0000ee90       __log10_256_lead           0000000180035e90     libucrt:log10_256_lead_tail_table.obj
 0002:0000f6a0       __log10_256_tail           00000001800366a0     libucrt:log10_256_lead_tail_table.obj
 0002:0000fea8       ??_C@_1BK@DBDEIDLH@?$AAK?$AAE?$AAR?$AAN?$AAE?$AAL?$AA3?$AA2?$AA?4?$AAD?$AAL?$AAL@ 0000000180036ea8     DelayImp:delayhlp.obj
 0002:0000fec8       __pfnDliFailureHook2       0000000180036ec8     DelayImp:delayhk1.obj
 0002:0000fed0       _load_config_used          0000000180036ed0     LIBCMT:loadcfg.obj
 0002:0000ffd0       ??_C@_0BD@OLBABOEK@vector?$DMT?$DO?5too?5long@ 0000000180036fd0     font.obj
 0002:0000ffe8       ??_C@_0BE@JONHPENG@map?1set?$DMT?$DO?5too?5long@ 0000000180036fe8     font.obj
 0002:00010010       ?kKnownTags@woff2@@3QBIB   0000000180037010     table_tags.obj
 0002:00032d60       kStaticDictionaryHash      0000000180059d60     dictionary_hash.obj
 0002:00044828       __pfnDliNotifyHook2        000000018006b828     win_delay_load_hook.obj
 0002:00044830       ??_C@_1JC@PNJPANI@?$AAe?$AA?3?$AA?2?$AAd?$AAe?$AAv?$AA?2?$AA2?$AA0?$AA2?$AA0?$AA?2?$AAa?$AAd?$AAo@ 000000018006b830     woff2_dec.obj
 0002:000448c8       ??_C@_1DI@JFIBLDIH@?$AAx?$AA_?$AAm?$AAi?$AAn?$AAs?$AA?4?$AAs?$AAi?$AAz?$AAe?$AA?$CI?$AA?$CJ?$AA?5?$AA?$DN@ 000000018006b8c8     woff2_dec.obj
 0002:00044900       ??_7WOFF2Out@woff2@@6B@    000000018006b900     woff2_dec.obj
 0002:00044920       ??_C@_00CNPNBAHC@@         000000018006b920     woff2_enc.obj
 0002:00044928       ??_7WOFF2MemoryOut@woff2@@6B@ 000000018006b928     woff2_out.obj
 0002:00044950       ??_C@_1GM@MMIEALKJ@?$AAe?$AA?3?$AA?2?$AAd?$AAe?$AAv?$AA?2?$AA2?$AA0?$AA2?$AA0?$AA?2?$AAa?$AAd?$AAo@ 000000018006b950     woff2_decode.obj
 0002:000449c0       ??_C@_1FM@LOELJOFK@?$AAs?$AAi?$AAz?$AAe?$AA?5?$AA?$DM?$AA?$DN?$AA?5?$AAi?$AAm?$AAp?$AA?3?$AA?3?$AAk?$AAM@ 000000018006b9c0     woff2_decode.obj
 0002:00044a20       ??_C@_0CD@CAMNANJL@First?5argument?5should?5be?5a?5Buff@ 000000018006ba20     woff2_decode.obj
 0002:00044a48       ??_C@_0CC@NHECKMAN@Could?5not?5convert?5the?5given?5fon@ 000000018006ba48     woff2_decode.obj
 0002:00044a6c       ??_C@_06KPNAMAEI@decode@   000000018006ba6c     woff2_decode.obj
 0002:00044a80       ??_C@_0EG@BANLMGIC@e?3?2dev?22020?2adobe?9font?9scraper?2@ 000000018006ba80     woff2_decode.obj
 0002:00044ac8       ??_C@_0N@EINAPBGD@woff2_decode@ 000000018006bac8     woff2_decode.obj
 0002:00044ad8       ??_C@_08HCOMDCCD@iojs?4exe@ 000000018006bad8     win_delay_load_hook.obj
 0002:00044ae8       ??_C@_08JDDNMFDB@node?4exe@ 000000018006bae8     win_delay_load_hook.obj
 0002:00044af4       __real@42c80000            000000018006baf4     woff2_dec.obj
 0002:00044af8       __real@5f800000            000000018006baf8     woff2_dec.obj
 0002:00044b70       ??_R4exception@std@@6B@    000000018006bb70     libcpmt:xthrow.obj
 0002:00044b98       ??_R3exception@std@@8      000000018006bb98     libcpmt:xthrow.obj
 0002:00044bb0       ??_R2exception@std@@8      000000018006bbb0     libcpmt:xthrow.obj
 0002:00044bc0       ??_R1A@?0A@EA@exception@std@@8 000000018006bbc0     libcpmt:xthrow.obj
 0002:00044be8       ??_R4bad_alloc@std@@6B@    000000018006bbe8     libcpmt:xthrow.obj
 0002:00044c10       ??_R3bad_alloc@std@@8      000000018006bc10     libcpmt:xthrow.obj
 0002:00044c28       ??_R2bad_alloc@std@@8      000000018006bc28     libcpmt:xthrow.obj
 0002:00044c40       ??_R1A@?0A@EA@bad_alloc@std@@8 000000018006bc40     libcpmt:xthrow.obj
 0002:00044c68       ??_R4logic_error@std@@6B@  000000018006bc68     libcpmt:xthrow.obj
 0002:00044c90       ??_R3logic_error@std@@8    000000018006bc90     libcpmt:xthrow.obj
 0002:00044ca8       ??_R2logic_error@std@@8    000000018006bca8     libcpmt:xthrow.obj
 0002:00044cc0       ??_R1A@?0A@EA@logic_error@std@@8 000000018006bcc0     libcpmt:xthrow.obj
 0002:00044ce8       ??_R4length_error@std@@6B@ 000000018006bce8     libcpmt:xthrow.obj
 0002:00044d10       ??_R3length_error@std@@8   000000018006bd10     libcpmt:xthrow.obj
 0002:00044d28       ??_R2length_error@std@@8   000000018006bd28     libcpmt:xthrow.obj
 0002:00044d48       ??_R1A@?0A@EA@length_error@std@@8 000000018006bd48     libcpmt:xthrow.obj
 0002:00044d70       ??_R4type_info@@6B@        000000018006bd70     LIBCMT:std_type_info_static.obj
 0002:00044d98       ??_R3type_info@@8          000000018006bd98     LIBCMT:std_type_info_static.obj
 0002:00044db0       ??_R2type_info@@8          000000018006bdb0     LIBCMT:std_type_info_static.obj
 0002:00044dc0       ??_R1A@?0A@EA@type_info@@8 000000018006bdc0     LIBCMT:std_type_info_static.obj
 0002:00044de8       ??_R4bad_array_new_length@std@@6B@ 000000018006bde8     LIBCMT:throw_bad_alloc.obj
 0002:00044e10       ??_R3bad_array_new_length@std@@8 000000018006be10     LIBCMT:throw_bad_alloc.obj
 0002:00044e28       ??_R2bad_array_new_length@std@@8 000000018006be28     LIBCMT:throw_bad_alloc.obj
 0002:00044e48       ??_R1A@?0A@EA@bad_array_new_length@std@@8 000000018006be48     LIBCMT:throw_bad_alloc.obj
 0002:00044e70       ??_R4bad_exception@std@@6B@ 000000018006be70     libvcruntime:frame.obj
 0002:00044e98       ??_R3bad_exception@std@@8  000000018006be98     libvcruntime:frame.obj
 0002:00044eb0       ??_R2bad_exception@std@@8  000000018006beb0     libvcruntime:frame.obj
 0002:00044ec8       ??_R1A@?0A@EA@bad_exception@std@@8 000000018006bec8     libvcruntime:frame.obj
 0002:00045300       __rtc_iaa                  000000018006c300     LIBCMT:initsect.obj
 0002:00045308       __rtc_izz                  000000018006c308     LIBCMT:initsect.obj
 0002:00045310       __rtc_taa                  000000018006c310     LIBCMT:initsect.obj
 0002:00045318       __rtc_tzz                  000000018006c318     LIBCMT:initsect.obj
 0002:00046d58       _TI2?AVbad_alloc@std@@     000000018006dd58     libcpmt:xthrow.obj
 0002:00046d78       _CTA2?AVbad_alloc@std@@    000000018006dd78     libcpmt:xthrow.obj
 0002:00046d90       _CT??_R0?AVbad_alloc@std@@@8??0bad_alloc@std@@QEAA@AEBV01@@Z24 000000018006dd90     libcpmt:xthrow.obj
 0002:00046db8       _CT??_R0?AVexception@std@@@8??0exception@std@@QEAA@AEBV01@@Z24 000000018006ddb8     libcpmt:xthrow.obj
 0002:00046de0       _CT??_R0?AVlogic_error@std@@@8??0logic_error@std@@QEAA@AEBV01@@Z24 000000018006dde0     libcpmt:xthrow.obj
 0002:00046e08       _TI3?AVlength_error@std@@  000000018006de08     libcpmt:xthrow.obj
 0002:00046e28       _CTA3?AVlength_error@std@@ 000000018006de28     libcpmt:xthrow.obj
 0002:00046e48       _CT??_R0?AVlength_error@std@@@8??0length_error@std@@QEAA@AEBV01@@Z24 000000018006de48     libcpmt:xthrow.obj
 0002:00046e70       _TI3?AVbad_array_new_length@std@@ 000000018006de70     LIBCMT:throw_bad_alloc.obj
 0002:00046e90       _CTA3?AVbad_array_new_length@std@@ 000000018006de90     LIBCMT:throw_bad_alloc.obj
 0002:00046eb0       _CT??_R0?AVbad_array_new_length@std@@@8??0bad_array_new_length@std@@QEAA@AEBV01@@Z24 000000018006deb0     LIBCMT:throw_bad_alloc.obj
 0002:00046ed8       _TI2?AVbad_exception@std@@ 000000018006ded8     libvcruntime:frame.obj
 0002:00046ef8       _CTA2?AVbad_exception@std@@ 000000018006def8     libvcruntime:frame.obj
 0002:00046f10       _CT??_R0?AVbad_exception@std@@@8??0bad_exception@std@@QEAA@AEBV01@@Z24 000000018006df10     libvcruntime:frame.obj
 0002:00046f34       __DELAY_IMPORT_DESCRIPTOR_node_exe 000000018006df34     node:node.exe
 0002:00046f54       __NULL_DELAY_IMPORT_DESCRIPTOR 000000018006df54     node:node.exe
 0002:00047058       \177node_NULL_THUNK_DATA_DLN 000000018006e058     node:node.exe
 0002:00047840       \177node_NULL_THUNK_DATA_DLB 000000018006e840     node:node.exe
 0002:0004797c       __IMPORT_DESCRIPTOR_KERNEL32 000000018006e97c     kernel32:KERNEL32.dll
 0002:00047990       __NULL_IMPORT_DESCRIPTOR   000000018006e990     kernel32:KERNEL32.dll
 0003:00000004       ?_Sync@ios_base@std@@0_NA  0000000180070004     libcpmt:ios.obj
 0003:00000010       ?_PJP_CPP_Copyright@@3PADA 0000000180070010     libcpmt:iosptrs.obj
 0003:00000070       __scrt_native_dllmain_reason 0000000180070070     LIBCMT:utility.obj
 0003:00000078       __security_cookie_complement 0000000180070078     LIBCMT:gs_cookie.obj
 0003:00000080       __security_cookie          0000000180070080     LIBCMT:gs_cookie.obj
 0003:00000088       _fltused                   0000000180070088     LIBCMT:fltused.obj
 0003:00000090       __isa_available            0000000180070090     LIBCMT:cpu_disp.obj
 0003:00000094       __isa_enabled              0000000180070094     LIBCMT:cpu_disp.obj
 0003:00000098       __memcpy_nt_iters          0000000180070098     LIBCMT:cpu_disp.obj
 0003:000000b0       __abort_behavior           00000001800700b0     libucrt:abort.obj
 0003:000000c0       _iob                       00000001800700c0     libucrt:_file.obj
 0003:000001c8       _pwctype                   00000001800701c8     libucrt:ctype.obj
 0003:000001e0       __acrt_lconv_c             00000001800701e0     libucrt:localeconv.obj
 0003:00000278       __acrt_lconv_static_decimal 0000000180070278     libucrt:localeconv.obj
 0003:0000027c       __acrt_lconv_static_W_decimal 000000018007027c     libucrt:localeconv.obj
 0003:00000290       __badioinfo                0000000180070290     libucrt:ioinit.obj
 0003:000002e0       __acrt_initial_locale_data 00000001800702e0     libucrt:nlsdata.obj
 0003:00000438       __acrt_initial_locale_pointers 0000000180070438     libucrt:nlsdata.obj
 0003:00000448       __acrt_wide_c_locale_string 0000000180070448     libucrt:nlsdata.obj
 0003:00000450       _lookuptrailbytes          0000000180070450     libucrt:read.obj
 0003:00000550       __globallocalestatus       0000000180070550     libucrt:glstatus.obj
 0003:00000900       __acrt_initial_multibyte_data 0000000180070900     libucrt:mbctype.obj
 0003:00000c30       ??_R0?AVbad_alloc@std@@@8  0000000180070c30     libcpmt:xthrow.obj
 0003:00000c58       ??_R0?AVexception@std@@@8  0000000180070c58     libcpmt:xthrow.obj
 0003:00000c80       ??_R0?AVlogic_error@std@@@8 0000000180070c80     libcpmt:xthrow.obj
 0003:00000ca8       ??_R0?AVlength_error@std@@@8 0000000180070ca8     libcpmt:xthrow.obj
 0003:00000cd0       ??_R0?AVtype_info@@@8      0000000180070cd0     LIBCMT:std_type_info_static.obj
 0003:00000cf0       ??_R0?AVbad_array_new_length@std@@@8 0000000180070cf0     LIBCMT:throw_bad_alloc.obj
 0003:00000d20       ??_R0?AVbad_exception@std@@@8 0000000180070d20     libvcruntime:frame.obj
 0003:00000d48       __imp_?Value@External@v8@@QEBAPEAXXZ 0000000180070d48     node:node.exe
 0003:00000d50       __imp_?New@External@v8@@SA?AV?$Local@VExternal@v8@@@2@PEAVIsolate@2@PEAX@Z 0000000180070d50     node:node.exe
 0003:00000d58       __imp_?ThrowException@Isolate@v8@@QEAA?AV?$Local@VValue@v8@@@2@V32@@Z 0000000180070d58     node:node.exe
 0003:00000d60       __imp_?GetCurrentContext@Isolate@v8@@QEAA?AV?$Local@VContext@v8@@@2@XZ 0000000180070d60     node:node.exe
 0003:00000d68       __imp_?GetCurrent@Isolate@v8@@SAPEAV12@XZ 0000000180070d68     node:node.exe
 0003:00000d70       __imp_?CreateHandle@HandleScope@v8@@CAPEAPEAVObject@internal@2@PEAVHeapObject@42@PEAV342@@Z 0000000180070d70     node:node.exe
 0003:00000d78       __imp_??1HandleScope@v8@@QEAA@XZ 0000000180070d78     node:node.exe
 0003:00000d80       __imp_??0HandleScope@v8@@QEAA@PEAVIsolate@1@@Z 0000000180070d80     node:node.exe
 0003:00000d88       __imp_?Error@Exception@v8@@SA?AV?$Local@VValue@v8@@@2@V?$Local@VString@v8@@@2@@Z 0000000180070d88     node:node.exe
 0003:00000d90       __imp_?TypeError@Exception@v8@@SA?AV?$Local@VValue@v8@@@2@V?$Local@VString@v8@@@2@@Z 0000000180070d90     node:node.exe
 0003:00000d98       __imp_?GetFunction@FunctionTemplate@v8@@QEAA?AV?$MaybeLocal@VFunction@v8@@@2@V?$Local@VContext@v8@@@2@@Z 0000000180070d98     node:node.exe
 0003:00000da0       __imp_?New@FunctionTemplate@v8@@SA?AV?$Local@VFunctionTemplate@v8@@@2@PEAVIsolate@2@P6AXAEBV?$FunctionCallbackInfo@VValue@v8@@@2@@ZV?$Local@VValue@v8@@@2@V?$Local@VSignature@v8@@@2@HW4ConstructorBehavior@2@W4SideEffectType@2@@Z 0000000180070da0     node:node.exe
 0003:00000da8       __imp_?ToLocalEmpty@V8@v8@@CAXXZ 0000000180070da8     node:node.exe
 0003:00000db0       __imp_?Escape@EscapableHandleScope@v8@@AEAAPEAPEAVObject@internal@2@PEAPEAV342@@Z 0000000180070db0     node:node.exe
 0003:00000db8       __imp_??0EscapableHandleScope@v8@@QEAA@PEAVIsolate@1@@Z 0000000180070db8     node:node.exe
 0003:00000dc0       __imp_?NewFromUtf8@String@v8@@SA?AV?$MaybeLocal@VString@v8@@@2@PEAVIsolate@2@PEBDW4NewStringType@2@H@Z 0000000180070dc0     node:node.exe
 0003:00000dc8       __imp_?SlowGetInternalField@Object@v8@@AEAA?AV?$Local@VValue@v8@@@2@H@Z 0000000180070dc8     node:node.exe
 0003:00000dd0       __imp_?SetInternalField@Object@v8@@QEAAXHV?$Local@VValue@v8@@@2@@Z 0000000180070dd0     node:node.exe
 0003:00000dd8       __imp_?Set@Object@v8@@QEAA?AV?$Maybe@_N@2@V?$Local@VContext@v8@@@2@V?$Local@VValue@v8@@@2@1@Z 0000000180070dd8     node:node.exe
 0003:00000de0       __imp_?SetInternalFieldCount@ObjectTemplate@v8@@QEAAXH@Z 0000000180070de0     node:node.exe
 0003:00000de8       __imp_?NewInstance@ObjectTemplate@v8@@QEAA?AV?$MaybeLocal@VObject@v8@@@2@V?$Local@VContext@v8@@@2@@Z 0000000180070de8     node:node.exe
 0003:00000df0       __imp_?New@ObjectTemplate@v8@@SA?AV?$Local@VObjectTemplate@v8@@@2@PEAVIsolate@2@V?$Local@VFunctionTemplate@v8@@@2@@Z 0000000180070df0     node:node.exe
 0003:00000df8       __imp_node_module_register 0000000180070df8     node:node.exe
 0003:00000e00       __imp_?HasInstance@Buffer@node@@YA_NV?$Local@VObject@v8@@@v8@@@Z 0000000180070e00     node:node.exe
 0003:00000e08       __imp_?New@Buffer@node@@YA?AV?$MaybeLocal@VObject@v8@@@v8@@PEAVIsolate@4@PEAD_K@Z 0000000180070e08     node:node.exe
 0003:00000e10       __imp_?Data@Buffer@node@@YAPEADV?$Local@VObject@v8@@@v8@@@Z 0000000180070e10     node:node.exe
 0003:00000e18       __imp_?Length@Buffer@node@@YA_KV?$Local@VObject@v8@@@v8@@@Z 0000000180070e18     node:node.exe
 0003:00000e20       __imp_?ToObject@Value@v8@@QEBA?AV?$Local@VObject@v8@@@2@XZ 0000000180070e20     node:node.exe
 0003:00000e28       \177node_NULL_THUNK_DATA_DLA 0000000180070e28     node:node.exe
 0003:00000e30       __hmod__node_exe           0000000180070e30     node:node.exe
 0003:00000f90       ?_Id_cnt@id@locale@std@@0HA 0000000180070f90     libcpmt:locale0.obj
 0003:00000f98       ?_Clocptr@_Locimp@locale@std@@0PEAV123@EA 0000000180070f98     libcpmt:locale0.obj
 0003:00000fa0       ?id@?$ctype@_W@std@@2V0locale@2@A 0000000180070fa0     libcpmt:locale0.obj
 0003:00000fa8       ?id@?$ctype@D@std@@2V0locale@2@A 0000000180070fa8     libcpmt:locale0.obj
 0003:00000fb0       ?id@?$codecvt@GDU_Mbstatet@@@std@@2V0locale@2@A 0000000180070fb0     libcpmt:locale0.obj
 0003:00000fb8       ?id@?$ctype@G@std@@2V0locale@2@A 0000000180070fb8     libcpmt:locale0.obj
 0003:00000fd0       ?id@?$codecvt@_WDU_Mbstatet@@@std@@2V0locale@2@A 0000000180070fd0     libcpmt:locale0.obj
 0003:00000ff0       ?_Index@ios_base@std@@0HA  0000000180070ff0     libcpmt:ios.obj
 0003:00001060       ?_Raise_handler@std@@3P6AXAEBVexception@stdext@@@ZEA 0000000180071060     libcpmt:raisehan.obj
 0003:00001070       __encodedKERNEL32Functions 0000000180071070     libcpmt:winapisupp.obj
 0003:000011b0       ?id@?$num_get@DV?$istreambuf_iterator@DU?$char_traits@D@std@@@std@@@std@@2V0locale@2@A 00000001800711b0     libcpmt:locale.obj
 0003:000011b8       ?id@?$num_put@DV?$ostreambuf_iterator@DU?$char_traits@D@std@@@std@@@std@@2V0locale@2@A 00000001800711b8     libcpmt:locale.obj
 0003:000011c0       ?id@?$numpunct@D@std@@2V0locale@2@A 00000001800711c0     libcpmt:locale.obj
 0003:000011d0       ?_Ptr_cin@std@@3PEAV?$basic_istream@DU?$char_traits@D@std@@@1@EA 00000001800711d0     libcpmt:iosptrs.obj
 0003:000011d8       ?_Ptr_cout@std@@3PEAV?$basic_ostream@DU?$char_traits@D@std@@@1@EA 00000001800711d8     libcpmt:iosptrs.obj
 0003:000011e0       ?_Ptr_cerr@std@@3PEAV?$basic_ostream@DU?$char_traits@D@std@@@1@EA 00000001800711e0     libcpmt:iosptrs.obj
 0003:000011e8       ?_Ptr_clog@std@@3PEAV?$basic_ostream@DU?$char_traits@D@std@@@1@EA 00000001800711e8     libcpmt:iosptrs.obj
 0003:000011f0       ?_Ptr_wcin@std@@3PEAV?$basic_istream@_WU?$char_traits@_W@std@@@1@EA 00000001800711f0     libcpmt:iosptrs.obj
 0003:000011f8       ?_Ptr_wcout@std@@3PEAV?$basic_ostream@_WU?$char_traits@_W@std@@@1@EA 00000001800711f8     libcpmt:iosptrs.obj
 0003:00001200       ?_Ptr_wcerr@std@@3PEAV?$basic_ostream@_WU?$char_traits@_W@std@@@1@EA 0000000180071200     libcpmt:iosptrs.obj
 0003:00001208       ?_Ptr_wclog@std@@3PEAV?$basic_ostream@_WU?$char_traits@_W@std@@@1@EA 0000000180071208     libcpmt:iosptrs.obj
 0003:00001270       ?id@?$time_put@_WV?$ostreambuf_iterator@_WU?$char_traits@_W@std@@@std@@@std@@2V0locale@2@A 0000000180071270     libcpmt:wlocale.obj
 0003:00001278       ?id@?$num_get@_WV?$istreambuf_iterator@_WU?$char_traits@_W@std@@@std@@@std@@2V0locale@2@A 0000000180071278     libcpmt:wlocale.obj
 0003:00001280       ?id@?$num_put@_WV?$ostreambuf_iterator@_WU?$char_traits@_W@std@@@std@@@std@@2V0locale@2@A 0000000180071280     libcpmt:wlocale.obj
 0003:00001288       ?id@?$numpunct@_W@std@@2V0locale@2@A 0000000180071288     libcpmt:wlocale.obj
 0003:00001290       ?id@?$collate@_W@std@@2V0locale@2@A 0000000180071290     libcpmt:wlocale.obj
 0003:00001298       ?id@?$messages@_W@std@@2V0locale@2@A 0000000180071298     libcpmt:wlocale.obj
 0003:000012a0       ?id@?$money_get@_WV?$istreambuf_iterator@_WU?$char_traits@_W@std@@@std@@@std@@2V0locale@2@A 00000001800712a0     libcpmt:wlocale.obj
 0003:000012a8       ?id@?$money_put@_WV?$ostreambuf_iterator@_WU?$char_traits@_W@std@@@std@@@std@@2V0locale@2@A 00000001800712a8     libcpmt:wlocale.obj
 0003:000012b0       ?id@?$moneypunct@_W$0A@@std@@2V0locale@2@A 00000001800712b0     libcpmt:wlocale.obj
 0003:000012b8       ?id@?$moneypunct@_W$00@std@@2V0locale@2@A 00000001800712b8     libcpmt:wlocale.obj
 0003:000012c0       ?id@?$time_get@_WV?$istreambuf_iterator@_WU?$char_traits@_W@std@@@std@@@std@@2V0locale@2@A 00000001800712c0     libcpmt:wlocale.obj
 0003:000012c8       ?id@?$num_get@GV?$istreambuf_iterator@GU?$char_traits@G@std@@@std@@@std@@2V0locale@2@A 00000001800712c8     libcpmt:wlocale.obj
 0003:000012d0       ?id@?$num_put@GV?$ostreambuf_iterator@GU?$char_traits@G@std@@@std@@@std@@2V0locale@2@A 00000001800712d0     libcpmt:wlocale.obj
 0003:000012d8       ?id@?$numpunct@G@std@@2V0locale@2@A 00000001800712d8     libcpmt:wlocale.obj
 0003:000012e0       ?id@?$collate@G@std@@2V0locale@2@A 00000001800712e0     libcpmt:wlocale.obj
 0003:000012e8       ?id@?$messages@G@std@@2V0locale@2@A 00000001800712e8     libcpmt:wlocale.obj
 0003:000012f0       ?id@?$money_get@GV?$istreambuf_iterator@GU?$char_traits@G@std@@@std@@@std@@2V0locale@2@A 00000001800712f0     libcpmt:wlocale.obj
 0003:000012f8       ?id@?$money_put@GV?$ostreambuf_iterator@GU?$char_traits@G@std@@@std@@@std@@2V0locale@2@A 00000001800712f8     libcpmt:wlocale.obj
 0003:00001300       ?id@?$moneypunct@G$0A@@std@@2V0locale@2@A 0000000180071300     libcpmt:wlocale.obj
 0003:00001308       ?id@?$moneypunct@G$00@std@@2V0locale@2@A 0000000180071308     libcpmt:wlocale.obj
 0003:00001310       ?id@?$time_get@GV?$istreambuf_iterator@GU?$char_traits@G@std@@@std@@@std@@2V0locale@2@A 0000000180071310     libcpmt:wlocale.obj
 0003:00001318       ?id@?$time_put@GV?$ostreambuf_iterator@GU?$char_traits@G@std@@@std@@@std@@2V0locale@2@A 0000000180071318     libcpmt:wlocale.obj
 0003:00001320       ?id@?$collate@D@std@@2V0locale@2@A 0000000180071320     libcpmt:xlocale.obj
 0003:00001328       ?id@?$messages@D@std@@2V0locale@2@A 0000000180071328     libcpmt:xlocale.obj
 0003:00001330       ?id@?$money_get@DV?$istreambuf_iterator@DU?$char_traits@D@std@@@std@@@std@@2V0locale@2@A 0000000180071330     libcpmt:xlocale.obj
 0003:00001338       ?id@?$money_put@DV?$ostreambuf_iterator@DU?$char_traits@D@std@@@std@@@std@@2V0locale@2@A 0000000180071338     libcpmt:xlocale.obj
 0003:00001340       ?id@?$moneypunct@D$0A@@std@@2V0locale@2@A 0000000180071340     libcpmt:xlocale.obj
 0003:00001348       ?id@?$moneypunct@D$00@std@@2V0locale@2@A 0000000180071348     libcpmt:xlocale.obj
 0003:00001350       ?id@?$time_get@DV?$istreambuf_iterator@DU?$char_traits@D@std@@@std@@@std@@2V0locale@2@A 0000000180071350     libcpmt:xlocale.obj
 0003:00001358       ?id@?$time_put@DV?$ostreambuf_iterator@DU?$char_traits@D@std@@@std@@@std@@2V0locale@2@A 0000000180071358     libcpmt:xlocale.obj
 0003:000018d8       __scrt_current_native_startup_state 00000001800718d8     LIBCMT:utility.obj
 0003:000018e0       __scrt_native_startup_lock 00000001800718e0     LIBCMT:utility.obj
 0003:00001920       ?__type_info_root_node@@3U__type_info_node@@A 0000000180071920     LIBCMT:tncleanup.obj
 0003:00001930       ?_OptionsStorage@?1??__local_stdio_scanf_options@@9@4_KA 0000000180071930     LIBCMT:default_local_stdio_options.obj
 0003:00001938       __scrt_debugger_hook_flag  0000000180071938     LIBCMT:utility_desktop.obj
 0003:0000193c       __favor                    000000018007193c     LIBCMT:cpu_disp.obj
 0003:00001940       ?__WinRTOutOfMemoryExceptionCallback@@3P6APEAXXZEA 0000000180071940     libvcruntime:ehhelpers.obj
 0003:00001948       __pPurecall                0000000180071948     libvcruntime:purevirt_data.obj
 0003:00001a50       ?pArgList@UnDecorator@@0PEAVReplicator@@EA 0000000180071a50     libvcruntime:undname.obj
 0003:00001a58       ?pZNameList@UnDecorator@@0PEAVReplicator@@EA 0000000180071a58     libvcruntime:undname.obj
 0003:00001a60       ?pTemplateArgList@UnDecorator@@0PEAVReplicator@@EA 0000000180071a60     libvcruntime:undname.obj
 0003:00001a68       ?gName@UnDecorator@@0PEBDEB 0000000180071a68     libvcruntime:undname.obj
 0003:00001a70       ?name@UnDecorator@@0PEBDEB 0000000180071a70     libvcruntime:undname.obj
 0003:00001a78       ?disableFlags@UnDecorator@@0KA 0000000180071a78     libvcruntime:undname.obj
 0003:00001a7c       ?fExplicitTemplateParams@UnDecorator@@0_NA 0000000180071a7c     libvcruntime:undname.obj
 0003:00001a7d       ?fGetTemplateArgumentList@UnDecorator@@0_NA 0000000180071a7d     libvcruntime:undname.obj
 0003:00001a80       ?m_pGetParameter@UnDecorator@@0P6APEADJ@ZEA 0000000180071a80     libvcruntime:undname.obj
 0003:00001a88       ?m_CHPENameOffset@UnDecorator@@0KA 0000000180071a88     libvcruntime:undname.obj
 0003:00001a8c       ?m_recursionLevel@UnDecorator@@0KA 0000000180071a8c     libvcruntime:undname.obj
 0003:00001ac0       _nstream                   0000000180071ac0     libucrt:_file.obj
 0003:00001ac8       __piob                     0000000180071ac8     libucrt:_file.obj
 0003:00001ad0       _cflush                    0000000180071ad0     libucrt:_file.obj
 0003:00001ae0       ?c_exit_complete@?1???R<lambda_6e4b09c48022b2350581041d5f6b0c4c>@@QEBA@XZ@4_NA 0000000180071ae0     libucrt:exit.obj
 0003:00001d24       __acrt_lconv_static_null   0000000180071d24     libucrt:localeconv.obj
 0003:00001d28       __acrt_lconv_static_W_null 0000000180071d28     libucrt:localeconv.obj
 0003:00001e48       _environ_table             0000000180071e48     libucrt:environment_initialization.obj
 0003:00001e50       _wenviron_table            0000000180071e50     libucrt:environment_initialization.obj
 0003:00001e58       __dcrt_initial_wide_environment 0000000180071e58     libucrt:environment_initialization.obj
 0003:00001e60       __dcrt_initial_narrow_environment 0000000180071e60     libucrt:environment_initialization.obj
 0003:00001e68       __acrt_atexit_table        0000000180071e68     libucrt:onexit.obj
 0003:00001e80       __acrt_at_quick_exit_table 0000000180071e80     libucrt:onexit.obj
 0003:00001ec0       __pioinfo                  0000000180071ec0     libucrt:ioinit.obj
 0003:000022c0       _nhandle                   00000001800722c0     libucrt:ioinit.obj
 0003:00002490       __acrt_stdout_buffer       0000000180072490     libucrt:_sftbuf.obj
 0003:00002498       __acrt_stderr_buffer       0000000180072498     libucrt:_sftbuf.obj
 0003:000024a0       __acrt_locale_changed_data 00000001800724a0     libucrt:wsetlocale.obj
 0003:000024a8       __acrt_current_locale_data 00000001800724a8     libucrt:nlsdata.obj
 0003:000024b8       __fma3_is_available        00000001800724b8     libucrt:fma3_available.obj
 0003:000024bc       __use_fma3_lib             00000001800724bc     libucrt:fma3_available.obj
 0003:000024c0       ?_timezone@@3V?$dual_state_global@J@__crt_state_management@@A 00000001800724c0     libucrt:timeset.obj
 0003:000024c4       ?_daylight@@3V?$dual_state_global@H@__crt_state_management@@A 00000001800724c4     libucrt:timeset.obj
 0003:000024c8       ?_dstbias@@3V?$dual_state_global@J@__crt_state_management@@A 00000001800724c8     libucrt:timeset.obj
 0003:000025a0       _mbctype                   00000001800725a0     libucrt:mbctype.obj
 0003:000025a8       _mbcasemap                 00000001800725a8     libucrt:mbctype.obj
 0003:000025b0       __acrt_current_multibyte_data 00000001800725b0     libucrt:mbctype.obj
 0003:000025c0       _pgmptr                    00000001800725c0     libucrt:argv_data.obj
 0003:000025c8       __argc                     00000001800725c8     libucrt:argv_data.obj
 0003:000025d0       __argv                     00000001800725d0     libucrt:argv_data.obj
 0003:000025d8       __wargv                    00000001800725d8     libucrt:argv_data.obj
 0003:000025e0       _acmdln                    00000001800725e0     libucrt:argv_data.obj
 0003:000025e8       _wcmdln                    00000001800725e8     libucrt:argv_data.obj
 0003:000025f0       __acrt_heap                00000001800725f0     libucrt:heap_handle.obj
 0003:00002610       _fmode                     0000000180072610     libucrt:txtmode.obj
 0003:00002618       ?DloadKernel32@@3PEAUHINSTANCE__@@EA 0000000180072618     DelayImp:delayhlp.obj
 0003:00002620       ?DloadAcquireSRWLockExclusive@@3P6AXPEA_K@ZEA 0000000180072620     DelayImp:delayhlp.obj
 0003:00002628       ?DloadReleaseSRWLockExclusive@@3P6AXPEA_K@ZEA 0000000180072628     DelayImp:delayhlp.obj
 0003:00002630       ?DloadSrwLock@@3_KA        0000000180072630     DelayImp:delayhlp.obj
 0003:00002638       ?DloadSectionLockCount@@3KA 0000000180072638     DelayImp:delayhlp.obj
 0003:0000263c       ?DloadSectionOldProtection@@3KA 000000018007263c     DelayImp:delayhlp.obj
 0003:00002640       ?DloadSectionCommitPermanent@@3KA 0000000180072640     DelayImp:delayhlp.obj
 0003:00002648       ?_OptionsStorage@?1??__local_stdio_printf_options@@9@4_KA 0000000180072648     woff2_info.obj
 0003:00002650       ?id@?$codecvt@DDU_Mbstatet@@@std@@2V0locale@2@A 0000000180072650     woff2_info.obj
 0003:00002658       __scrt_ucrt_dll_is_in_use  0000000180072658     <common>
 0003:00002660       __dyn_tls_init_callback    0000000180072660     <common>

 entry point at        0001:0000e19c

 Static symbols

 0000:fff89000       .debug$S                   0000000180000000     kernel32:KERNEL32.dll
 0000:fff89000       .debug$S                   0000000180000000     node:node.exe
 0000:fff89000       .debug$S                   0000000180000000     node:node.exe
 0000:fff89000       .debug$S                   0000000180000000     kernel32:KERNEL32.dll
 0000:fff89000       .debug$S                   0000000180000000     node:node.exe
 0000:fff89000       .debug$S                   0000000180000000     node:node.exe
 0000:fff89000       .debug$S                   0000000180000000     node:node.exe
 0000:fff89000       .debug$S                   0000000180000000     node:node.exe
 0000:fff89000       .debug$S                   0000000180000000     node:node.exe
 0000:fff89000       .debug$S                   0000000180000000     node:node.exe
 0000:fff89000       .debug$S                   0000000180000000     node:node.exe
 0000:fff89000       .debug$S                   0000000180000000     node:node.exe
 0000:fff89000       .debug$S                   0000000180000000     node:node.exe
 0000:fff89000       .debug$S                   0000000180000000     node:node.exe
 0000:fff89000       .debug$S                   0000000180000000     node:node.exe
 0000:fff89000       .debug$S                   0000000180000000     kernel32:KERNEL32.dll
 0000:fff89000       .debug$S                   0000000180000000     kernel32:KERNEL32.dll
 0000:fff89000       .debug$S                   0000000180000000     node:node.exe
 0000:fff89000       .debug$S                   0000000180000000     node:node.exe
 0000:fff89000       .debug$S                   0000000180000000     node:node.exe
 0000:fff89000       .debug$S                   0000000180000000     node:node.exe
 0000:fff89000       .debug$S                   0000000180000000     kernel32:KERNEL32.dll
 0000:fff89000       .debug$S                   0000000180000000     kernel32:KERNEL32.dll
 0000:fff89000       .debug$S                   0000000180000000     node:node.exe
 0000:fff89000       .debug$S                   0000000180000000     node:node.exe
 0000:fff89000       .debug$S                   0000000180000000     node:node.exe
 0000:fff89000       .debug$S                   0000000180000000     node:node.exe
 0000:fff89000       .debug$S                   0000000180000000     node:node.exe
 0000:fff89000       .debug$S                   0000000180000000     node:node.exe
 0000:fff89000       .debug$S                   0000000180000000     node:node.exe
 0000:fff89000       .debug$S                   0000000180000000     node:node.exe
 0000:fff89000       .debug$S                   0000000180000000     node:node.exe
 0000:fff89000       .debug$S                   0000000180000000     node:node.exe
 0000:fff89000       .debug$S                   0000000180000000     node:node.exe
 0000:fff89000       .debug$S                   0000000180000000     node:node.exe
 0000:fff89000       .debug$S                   0000000180000000     node:node.exe
 0000:fff89000       .debug$S                   0000000180000000     node:node.exe
 0000:fff89000       .debug$S                   0000000180000000     node:node.exe
 0000:fff89000       .debug$S                   0000000180000000     node:node.exe
 0000:fff89000       .debug$S                   0000000180000000     kernel32:KERNEL32.dll
 0000:fff89000       .debug$S                   0000000180000000     kernel32:KERNEL32.dll
 0000:fff89000       .debug$S                   0000000180000000     kernel32:KERNEL32.dll
 0000:fff89000       .debug$S                   0000000180000000     kernel32:KERNEL32.dll
 0000:fff89000       .debug$S                   0000000180000000     kernel32:KERNEL32.dll
 0000:fff89000       .debug$S                   0000000180000000     kernel32:KERNEL32.dll
 0000:fff89000       .debug$S                   0000000180000000     kernel32:KERNEL32.dll
 0000:fff89000       .debug$S                   0000000180000000     kernel32:KERNEL32.dll
 0000:fff89000       .debug$S                   0000000180000000     kernel32:KERNEL32.dll
 0000:fff89000       .debug$S                   0000000180000000     kernel32:KERNEL32.dll
 0000:fff89000       .debug$S                   0000000180000000     kernel32:KERNEL32.dll
 0000:fff89000       .debug$S                   0000000180000000     kernel32:KERNEL32.dll
 0000:fff89000       .debug$S                   0000000180000000     kernel32:KERNEL32.dll
 0000:fff89000       .debug$S                   0000000180000000     kernel32:KERNEL32.dll
 0000:fff89000       .debug$S                   0000000180000000     kernel32:KERNEL32.dll
 0000:fff89000       .debug$S                   0000000180000000     kernel32:KERNEL32.dll
 0000:fff89000       .debug$S                   0000000180000000     kernel32:KERNEL32.dll
 0000:fff89000       .debug$S                   0000000180000000     kernel32:KERNEL32.dll
 0000:fff89000       .debug$S                   0000000180000000     kernel32:KERNEL32.dll
 0000:fff89000       .debug$S                   0000000180000000     kernel32:KERNEL32.dll
 0000:fff89000       .debug$S                   0000000180000000     kernel32:KERNEL32.dll
 0000:fff89000       .debug$S                   0000000180000000     kernel32:KERNEL32.dll
 0000:fff89000       .debug$S                   0000000180000000     kernel32:KERNEL32.dll
 0000:fff89000       .debug$S                   0000000180000000     kernel32:KERNEL32.dll
 0000:fff89000       .debug$S                   0000000180000000     kernel32:KERNEL32.dll
 0000:fff89000       .debug$S                   0000000180000000     kernel32:KERNEL32.dll
 0000:fff89000       .debug$S                   0000000180000000     kernel32:KERNEL32.dll
 0000:fff89000       .debug$S                   0000000180000000     kernel32:KERNEL32.dll
 0000:fff89000       .debug$S                   0000000180000000     kernel32:KERNEL32.dll
 0000:fff89000       .debug$S                   0000000180000000     kernel32:KERNEL32.dll
 0000:fff89000       .debug$S                   0000000180000000     kernel32:KERNEL32.dll
 0000:fff89000       .debug$S                   0000000180000000     kernel32:KERNEL32.dll
 0000:fff89000       .debug$S                   0000000180000000     kernel32:KERNEL32.dll
 0000:fff89000       .debug$S                   0000000180000000     kernel32:KERNEL32.dll
 0000:fff89000       .debug$S                   0000000180000000     kernel32:KERNEL32.dll
 0000:fff89000       .debug$S                   0000000180000000     kernel32:KERNEL32.dll
 0000:fff89000       .debug$S                   0000000180000000     kernel32:KERNEL32.dll
 0000:fff89000       .debug$S                   0000000180000000     kernel32:KERNEL32.dll
 0000:fff89000       .debug$S                   0000000180000000     kernel32:KERNEL32.dll
 0000:fff89000       .debug$S                   0000000180000000     kernel32:KERNEL32.dll
 0000:fff89000       .debug$S                   0000000180000000     kernel32:KERNEL32.dll
 0000:fff89000       .debug$S                   0000000180000000     kernel32:KERNEL32.dll
 0000:fff89000       .debug$S                   0000000180000000     kernel32:KERNEL32.dll
 0000:fff89000       .debug$S                   0000000180000000     kernel32:KERNEL32.dll
 0000:fff89000       .debug$S                   0000000180000000     kernel32:KERNEL32.dll
 0000:fff89000       .debug$S                   0000000180000000     kernel32:KERNEL32.dll
 0000:fff89000       .debug$S                   0000000180000000     kernel32:KERNEL32.dll
 0000:fff89000       .debug$S                   0000000180000000     kernel32:KERNEL32.dll
 0000:fff89000       .debug$S                   0000000180000000     kernel32:KERNEL32.dll
 0000:fff89000       .debug$S                   0000000180000000     kernel32:KERNEL32.dll
 0000:fff89000       .debug$S                   0000000180000000     kernel32:KERNEL32.dll
 0000:fff89000       .debug$S                   0000000180000000     kernel32:KERNEL32.dll
 0000:fff89000       .debug$S                   0000000180000000     kernel32:KERNEL32.dll
 0000:fff89000       .debug$S                   0000000180000000     kernel32:KERNEL32.dll
 0000:fff89000       .debug$S                   0000000180000000     kernel32:KERNEL32.dll
 0000:fff89000       .debug$S                   0000000180000000     kernel32:KERNEL32.dll
 0000:fff89000       .debug$S                   0000000180000000     kernel32:KERNEL32.dll
 0000:fff89000       .debug$S                   0000000180000000     kernel32:KERNEL32.dll
 0000:fff89000       .debug$S                   0000000180000000     kernel32:KERNEL32.dll
 0000:fff89000       .debug$S                   0000000180000000     kernel32:KERNEL32.dll
 0000:fff89000       .debug$S                   0000000180000000     kernel32:KERNEL32.dll
 0000:fff89000       .debug$S                   0000000180000000     kernel32:KERNEL32.dll
 0000:fff89000       .debug$S                   0000000180000000     kernel32:KERNEL32.dll
 0000:fff89000       .debug$S                   0000000180000000     kernel32:KERNEL32.dll
 0000:fff89000       .debug$S                   0000000180000000     kernel32:KERNEL32.dll
 0000:fff89000       .debug$S                   0000000180000000     kernel32:KERNEL32.dll
 0000:fff89000       .debug$S                   0000000180000000     kernel32:KERNEL32.dll
 0000:fff89000       .debug$S                   0000000180000000     kernel32:KERNEL32.dll
 0000:fff89000       .debug$S                   0000000180000000     kernel32:KERNEL32.dll
 0000:fff89000       .debug$S                   0000000180000000     kernel32:KERNEL32.dll
 0000:fff89000       .debug$S                   0000000180000000     kernel32:KERNEL32.dll
 0000:fff89000       .debug$S                   0000000180000000     kernel32:KERNEL32.dll
 0000:fff89000       .debug$S                   0000000180000000     kernel32:KERNEL32.dll
 0000:fff89000       .debug$S                   0000000180000000     kernel32:KERNEL32.dll
 0000:fff89000       .debug$S                   0000000180000000     kernel32:KERNEL32.dll
 0000:fff89000       .debug$S                   0000000180000000     kernel32:KERNEL32.dll
 0000:fff89000       .debug$S                   0000000180000000     kernel32:KERNEL32.dll
 0000:fff89000       .debug$S                   0000000180000000     kernel32:KERNEL32.dll
 0000:fff89000       .debug$S                   0000000180000000     kernel32:KERNEL32.dll
 0000:fff89000       .debug$S                   0000000180000000     kernel32:KERNEL32.dll
 0000:fff89000       .debug$S                   0000000180000000     kernel32:KERNEL32.dll
 0000:fff89000       .debug$S                   0000000180000000     kernel32:KERNEL32.dll
 0000:fff89000       .debug$S                   0000000180000000     kernel32:KERNEL32.dll
 0000:fff89000       .debug$S                   0000000180000000     kernel32:KERNEL32.dll
 0000:fff89000       .debug$S                   0000000180000000     kernel32:KERNEL32.dll
 0000:fff89000       .debug$S                   0000000180000000     kernel32:KERNEL32.dll
 0000:fff89000       .debug$S                   0000000180000000     kernel32:KERNEL32.dll
 0000:fff89000       .debug$S                   0000000180000000     kernel32:KERNEL32.dll
 0000:fff89000       .debug$S                   0000000180000000     kernel32:KERNEL32.dll
 0000:fff89000       .debug$S                   0000000180000000     kernel32:KERNEL32.dll
 0000:fff89000       .debug$S                   0000000180000000     woff2_decode.exp
 0001:00000000       ??__Einitlocks@std@@YAXXZ  0000000180001000 f   libcpmt:xlock.obj
 0001:00000020       ??__E_Fac_tidy_reg@std@@YAXXZ 0000000180001020 f   libcpmt:locale0.obj
 0001:0000002c       ??__Eclassic_locale@std@@YAXXZ 000000018000102c f   libcpmt:locale0.obj
 0001:00000038       ??__Einit_atexit@@YAXXZ    0000000180001038 f   libcpmt:iosptrs.obj
 0001:00000044       ??__Einitlocks@std@@YAXXZ  0000000180001044 f   libcpmt:iosptrs.obj
 0001:00000e20       ?TripletDecode@?A0x4a477eb2@woff2@@YA_NPEBE0_KIPEAUPoint@2@PEA_K@Z 0000000180001e20 f   woff2_dec.obj
 0001:000010f0       ?StorePoints@?A0x4a477eb2@woff2@@YA_NIPEBUPoint@2@IIPEAE_KPEA_K@Z 00000001800020f0 f   woff2_dec.obj
 0001:00001320       ?ComputeBbox@?A0x4a477eb2@woff2@@YAXIPEBUPoint@2@PEAE@Z 0000000180002320 f   woff2_dec.obj
 0001:00001410       ?Pad4@?A0x4a477eb2@woff2@@YA_NPEAVWOFF2Out@2@@Z 0000000180002410 f   woff2_dec.obj
 0001:000014b0       ?StoreLoca@?A0x4a477eb2@woff2@@YA_NAEBV?$vector@IV?$allocator@I@std@@@std@@HPEAIPEAVWOFF2Out@2@@Z 00000001800024b0 f   woff2_dec.obj
 0001:000016b0       ?ReconstructGlyf@?A0x4a477eb2@woff2@@YA_NPEBEPEAUTable@2@PEAI12PEAUWOFF2FontInfo@12@PEAVWOFF2Out@2@@Z 00000001800026b0 f   woff2_dec.obj
 0001:000021e0       ?ReconstructTransformedHmtx@?A0x4a477eb2@woff2@@YA_NPEBE_KGGAEBV?$vector@FV?$allocator@F@std@@@std@@PEAIPEAVWOFF2Out@2@@Z 00000001800031e0 f   woff2_dec.obj
 0001:00002680       ?ReadTableDirectory@?A0x4a477eb2@woff2@@YA_NPEAVBuffer@2@PEAV?$vector@UTable@woff2@@V?$allocator@UTable@woff2@@@std@@@std@@_K@Z 0000000180003680 f   woff2_dec.obj
 0001:00002880       ?StoreOffsetTable@?A0x4a477eb2@woff2@@YA_KPEAE_KIG@Z 0000000180003880 f   woff2_dec.obj
 0001:00002930       ?ComputeOffsetToFirstTable@?A0x4a477eb2@woff2@@YA_KAEBUWOFF2Header@12@@Z 0000000180003930 f   woff2_dec.obj
 0001:00002a10       ?ReconstructFont@?A0x4a477eb2@woff2@@YA_NPEAEIPEAURebuildMetadata@12@PEAUWOFF2Header@12@_KPEAVWOFF2Out@2@@Z 0000000180003a10 f   woff2_dec.obj
 0001:00003100       ?ReadWOFF2Header@?A0x4a477eb2@woff2@@YA_NPEBE_KPEAUWOFF2Header@12@@Z 0000000180004100 f   woff2_dec.obj
 0001:000036c0       ?WriteHeaders@?A0x4a477eb2@woff2@@YA_NPEBE_KPEAURebuildMetadata@12@PEAUWOFF2Header@12@PEAVWOFF2Out@2@@Z 00000001800046c0 f   woff2_dec.obj
 0001:00004510       ??R<lambda_f8e21d53eaa236cf9a8dcf160a9c20df>@@QEBAPEAUWOFF2FontInfo@?A0x4a477eb2@woff2@@PEAU123@_K@Z 0000000180005510 f   woff2_dec.obj
 0001:00004870       ??$_Resize@V<lambda_f8e21d53eaa236cf9a8dcf160a9c20df>@@@?$vector@UWOFF2FontInfo@?A0x4a477eb2@woff2@@V?$allocator@UWOFF2FontInfo@?A0x4a477eb2@woff2@@@std@@@std@@AEAAX_KV<lambda_f8e21d53eaa236cf9a8dcf160a9c20df>@@@Z 0000000180005870 f   woff2_dec.obj
 0001:00004c60       ??$_Resize@V<lambda_84660212d3c769bc0ae482d1336fa5d3>@@@?$vector@UTtcFont@?A0x4a477eb2@woff2@@V?$allocator@UTtcFont@?A0x4a477eb2@woff2@@@std@@@std@@AEAAX_KV<lambda_84660212d3c769bc0ae482d1336fa5d3>@@@Z 0000000180005c60 f   woff2_dec.obj
 0001:00005100       ??$_Destroy_range@V?$allocator@UWOFF2FontInfo@?A0x4a477eb2@woff2@@@std@@@std@@YAXPEAUWOFF2FontInfo@?A0x4a477eb2@woff2@@0AEAV?$allocator@UWOFF2FontInfo@?A0x4a477eb2@woff2@@@0@@Z 0000000180006100 f   woff2_dec.obj
 0001:000051b0       ??$_Destroy_range@V?$allocator@UTtcFont@?A0x4a477eb2@woff2@@@std@@@std@@YAXPEAUTtcFont@?A0x4a477eb2@woff2@@0AEAV?$allocator@UTtcFont@?A0x4a477eb2@woff2@@@0@@Z 00000001800061b0 f   woff2_dec.obj
 0001:00005240       ?_Xlength@?$vector@UWOFF2FontInfo@?A0x4a477eb2@woff2@@V?$allocator@UWOFF2FontInfo@?A0x4a477eb2@woff2@@@std@@@std@@CAXXZ 0000000180006240 f   woff2_dec.obj
 0001:00005240       ?_Xlength@?$vector@UTtcFont@?A0x4a477eb2@woff2@@V?$allocator@UTtcFont@?A0x4a477eb2@woff2@@@std@@@std@@CAXXZ 0000000180006240 f   woff2_dec.obj
 0001:00006190       ??0WOFF2FontInfo@?A0x4a477eb2@woff2@@QEAA@AEBU012@@Z 0000000180007190 f   woff2_dec.obj
 0001:00006540       TransformDictionaryWord    0000000180007540 f   decode.obj
 0001:000066d0       DecodeVarLenUint8          00000001800076d0 f   decode.obj
 0001:000068e0       DecodeMetaBlockLength      00000001800078e0 f   decode.obj
 0001:00006ed4       $LN298                     0000000180007ed4     decode.obj
 0001:00006f00       SafeDecodeSymbol           0000000180007f00 f   decode.obj
 0001:00006fd0       ReadSymbolCodeLengths      0000000180007fd0 f   decode.obj
 0001:00007260       SafeReadSymbolCodeLengths  0000000180008260 f   decode.obj
 0001:000074d0       ReadCodeLengthCodeLengths  00000001800084d0 f   decode.obj
 0001:00007660       ReadHuffmanCode            0000000180008660 f   decode.obj
 0001:00007c0c       $LN210                     0000000180008c0c     decode.obj
 0001:00007c30       DecodeContextMap           0000000180008c30 f   decode.obj
 0001:00008150       DecodeLiteralBlockSwitch   0000000180009150 f   decode.obj
 0001:00008400       SafeDecodeLiteralBlockSwitch 0000000180009400 f   decode.obj
 0001:000087c0       DecodeCommandBlockSwitch   00000001800097c0 f   decode.obj
 0001:00008a10       SafeDecodeCommandBlockSwitch 0000000180009a10 f   decode.obj
 0001:00008d60       DecodeDistanceBlockSwitch  0000000180009d60 f   decode.obj
 0001:00008fc0       SafeDecodeDistanceBlockSwitch 0000000180009fc0 f   decode.obj
 0001:00009320       CopyUncompressedBlockToOutput 000000018000a320 f   decode.obj
 0001:00009610       ProcessCommands            000000018000a610 f   decode.obj
 0001:0000a010       SafeProcessCommands        000000018000b010 f   decode.obj
 0001:0000c17c       $LN647                     000000018000d17c     decode.obj
 0001:0000c900       DefaultAllocFunc           000000018000d900 f   state.obj
 0001:0000c910       DefaultFreeFunc            000000018000d910 f   state.obj
 0001:0000cbb0       ?FunctionCallbackWrapper@imp@Nan@@YAXAEBV?$FunctionCallbackInfo@VValue@v8@@@v8@@@Z 000000018000dbb0 f   woff2_decode.obj
 0001:0000d120       _register_woff2_decode     000000018000e120 f   woff2_decode.obj
 0001:0000d130       ?load_exe_hook@@YAP6A_JXZIPEAUDelayLoadInfo@@@Z 000000018000e130 f   win_delay_load_hook.obj
 0001:0000d64c       ?initialize_pointers@@YAHXZ 000000018000e64c f   libcpmt:winapisupp.obj
 0001:0000db50       $$000000                   000000018000eb50     LIBCMT:amdsecgs.obj
 0001:0000dd88       capture_current_context    000000018000ed88 f   LIBCMT:gs_report.obj
 0001:0000ddf8       capture_previous_context   000000018000edf8 f   LIBCMT:gs_report.obj
 0001:0000de6c       ?dllmain_crt_dispatch@@YAHQEAUHINSTANCE__@@KQEAX@Z 000000018000ee6c f   LIBCMT:dll_dllmain.obj
 0001:0000debc       ?dllmain_crt_process_attach@@YAHQEAUHINSTANCE__@@QEAX@Z 000000018000eebc f   LIBCMT:dll_dllmain.obj
 0001:0000dfd8       ?dllmain_crt_process_detach@@YAH_N@Z 000000018000efd8 f   LIBCMT:dll_dllmain.obj
 0001:0000e068       ?dllmain_dispatch@@YAHQEAUHINSTANCE__@@KQEAX@Z 000000018000f068 f   LIBCMT:dll_dllmain.obj
 0001:0000e670       $$000000                   000000018000f670     LIBCMT:chkstk.obj
 0001:0000f370       $$000000                   0000000180010370     libvcruntime:memcpy.obj
 0001:0000f427       MoveSmall                  0000000180010427     libvcruntime:memcpy.obj
 0001:0000f7d0       $$000000                   00000001800107d0     libvcruntime:memset.obj
 0001:0000f8cc       MsetTab                    00000001800108cc     libvcruntime:memset.obj
 0001:0000fac0       $$000000                   0000000180010ac0     libvcruntime:memchr.obj
 0001:0000fb40       $$000000                   0000000180010b40     libvcruntime:memcmp.obj
 0001:000101f0       ??$BuildCatchObjectHelperInternal@V__FrameHandler3@@@@YAHPEAUEHExceptionRecord@@PEAXPEBU_s_HandlerType@@PEBU_s_CatchableType@@@Z 00000001800111f0 f   libvcruntime:frame.obj
 0001:000103f0       ??$BuildCatchObjectInternal@V__FrameHandler3@@@@YAXPEAUEHExceptionRecord@@PEAXPEBU_s_HandlerType@@PEBU_s_CatchableType@@@Z 00000001800113f0 f   libvcruntime:frame.obj
 0001:000104b0       ??$CatchIt@V__FrameHandler3@@@@YAXPEAUEHExceptionRecord@@PEA_KPEAU_CONTEXT@@PEAU_xDISPATCHER_CONTEXT@@PEBU_s_FuncInfo@@PEBU_s_HandlerType@@PEBU_s_CatchableType@@PEBU_s_TryBlockMapEntry@@H1EE@Z 00000001800114b0 f   libvcruntime:frame.obj
 0001:00010580       ??$FindHandler@V__FrameHandler3@@@@YAXPEAUEHExceptionRecord@@PEA_KPEAU_CONTEXT@@PEAU_xDISPATCHER_CONTEXT@@PEBU_s_FuncInfo@@EH1@Z 0000000180011580 f   libvcruntime:frame.obj
 0001:000109e4       ??$FindHandlerForForeignException@V__FrameHandler3@@@@YAXPEAUEHExceptionRecord@@PEA_KPEAU_CONTEXT@@PEAU_xDISPATCHER_CONTEXT@@PEBU_s_FuncInfo@@HH1@Z 00000001800119e4 f   libvcruntime:frame.obj
 0001:000111ec       ?ExFilterRethrow@@YAHPEAU_EXCEPTION_POINTERS@@PEAUEHExceptionRecord@@PEAH@Z 00000001800121ec f   libvcruntime:frame.obj
 0001:000114a0       ?IsInExceptionSpec@@YAEPEAUEHExceptionRecord@@PEBU_s_ESTypeList@@@Z 00000001800124a0 f   libvcruntime:frame.obj
 0001:00011578       ?Is_bad_exception_allowed@@YAEPEBU_s_ESTypeList@@@Z 0000000180012578 f   libvcruntime:frame.obj
 0001:00011630       $$000000                   0000000180012630     libvcruntime:notify.obj
 0001:0001172c       ?try_get_function@@YAPEAXW4function_id@?A0x14c33c87@@QEBDQEBW4module_id@2@2@Z 000000018001272c f   libvcruntime:winapi_downlevel.obj
 0001:00011b10       $$000000                   0000000180012b10     libvcruntime:handlers.obj
 0001:00011bb8       ??$common_assert_to_message_box@_W@@YAXQEB_W0IQEAX@Z 0000000180012bb8 f   libucrt:assert.obj
 0001:00011c7c       ??$common_assert_to_message_box_build_string@_W@@YAXQEA_W_KQEB_W2IQEAX@Z 0000000180012c7c f   libucrt:assert.obj
 0001:00012180       ??$common_assert_to_stderr@_W@@YAXQEB_W0I@Z 0000000180013180 f   libucrt:assert.obj
 0001:000122f0       ?get_assert_format@@YAPEB_W_W@Z 00000001800132f0 f   libucrt:assert.obj
 0001:000128c8       ??$?RV<lambda_842d9ff0dc9ef11c61343bbaebe7f885>@@AEAV<lambda_c5860995281e5c4ce005b3de8f5874ee>@@V<lambda_d90129c13df834fdcbf8d2b88dafcf2d>@@@?$__crt_seh_guarded_call@X@@QEAAX$$QEAV<lambda_842d9ff0dc9ef11c61343bbaebe7f885>@@AEAV<lambda_c5860995281e5c4ce005b3de8f5874ee>@@$$QEAV<lambda_d90129c13df834fdcbf8d2b88dafcf2d>@@@Z 00000001800138c8 f   libucrt:fflush.obj
 0001:00012964       ??$?RV<lambda_886d6c58226a84441f68b9f2b8217b83>@@AEAV<lambda_ab61a845afdef5b7c387490eaf3616ee>@@V<lambda_f7f22ab5edc0698d5f6905b0d3f44752>@@@?$__crt_seh_guarded_call@X@@QEAAX$$QEAV<lambda_886d6c58226a84441f68b9f2b8217b83>@@AEAV<lambda_ab61a845afdef5b7c387490eaf3616ee>@@$$QEAV<lambda_f7f22ab5edc0698d5f6905b0d3f44752>@@@Z 0000000180013964 f   libucrt:fflush.obj
 0001:00012a44       ??$?RV<lambda_c376a267cfb53b6959b3b692ec76b120>@@AEAV<lambda_9a32fed5bf61b6b509b2d3f6003082a1>@@V<lambda_572fbb9fa0ab338edf41edfd4b5fcc8d>@@@?$__crt_seh_guarded_call@H@@QEAAH$$QEAV<lambda_c376a267cfb53b6959b3b692ec76b120>@@AEAV<lambda_9a32fed5bf61b6b509b2d3f6003082a1>@@$$QEAV<lambda_572fbb9fa0ab338edf41edfd4b5fcc8d>@@@Z 0000000180013a44 f   libucrt:fflush.obj
 0001:00012a84       ?common_flush_all@@YAH_N@Z 0000000180013a84 f   libucrt:fflush.obj
 0001:00012d04       ??$?RV<lambda_0d412022a4b28cc8a401ea49574e8ae6>@@AEAV<lambda_a775ed57af18ba8e4d5dc780aa9068fe>@@V<lambda_975a71a6baa488a08f4e15f6b0339b9e>@@@?$__crt_seh_guarded_call@H@@QEAAH$$QEAV<lambda_0d412022a4b28cc8a401ea49574e8ae6>@@AEAV<lambda_a775ed57af18ba8e4d5dc780aa9068fe>@@$$QEAV<lambda_975a71a6baa488a08f4e15f6b0339b9e>@@@Z 0000000180013d04 f   libucrt:output.obj
 0001:00012d44       ??$common_vsprintf@Vstandard_base@__crt_stdio_output@@_W@@YAH_KQEA_W0QEB_WQEAU__crt_locale_pointers@@QEAD@Z 0000000180013d44 f   libucrt:output.obj
 0001:000133a0       ??R<lambda_a775ed57af18ba8e4d5dc780aa9068fe>@@QEBAHXZ 00000001800143a0 f   libucrt:output.obj
 0001:00014ec0       ??$?RV<lambda_84ec643ea9557e2f7dc01bb0e9624395>@@AEAV<lambda_ca71763b3c0644891230e4f79ea54fa6>@@V<lambda_439a761618c59b0600e24586724d733b>@@@?$__crt_seh_guarded_call@H@@QEAAH$$QEAV<lambda_84ec643ea9557e2f7dc01bb0e9624395>@@AEAV<lambda_ca71763b3c0644891230e4f79ea54fa6>@@$$QEAV<lambda_439a761618c59b0600e24586724d733b>@@@Z 0000000180015ec0 f   libucrt:setvbuf.obj
 0001:00014f00       ??R<lambda_ca71763b3c0644891230e4f79ea54fa6>@@QEBAHXZ 0000000180015f00 f   libucrt:setvbuf.obj
 0001:00015098       ??$?RV<lambda_d80eeec6fff315bfe5c115232f3240e3>@@AEAV<lambda_6e4b09c48022b2350581041d5f6b0c4c>@@V<lambda_2358e3775559c9db80273638284d5e45>@@@?$__crt_seh_guarded_call@X@@QEAAX$$QEAV<lambda_d80eeec6fff315bfe5c115232f3240e3>@@AEAV<lambda_6e4b09c48022b2350581041d5f6b0c4c>@@$$QEAV<lambda_2358e3775559c9db80273638284d5e45>@@@Z 0000000180016098 f   libucrt:exit.obj
 0001:000150d0       ??R<lambda_6e4b09c48022b2350581041d5f6b0c4c>@@QEBA@XZ 00000001800160d0 f   libucrt:exit.obj
 0001:00015194       ?atexit_exception_filter@@YAHK@Z 0000000180016194 f   libucrt:exit.obj
 0001:000151a0       ?common_exit@@YAXHW4_crt_exit_cleanup_mode@@W4_crt_exit_return_mode@@@Z 00000001800161a0 f   libucrt:exit.obj
 0001:0001525c       ?exit_or_terminate_process@@YAXI@Z 000000018001625c f   libucrt:exit.obj
 0001:000152a8       ?try_cor_exit_process@@YAXI@Z 00000001800162a8 f   libucrt:exit.obj
 0001:00015b1c       memcpy_s                   0000000180016b1c f   libucrt:strtod.obj
 0001:00015b1c       memcpy_s                   0000000180016b1c f   libucrt:cfout.obj
 0001:00015bb0       $$000000                   0000000180016bb0     libucrt:pow.obj
 0001:00017250       $$000000                   0000000180018250     libucrt:powf.obj
 0001:000183bc       ?internal_isupper_l@@YA_NHQEAU__crt_locale_pointers@@@Z 00000001800193bc f   libucrt:tolower_toupper.obj
 0001:00018a70       ??$parse_command_line@D@@YAXPEADPEAPEAD0PEA_K2@Z 0000000180019a70 f   libucrt:argv_parsing.obj
 0001:00018e1c       ??$common_initialize_environment_nolock@D@@YAHXZ 0000000180019e1c f   libucrt:environment_initialization.obj
 0001:00018e88       ??$create_environment@D@@YAQEAPEADQEAD@Z 0000000180019e88 f   libucrt:environment_initialization.obj
 0001:00018f90       ??$free_environment@_W@@YAXQEAPEA_W@Z 0000000180019f90 f   libucrt:environment_initialization.obj
 0001:00018f90       ??$free_environment@D@@YAXQEAPEAD@Z 0000000180019f90 f   libucrt:environment_initialization.obj
 0001:00018fd4       ??$uninitialize_environment_internal@D@@YAXAEAPEAPEAD@Z 0000000180019fd4 f   libucrt:environment_initialization.obj
 0001:00018ff0       ??$uninitialize_environment_internal@_W@@YAXAEAPEAPEA_W@Z 0000000180019ff0 f   libucrt:environment_initialization.obj
 0001:0001904c       ??$?RV<lambda_638799b9deba96c50f710eeac98168cd>@@AEAV<lambda_22ebabd17bc4fa466a2aca6d8deb888d>@@V<lambda_a6f7d7db0129f75315ebf26d50c089f1>@@@?$__crt_seh_guarded_call@H@@QEAAH$$QEAV<lambda_638799b9deba96c50f710eeac98168cd>@@AEAV<lambda_22ebabd17bc4fa466a2aca6d8deb888d>@@$$QEAV<lambda_a6f7d7db0129f75315ebf26d50c089f1>@@@Z 000000018001a04c f   libucrt:onexit.obj
 0001:00019088       ??$?RV<lambda_7777bce6b2f8c936911f934f8298dc43>@@AEAV<lambda_f03950bc5685219e0bcd2087efbe011e>@@V<lambda_3883c3dff614d5e0c5f61bb1ac94921c>@@@?$__crt_seh_guarded_call@H@@QEAAH$$QEAV<lambda_7777bce6b2f8c936911f934f8298dc43>@@AEAV<lambda_f03950bc5685219e0bcd2087efbe011e>@@$$QEAV<lambda_3883c3dff614d5e0c5f61bb1ac94921c>@@@Z 000000018001a088 f   libucrt:onexit.obj
 0001:000190c4       ??R<lambda_22ebabd17bc4fa466a2aca6d8deb888d>@@QEBAHXZ 000000018001a0c4 f   libucrt:onexit.obj
 0001:00019274       ??R<lambda_f03950bc5685219e0bcd2087efbe011e>@@QEBAHXZ 000000018001a274 f   libucrt:onexit.obj
 0001:00019448       initialize_global_variables 000000018001a448 f   libucrt:initialization.obj
 0001:0001945c       initialize_c               000000018001a45c f   libucrt:initialization.obj
 0001:00019480       initialize_environment     000000018001a480 f   libucrt:initialization.obj
 0001:00019480       uninitialize_global_state_isolation 000000018001a480 f   libucrt:initialization.obj
 0001:00019480       initialize_global_state_isolation 000000018001a480 f   libucrt:initialization.obj
 0001:00019480       report_memory_leaks        000000018001a480 f   libucrt:initialization.obj
 0001:00019480       uninitialize_c             000000018001a480 f   libucrt:initialization.obj
 0001:00019484       uninitialize_environment   000000018001a484 f   libucrt:initialization.obj
 0001:00019494       initialize_pointers        000000018001a494 f   libucrt:initialization.obj
 0001:000194d4       uninitialize_vcruntime     000000018001a4d4 f   libucrt:initialization.obj
 0001:000194dc       uninitialize_allocated_memory 000000018001a4dc f   libucrt:initialization.obj
 0001:0001951c       uninitialize_allocated_io_buffers 000000018001a51c f   libucrt:initialization.obj
 0001:00019d40       $$000000                   000000018001ad40     libucrt:strncmp.obj
 0001:00019dd8       ??$common_xtox@K_W@@YAHKQEA_W_KI_N@Z 000000018001add8 f   libucrt:xtoa.obj
 0001:00019eac       ??$common_xtox_s@K_W@@YAHKQEA_W_KI_N@Z 000000018001aeac f   libucrt:xtoa.obj
 0001:0001a2bc       ??$?RV<lambda_450d765d439847d4c735a33c368b5fc0>@@AEAV<lambda_44731a7d0e6d81c3e6aa82d741081786>@@V<lambda_601a2a7da3b7a96e9554ac7215c4b07c>@@@?$__crt_seh_guarded_call@P6AXH@Z@@QEAAP6AXH@Z$$QEAV<lambda_450d765d439847d4c735a33c368b5fc0>@@AEAV<lambda_44731a7d0e6d81c3e6aa82d741081786>@@$$QEAV<lambda_601a2a7da3b7a96e9554ac7215c4b07c>@@@Z 000000018001b2bc f   libucrt:signal.obj
 0001:0001a5c0       ??$?RV<lambda_0ae27a3a962d80f24befdcbee591983d>@@AEAV<lambda_8d0ee55de4b1038c4002e0adecdf1839>@@V<lambda_dc504788e8f1664fe9b84e20bfb512f2>@@@?$__crt_seh_guarded_call@X@@QEAAX$$QEAV<lambda_0ae27a3a962d80f24befdcbee591983d>@@AEAV<lambda_8d0ee55de4b1038c4002e0adecdf1839>@@$$QEAV<lambda_dc504788e8f1664fe9b84e20bfb512f2>@@@Z 000000018001b5c0 f   libucrt:per_thread_data.obj
 0001:0001a600       ??$?RV<lambda_2d41944a1d46af3157314b8a01080d33>@@AEAV<lambda_8f455de75cd7d7f24b4096f044d8b9e6>@@V<lambda_aa500f224e6afead328df44964fe2772>@@@?$__crt_seh_guarded_call@X@@QEAAX$$QEAV<lambda_2d41944a1d46af3157314b8a01080d33>@@AEAV<lambda_8f455de75cd7d7f24b4096f044d8b9e6>@@$$QEAV<lambda_aa500f224e6afead328df44964fe2772>@@@Z 000000018001b600 f   libucrt:per_thread_data.obj
 0001:0001a640       ??$?RV<lambda_aa87e3671a710a21b5dc78c0bdf72e11>@@AEAV<lambda_92619d2358a28f41a33ba319515a20b9>@@V<lambda_6992ecaafeb10aed2b74cb1fae11a551>@@@?$__crt_seh_guarded_call@X@@QEAAX$$QEAV<lambda_aa87e3671a710a21b5dc78c0bdf72e11>@@AEAV<lambda_92619d2358a28f41a33ba319515a20b9>@@$$QEAV<lambda_6992ecaafeb10aed2b74cb1fae11a551>@@@Z 000000018001b640 f   libucrt:per_thread_data.obj
 0001:0001a688       ??$?RV<lambda_f2e299630e499de9f9a165e60fcd3db5>@@AEAV<lambda_2ae9d31cdba2644fcbeaf08da7c24588>@@V<lambda_40d01ff24d0e7b3814fdbdcee8eab3c7>@@@?$__crt_seh_guarded_call@X@@QEAAX$$QEAV<lambda_f2e299630e499de9f9a165e60fcd3db5>@@AEAV<lambda_2ae9d31cdba2644fcbeaf08da7c24588>@@$$QEAV<lambda_40d01ff24d0e7b3814fdbdcee8eab3c7>@@@Z 000000018001b688 f   libucrt:per_thread_data.obj
 0001:0001a6e8       ?construct_ptd_array@@YAXQEAU__acrt_ptd@@@Z 000000018001b6e8 f   libucrt:per_thread_data.obj
 0001:0001a7b8       ?destroy_fls@@YAXPEAX@Z    000000018001b7b8 f   libucrt:per_thread_data.obj
 0001:0001a7d8       ?destroy_ptd_array@@YAXQEAU__acrt_ptd@@@Z 000000018001b7d8 f   libucrt:per_thread_data.obj
 0001:0001a8d0       ?replace_current_thread_locale_nolock@@YAXQEAU__acrt_ptd@@QEAU__crt_locale_data@@@Z 000000018001b8d0 f   libucrt:per_thread_data.obj
 0001:0001ac4c       ??$write_buffer_nolock@D@@YA_NDV__crt_stdio_stream@@@Z 000000018001bc4c f   libucrt:_flsbuf.obj
 0001:0001ad30       ??$write_buffer_nolock@_W@@YA_N_WV__crt_stdio_stream@@@Z 000000018001bd30 f   libucrt:_flsbuf.obj
 0001:0001ae18       ?stream_is_at_end_of_file_nolock@@YA_NV__crt_stdio_stream@@@Z 000000018001be18 f   libucrt:_flsbuf.obj
 0001:0001b068       ?initialize_inherited_file_handles_nolock@@YAXXZ 000000018001c068 f   libucrt:ioinit.obj
 0001:0001b158       ?initialize_stdio_handles_nolock@@YAXXZ 000000018001c158 f   libucrt:ioinit.obj
 0001:0001b398       ?try_get_function@@YAPEAXW4function_id@?A0x391cf84c@@QEBDQEBW4module_id@2@2@Z 000000018001c398 f   libucrt:winapi_thunks.obj
 0001:0001bce8       ??$?RV<lambda_a37b2b86f63e897a80ea819b0eb08c01>@@AEAV<lambda_38ce7e780aa69e748d6df282ebc68efe>@@V<lambda_99fb1378e971ab6e7edea83e3a7a83a2>@@@?$__crt_seh_guarded_call@H@@QEAAH$$QEAV<lambda_a37b2b86f63e897a80ea819b0eb08c01>@@AEAV<lambda_38ce7e780aa69e748d6df282ebc68efe>@@$$QEAV<lambda_99fb1378e971ab6e7edea83e3a7a83a2>@@@Z 000000018001cce8 f   libucrt:commit.obj
 0001:0001be08       ?write_double_translated_ansi_nolock@@YA?AUwrite_result@?A0x17268360@@HQEBDI@Z 000000018001ce08 f   libucrt:write.obj
 0001:0001c2e4       ?write_text_ansi_nolock@@YA?AUwrite_result@?A0x17268360@@HQEBDI@Z 000000018001d2e4 f   libucrt:write.obj
 0001:0001c3e8       ?write_text_utf16le_nolock@@YA?AUwrite_result@?A0x17268360@@HQEBDI@Z 000000018001d3e8 f   libucrt:write.obj
 0001:0001c504       ?write_text_utf8_nolock@@YA?AUwrite_result@?A0x17268360@@HQEBDI@Z 000000018001d504 f   libucrt:write.obj
 0001:0001ca3c       ??$?RV<lambda_751a882b2c74d4b022dec766aa51a29a>@@AEAV<lambda_628dfdc04ba53c8bfc02c9951375f3f5>@@V<lambda_f6c7be5f7998530c34de24c7437d6b54>@@@?$__crt_seh_guarded_call@H@@QEAAH$$QEAV<lambda_751a882b2c74d4b022dec766aa51a29a>@@AEAV<lambda_628dfdc04ba53c8bfc02c9951375f3f5>@@$$QEAV<lambda_f6c7be5f7998530c34de24c7437d6b54>@@@Z 000000018001da3c f   libucrt:close.obj
 0001:0001d05c       ?fp_format_a@@YAHQEBNPEAD_KQEAD2H_NIQEAU__crt_locale_pointers@@@Z 000000018001e05c f   libucrt:cvt.obj
 0001:0001d3cc       ?fp_format_e@@YAHQEBNQEAD_K12H_NIQEAU__crt_locale_pointers@@@Z 000000018001e3cc f   libucrt:cvt.obj
 0001:0001d4a8       ?fp_format_e_internal@@YAHQEAD_KH_NIQEAU_strflt@@2QEAU__crt_locale_pointers@@@Z 000000018001e4a8 f   libucrt:cvt.obj
 0001:0001d67c       ?fp_format_f_internal@@YAHQEAD_KHQEAU_strflt@@_NQEAU__crt_locale_pointers@@@Z 000000018001e67c f   libucrt:cvt.obj
 0001:0001d7c0       ?fp_format_g@@YAHQEBNQEAD_K12H_NIQEAU__crt_locale_pointers@@@Z 000000018001e7c0 f   libucrt:cvt.obj
 0001:0001d8f4       ?fp_format_nan_or_infinity@@YAHW4__acrt_fp_class@@_NPEAD_K1@Z 000000018001e8f4 f   libucrt:cvt.obj
 0001:0001df58       ??$?RV<lambda_410d79af7f07d98d83a3f525b3859a53>@@AEAV<lambda_3e16ef9562a7dcce91392c22ab16ea36>@@V<lambda_38119f0e861e05405d8a144b9b982f0a>@@@?$__crt_seh_guarded_call@X@@QEAAX$$QEAV<lambda_410d79af7f07d98d83a3f525b3859a53>@@AEAV<lambda_3e16ef9562a7dcce91392c22ab16ea36>@@$$QEAV<lambda_38119f0e861e05405d8a144b9b982f0a>@@@Z 000000018001ef58 f   libucrt:wsetlocale.obj
 0001:0001e06c       ??$common_lseek@_J@@YA_JH_JH@Z 000000018001f06c f   libucrt:lseek.obj
 0001:0001e15c       ??$common_lseek_nolock@_J@@YA_JH_JH@Z 000000018001f15c f   libucrt:lseek.obj
 0001:0001e208       _call_matherr              000000018001f208 f   libucrt:libm_error.obj
 0001:0001e270       _exception_enabled         000000018001f270 f   libucrt:libm_error.obj
 0001:0001e9cc       ?__acrt_LCMapStringA_stat@@YAHPEAU__crt_locale_pointers@@PEB_WKPEBDHPEADHHH@Z 000000018001f9cc f   libucrt:lcmapstringa.obj
 0001:0001f6f4       ?<lambda_invoker_cdecl>@<lambda_c2303d2482d7c3675ea2e24c4cfb6115>@@CAHPEBX0@Z 00000001800206f4 f   libucrt:argv_wildcards.obj
 0001:0001f894       ??$common_expand_argv_wildcards@D@@YAHQEAPEADQEAPEAPEAD@Z 0000000180020894 f   libucrt:argv_wildcards.obj
 0001:0001faa0       ??$copy_and_add_argument_to_buffer@D@@YAHQEBD0_KAEAV?$argument_list@D@?A0x5f5c8891@@@Z 0000000180020aa0 f   libucrt:argv_wildcards.obj
 0001:0001fc28       ??$expand_argument_wildcards@D@@YAHQEAD0AEAV?$argument_list@D@?A0x5f5c8891@@@Z 0000000180020c28 f   libucrt:argv_wildcards.obj
 0001:0001ff40       ??$?RV<lambda_efdfa57d1f175319df784efa44bb7b81>@@AEAV<lambda_5f0a4c1567f8adc6734073e5d1e1b35c>@@V<lambda_2e8a7d3640ea6ccb4c2413664c2db6fd>@@@?$__crt_seh_guarded_call@X@@QEAAX$$QEAV<lambda_efdfa57d1f175319df784efa44bb7b81>@@AEAV<lambda_5f0a4c1567f8adc6734073e5d1e1b35c>@@$$QEAV<lambda_2e8a7d3640ea6ccb4c2413664c2db6fd>@@@Z 0000000180020f40 f   libucrt:mbctype.obj
 0001:000200fc       ?getSystemCP@@YAHH@Z       00000001800210fc f   libucrt:mbctype.obj
 0001:0002017c       ?setSBCS@@YAXPEAU__crt_multibyte_data@@@Z 000000018002117c f   libucrt:mbctype.obj
 0001:0002020c       ?setSBUpLow@@YAXPEAU__crt_multibyte_data@@@Z 000000018002120c f   libucrt:mbctype.obj
 0001:000203f0       ?setmbcp_internal@@YAHH_NQEAU__acrt_ptd@@QEAPEAU__crt_multibyte_data@@@Z 00000001800213f0 f   libucrt:mbctype.obj
 0001:000205b4       ?update_thread_multibyte_data_internal@@YAPEAU__crt_multibyte_data@@QEAU__acrt_ptd@@QEAPEAU1@@Z 00000001800215b4 f   libucrt:mbctype.obj
 0001:000209a4       ?x_ismbbtype_l@@YAHPEAU__crt_locale_pointers@@IHH@Z 00000001800219a4 f   libucrt:ismbbyte.obj
 0001:000214c8       ?GetTableIndexFromLocaleName@@YAHPEB_W@Z 00000001800224c8 f   libucrt:lcidtoname_downlevel.obj
 0001:00022d1c       ?free_crt_array_internal@@YAXQEAPEBX_K@Z 0000000180023d1c f   libucrt:inittime.obj
 0001:00023270       $$000000                   0000000180024270     libucrt:fpsr.obj
 0001:00023690       fallbackMethod             0000000180024690 f   libucrt:strpbrk.obj
 0001:00023a54       $LN78                      0000000180024a54     libucrt:strpbrk.obj
 0001:00023a90       $LN77                      0000000180024a90     libucrt:strpbrk.obj
 0001:00023ad0       $LN76                      0000000180024ad0     libucrt:strpbrk.obj
 0001:00023bac       ?initialize_multibyte@@YAHXZ 0000000180024bac f   libucrt:multibyte_initializer.obj
 0001:00024090       $$000000                   0000000180025090     libucrt:log10.obj
 0001:000246d0       _log_special_common        00000001800256d0 f   libucrt:log_special.obj
 0001:00024ff0       $$000000                   0000000180025ff0     LIBCMT:guard_dispatch.obj
 0001:00025010       ?fin$0@?0??dllmain_crt_process_attach@@YAHQEAUHINSTANCE__@@QEAX@Z@4HA 0000000180026010 f   LIBCMT:dll_dllmain.obj
 0001:00025027       ?fin$0@?0??dllmain_crt_process_detach@@YAH_N@Z@4HA 0000000180026027 f   LIBCMT:dll_dllmain.obj
 0001:00025043       ?filt$0@?0??dllmain_dispatch@@YAHQEAUHINSTANCE__@@KQEAX@Z@4HA 0000000180026043 f   LIBCMT:dll_dllmain.obj
 0001:00025079       __scrt_is_nonwritable_in_current_image$filt$0 0000000180026079 f   LIBCMT:utility.obj
 0001:00025091       ?filt$0@?0???$_CallSETranslator@V__FrameHandler3@@@@YAHPEAUEHExceptionRecord@@PEA_KPEAU_CONTEXT@@PEAU_xDISPATCHER_CONTEXT@@PEBU_s_FuncInfo@@K1@Z@4HA 0000000180026091 f   libvcruntime:risctrnsctrl.obj
 0001:00025122       __DestructExceptionObject$filt$0 0000000180026122 f   libvcruntime:ehhelpers.obj
 0001:0002513a       ?filt$0@?0??CxxCallCatchBlock@__FrameHandler3@@SAPEAXPEAU_EXCEPTION_RECORD@@@Z@4HA 000000018002613a f   libvcruntime:frame.obj
 0001:0002515f       ?fin$1@?0??CxxCallCatchBlock@__FrameHandler3@@SAPEAXPEAU_EXCEPTION_RECORD@@@Z@4HA 000000018002615f f   libvcruntime:frame.obj
 0001:000251d7       ?filt$0@?0??FrameUnwindToState@__FrameHandler3@@SAXPEA_KPEAU_xDISPATCHER_CONTEXT@@PEBU_s_FuncInfo@@H@Z@4HA 00000001800261d7 f   libvcruntime:frame.obj
 0001:000251ed       ?fin$1@?0??FrameUnwindToState@__FrameHandler3@@SAXPEA_KPEAU_xDISPATCHER_CONTEXT@@PEBU_s_FuncInfo@@H@Z@4HA 00000001800261ed f   libvcruntime:frame.obj
 0001:00025210       ?fin$0@?0???$?RV<lambda_0d412022a4b28cc8a401ea49574e8ae6>@@AEAV<lambda_a775ed57af18ba8e4d5dc780aa9068fe>@@V<lambda_975a71a6baa488a08f4e15f6b0339b9e>@@@?$__crt_seh_guarded_call@H@@QEAAH$$QEAV<lambda_0d412022a4b28cc8a401ea49574e8ae6>@@AEAV<lambda_a775ed57af18ba8e4d5dc780aa9068fe>@@$$QEAV<lambda_975a71a6baa488a08f4e15f6b0339b9e>@@@Z@4HA 0000000180026210 f   libucrt:output.obj
 0001:00025210       ?fin$0@?0???$?RV<lambda_842d9ff0dc9ef11c61343bbaebe7f885>@@AEAV<lambda_c5860995281e5c4ce005b3de8f5874ee>@@V<lambda_d90129c13df834fdcbf8d2b88dafcf2d>@@@?$__crt_seh_guarded_call@X@@QEAAX$$QEAV<lambda_842d9ff0dc9ef11c61343bbaebe7f885>@@AEAV<lambda_c5860995281e5c4ce005b3de8f5874ee>@@$$QEAV<lambda_d90129c13df834fdcbf8d2b88dafcf2d>@@@Z@4HA 0000000180026210 f   libucrt:fflush.obj
 0001:00025210       ?fin$0@?0???$?RV<lambda_c376a267cfb53b6959b3b692ec76b120>@@AEAV<lambda_9a32fed5bf61b6b509b2d3f6003082a1>@@V<lambda_572fbb9fa0ab338edf41edfd4b5fcc8d>@@@?$__crt_seh_guarded_call@H@@QEAAH$$QEAV<lambda_c376a267cfb53b6959b3b692ec76b120>@@AEAV<lambda_9a32fed5bf61b6b509b2d3f6003082a1>@@$$QEAV<lambda_572fbb9fa0ab338edf41edfd4b5fcc8d>@@@Z@4HA 0000000180026210 f   libucrt:fflush.obj
 0001:00025210       ?fin$0@?0???$?RV<lambda_84ec643ea9557e2f7dc01bb0e9624395>@@AEAV<lambda_ca71763b3c0644891230e4f79ea54fa6>@@V<lambda_439a761618c59b0600e24586724d733b>@@@?$__crt_seh_guarded_call@H@@QEAAH$$QEAV<lambda_84ec643ea9557e2f7dc01bb0e9624395>@@AEAV<lambda_ca71763b3c0644891230e4f79ea54fa6>@@$$QEAV<lambda_439a761618c59b0600e24586724d733b>@@@Z@4HA 0000000180026210 f   libucrt:setvbuf.obj
 0001:0002522b       ?fin$0@?0???$?RV<lambda_886d6c58226a84441f68b9f2b8217b83>@@AEAV<lambda_ab61a845afdef5b7c387490eaf3616ee>@@V<lambda_f7f22ab5edc0698d5f6905b0d3f44752>@@@?$__crt_seh_guarded_call@X@@QEAAX$$QEAV<lambda_886d6c58226a84441f68b9f2b8217b83>@@AEAV<lambda_ab61a845afdef5b7c387490eaf3616ee>@@$$QEAV<lambda_f7f22ab5edc0698d5f6905b0d3f44752>@@@Z@4HA 000000018002622b f   libucrt:fflush.obj
 0001:00025248       fclose$fin$0               0000000180026248 f   libucrt:fclose.obj
 0001:00025260       ?fin$0@?0???$?RV<lambda_450d765d439847d4c735a33c368b5fc0>@@AEAV<lambda_44731a7d0e6d81c3e6aa82d741081786>@@V<lambda_601a2a7da3b7a96e9554ac7215c4b07c>@@@?$__crt_seh_guarded_call@P6AXH@Z@@QEAAP6AXH@Z$$QEAV<lambda_450d765d439847d4c735a33c368b5fc0>@@AEAV<lambda_44731a7d0e6d81c3e6aa82d741081786>@@$$QEAV<lambda_601a2a7da3b7a96e9554ac7215c4b07c>@@@Z@4HA 0000000180026260 f   libucrt:signal.obj
 0001:00025260       ?fin$0@?0???$?RV<lambda_638799b9deba96c50f710eeac98168cd>@@AEAV<lambda_22ebabd17bc4fa466a2aca6d8deb888d>@@V<lambda_a6f7d7db0129f75315ebf26d50c089f1>@@@?$__crt_seh_guarded_call@H@@QEAAH$$QEAV<lambda_638799b9deba96c50f710eeac98168cd>@@AEAV<lambda_22ebabd17bc4fa466a2aca6d8deb888d>@@$$QEAV<lambda_a6f7d7db0129f75315ebf26d50c089f1>@@@Z@4HA 0000000180026260 f   libucrt:onexit.obj
 0001:00025260       ?fin$0@?0???$?RV<lambda_7777bce6b2f8c936911f934f8298dc43>@@AEAV<lambda_f03950bc5685219e0bcd2087efbe011e>@@V<lambda_3883c3dff614d5e0c5f61bb1ac94921c>@@@?$__crt_seh_guarded_call@H@@QEAAH$$QEAV<lambda_7777bce6b2f8c936911f934f8298dc43>@@AEAV<lambda_f03950bc5685219e0bcd2087efbe011e>@@$$QEAV<lambda_3883c3dff614d5e0c5f61bb1ac94921c>@@@Z@4HA 0000000180026260 f   libucrt:onexit.obj
 0001:00025260       ?fin$0@?0???$?RV<lambda_d80eeec6fff315bfe5c115232f3240e3>@@AEAV<lambda_6e4b09c48022b2350581041d5f6b0c4c>@@V<lambda_2358e3775559c9db80273638284d5e45>@@@?$__crt_seh_guarded_call@X@@QEAAX$$QEAV<lambda_d80eeec6fff315bfe5c115232f3240e3>@@AEAV<lambda_6e4b09c48022b2350581041d5f6b0c4c>@@$$QEAV<lambda_2358e3775559c9db80273638284d5e45>@@@Z@4HA 0000000180026260 f   libucrt:exit.obj
 0001:00025260       ?fin$0@?0???$?RV<lambda_f2e299630e499de9f9a165e60fcd3db5>@@AEAV<lambda_2ae9d31cdba2644fcbeaf08da7c24588>@@V<lambda_40d01ff24d0e7b3814fdbdcee8eab3c7>@@@?$__crt_seh_guarded_call@X@@QEAAX$$QEAV<lambda_f2e299630e499de9f9a165e60fcd3db5>@@AEAV<lambda_2ae9d31cdba2644fcbeaf08da7c24588>@@$$QEAV<lambda_40d01ff24d0e7b3814fdbdcee8eab3c7>@@@Z@4HA 0000000180026260 f   libucrt:per_thread_data.obj
 0001:00025260       ?fin$0@?0???$?RV<lambda_aa87e3671a710a21b5dc78c0bdf72e11>@@AEAV<lambda_92619d2358a28f41a33ba319515a20b9>@@V<lambda_6992ecaafeb10aed2b74cb1fae11a551>@@@?$__crt_seh_guarded_call@X@@QEAAX$$QEAV<lambda_aa87e3671a710a21b5dc78c0bdf72e11>@@AEAV<lambda_92619d2358a28f41a33ba319515a20b9>@@$$QEAV<lambda_6992ecaafeb10aed2b74cb1fae11a551>@@@Z@4HA 0000000180026260 f   libucrt:per_thread_data.obj
 0001:00025260       ?fin$0@?0???$?RV<lambda_0ae27a3a962d80f24befdcbee591983d>@@AEAV<lambda_8d0ee55de4b1038c4002e0adecdf1839>@@V<lambda_dc504788e8f1664fe9b84e20bfb512f2>@@@?$__crt_seh_guarded_call@X@@QEAAX$$QEAV<lambda_0ae27a3a962d80f24befdcbee591983d>@@AEAV<lambda_8d0ee55de4b1038c4002e0adecdf1839>@@$$QEAV<lambda_dc504788e8f1664fe9b84e20bfb512f2>@@@Z@4HA 0000000180026260 f   libucrt:per_thread_data.obj
 0001:00025260       ?fin$0@?0???$?RV<lambda_2d41944a1d46af3157314b8a01080d33>@@AEAV<lambda_8f455de75cd7d7f24b4096f044d8b9e6>@@V<lambda_aa500f224e6afead328df44964fe2772>@@@?$__crt_seh_guarded_call@X@@QEAAX$$QEAV<lambda_2d41944a1d46af3157314b8a01080d33>@@AEAV<lambda_8f455de75cd7d7f24b4096f044d8b9e6>@@$$QEAV<lambda_aa500f224e6afead328df44964fe2772>@@@Z@4HA 0000000180026260 f   libucrt:per_thread_data.obj
 0001:00025260       ?fin$0@?0???$?RV<lambda_efdfa57d1f175319df784efa44bb7b81>@@AEAV<lambda_5f0a4c1567f8adc6734073e5d1e1b35c>@@V<lambda_2e8a7d3640ea6ccb4c2413664c2db6fd>@@@?$__crt_seh_guarded_call@X@@QEAAX$$QEAV<lambda_efdfa57d1f175319df784efa44bb7b81>@@AEAV<lambda_5f0a4c1567f8adc6734073e5d1e1b35c>@@$$QEAV<lambda_2e8a7d3640ea6ccb4c2413664c2db6fd>@@@Z@4HA 0000000180026260 f   libucrt:mbctype.obj
 0001:0002527a       ?filt$0@?0???R<lambda_6e4b09c48022b2350581041d5f6b0c4c>@@QEBA@XZ@4HA 000000018002627a f   libucrt:exit.obj
 0001:00025295       _query_new_handler$fin$0   0000000180026295 f   libucrt:new_handler.obj
 0001:000252ab       raise$fin$0                00000001800262ab f   libucrt:signal.obj
 0001:000252cc       __acrt_initialize_lowio$fin$0 00000001800262cc f   libucrt:ioinit.obj
 0001:000252cc       __acrt_lowio_ensure_fh_exists$fin$0 00000001800262cc f   libucrt:osfinfo.obj
 0001:000252e5       _fcloseall$fin$0           00000001800262e5 f   libucrt:closeall.obj
 0001:000252fe       ?fin$0@?0???$?RV<lambda_751a882b2c74d4b022dec766aa51a29a>@@AEAV<lambda_628dfdc04ba53c8bfc02c9951375f3f5>@@V<lambda_f6c7be5f7998530c34de24c7437d6b54>@@@?$__crt_seh_guarded_call@H@@QEAAH$$QEAV<lambda_751a882b2c74d4b022dec766aa51a29a>@@AEAV<lambda_628dfdc04ba53c8bfc02c9951375f3f5>@@$$QEAV<lambda_f6c7be5f7998530c34de24c7437d6b54>@@@Z@4HA 00000001800262fe f   libucrt:close.obj
 0001:000252fe       ?fin$0@?0???$?RV<lambda_a37b2b86f63e897a80ea819b0eb08c01>@@AEAV<lambda_38ce7e780aa69e748d6df282ebc68efe>@@V<lambda_99fb1378e971ab6e7edea83e3a7a83a2>@@@?$__crt_seh_guarded_call@H@@QEAAH$$QEAV<lambda_a37b2b86f63e897a80ea819b0eb08c01>@@AEAV<lambda_38ce7e780aa69e748d6df282ebc68efe>@@$$QEAV<lambda_99fb1378e971ab6e7edea83e3a7a83a2>@@@Z@4HA 00000001800262fe f   libucrt:commit.obj
 0001:00025318       ?fin$0@?0???$common_lseek@_J@@YA_JH_JH@Z@4HA 0000000180026318 f   libucrt:lseek.obj
 0001:00025318       _write$fin$0               0000000180026318 f   libucrt:write.obj
 0001:0002532f       ?fin$0@?0???$?RV<lambda_410d79af7f07d98d83a3f525b3859a53>@@AEAV<lambda_3e16ef9562a7dcce91392c22ab16ea36>@@V<lambda_38119f0e861e05405d8a144b9b982f0a>@@@?$__crt_seh_guarded_call@X@@QEAAX$$QEAV<lambda_410d79af7f07d98d83a3f525b3859a53>@@AEAV<lambda_3e16ef9562a7dcce91392c22ab16ea36>@@$$QEAV<lambda_38119f0e861e05405d8a144b9b982f0a>@@@Z@4HA 000000018002632f f   libucrt:wsetlocale.obj
 0001:00025349       _ctrlfp$filt$0             0000000180026349 f   libucrt:fpctrl.obj
 0001:00025375       ?fin$0@?0??update_thread_multibyte_data_internal@@YAPEAU__crt_multibyte_data@@QEAU__acrt_ptd@@QEAPEAU1@@Z@4HA 0000000180026375 f   libucrt:mbctype.obj
 0001:0002538e       __acrt_update_thread_locale_data$fin$0 000000018002638e f   libucrt:locale_refcounting.obj
 0001:000253b0       _IsNonwritableInCurrentImage$filt$0 00000001800263b0 f   LIBCMT:pesect.obj
 0001:000253d0       ??__Finitlocks@std@@YAXXZ  00000001800263d0 f   libcpmt:xlock.obj
 0001:000253dc       ??__F_Fac_tidy_reg@std@@YAXXZ 00000001800263dc f   libcpmt:locale0.obj
 0001:000253e8       ??__Fclassic_locale@std@@YAXXZ 00000001800263e8 f   libcpmt:locale0.obj
 0001:00025430       ??__Finit_atexit@@YAXXZ    0000000180026430 f   libcpmt:iosptrs.obj
 0001:00025478       ??__Finitlocks@std@@YAXXZ  0000000180026478 f   libcpmt:iosptrs.obj
 0002:00000280       ?initlocks$initializer$@std@@3P6AXXZEA 0000000180027280     libcpmt:xlock.obj
 0002:00000288       ?initlocks$initializer$@std@@3P6AXXZEA 0000000180027288     libcpmt:iosptrs.obj
 0002:00000290       ?init_atexit$initializer$@@3P6AXXZEA 0000000180027290     libcpmt:iosptrs.obj
 0002:00000298       ?_Fac_tidy_reg$initializer$@std@@3P6AXXZEA 0000000180027298     libcpmt:locale0.obj
 0002:000002a0       ?classic_locale$initializer$@std@@3P6AXXZEA 00000001800272a0     libcpmt:locale0.obj
 0002:000002c0       ?pinit@@3P6AHXZEA          00000001800272c0     libcpmt:winapisupp.obj
 0002:000003c8       $cppxdata$??1_Fac_tidy_reg_t@std@@QEAA@XZ 00000001800273c8     libcpmt:locale0.obj
 0002:000003f0       $cppxdata$??__Fclassic_locale@std@@YAXXZ 00000001800273f0     libcpmt:locale0.obj
 0002:00000430       ?_Win_errtab@std@@3QBU_Win_errtab_t@1@B 0000000180027430     libcpmt:syserror.obj
 0002:000006a0       ?_Sys_errtab@std@@3QBU_Sys_errtab_t@1@B 00000001800276a0     libcpmt:syserror.obj
 0002:00001628       $cppxdata$??__Finit_atexit@@YAXXZ 0000000180028628     libcpmt:iosptrs.obj
 0002:00001658       digits                     0000000180028658     libcpmt:xstoul.obj
 0002:00001680       ndigs                      0000000180028680     libcpmt:xstoul.obj
 0002:000016a8       digits                     00000001800286a8     libcpmt:xstoull.obj
 0002:000016d0       ndigs                      00000001800286d0     libcpmt:xstoull.obj
 0002:00001700       ?LcidToLocaleNameTable@@3QBULcidToLocaleName@@B 0000000180028700     libcpmt:winapinls.obj
 0002:00002540       ?LocaleNameToIndexTable@@3QBULocaleNameIndex@@B 0000000180029540     libcpmt:winapinls.obj
 0002:00004a40       GS_ExceptionPointers       000000018002ba40     LIBCMT:gs_report.obj
 0002:00004aa0       ?ExceptionTemplate@?1??_CxxThrowException@@9@4UEHExceptionRecord@@B 000000018002baa0     libvcruntime:throw.obj
 0002:00004ae0       ?ExceptionTemplate@?1??UnwindNestedFrames@__FrameHandler3@@SAXPEA_KPEAUEHExceptionRecord@@PEAU_CONTEXT@@0PEAXPEBU_s_FuncInfo@@HHPEBU_s_HandlerType@@PEAU_xDISPATCHER_CONTEXT@@E@Z@4U_EXCEPTION_RECORD@@B 000000018002bae0     libvcruntime:risctrnsctrl.obj
 0002:00004ba8       ?module_names@?A0x14c33c87@@3QBQEB_WB 000000018002bba8     libvcruntime:winapi_downlevel.obj
 0002:00004c78       ?candidate_modules@?1??try_get_FlsAlloc@@YAP6AKP6AXPEAX@Z@ZXZ@4QBW4module_id@?A0x14c33c87@@B 000000018002bc78     libvcruntime:winapi_downlevel.obj
 0002:00004c80       ?candidate_modules@?1??try_get_FlsFree@@YAP6AHK@ZXZ@4QBW4module_id@?A0x14c33c87@@B 000000018002bc80     libvcruntime:winapi_downlevel.obj
 0002:00004c88       ?candidate_modules@?1??try_get_FlsGetValue@@YAP6APEAXK@ZXZ@4QBW4module_id@?A0x14c33c87@@B 000000018002bc88     libvcruntime:winapi_downlevel.obj
 0002:00004c90       ?candidate_modules@?1??try_get_FlsSetValue@@YAP6AHKPEAX@ZXZ@4QBW4module_id@?A0x14c33c87@@B 000000018002bc90     libvcruntime:winapi_downlevel.obj
 0002:00004c98       ?candidate_modules@?1??try_get_InitializeCriticalSectionEx@@YAP6AHPEAU_RTL_CRITICAL_SECTION@@KK@ZXZ@4QBW4module_id@?A0x14c33c87@@B 000000018002bc98     libvcruntime:winapi_downlevel.obj
 0002:00004ca0       ?tokenTable@@3QBQEBDB      000000018002bca0     libvcruntime:undname.obj
 0002:00004d20       ?nameTable@@3QBQEBDB       000000018002bd20     libvcruntime:undname.obj
 0002:00004fb0       ?rttiTable@@3QBQEBDB       000000018002bfb0     libvcruntime:undname.obj
 0002:00006200       ?errtable@@3QBUerrentry@?A0x31fdb9ec@@B 000000018002d200     libucrt:errno.obj
 0002:00006d40       __flag_x_one_y_snan        000000018002dd40     libucrt:pow.obj
 0002:00006d44       __flag_x_zero_z_inf        000000018002dd44     libucrt:pow.obj
 0002:00006d48       __flag_x_nan               000000018002dd48     libucrt:pow.obj
 0002:00006d4c       __flag_y_nan               000000018002dd4c     libucrt:pow.obj
 0002:00006d50       __flag_x_nan_y_nan         000000018002dd50     libucrt:pow.obj
 0002:00006d54       __flag_x_neg_y_notint      000000018002dd54     libucrt:pow.obj
 0002:00006d58       __flag_z_zero              000000018002dd58     libucrt:pow.obj
 0002:00006d5c       __flag_z_denormal          000000018002dd5c     libucrt:pow.obj
 0002:00006d60       __flag_z_inf               000000018002dd60     libucrt:pow.obj
 0002:00006d70       __ay_max_bound             000000018002dd70     libucrt:pow.obj
 0002:00006d78       __ay_min_bound             000000018002dd78     libucrt:pow.obj
 0002:00006d80       __sign_mask                000000018002dd80     libucrt:pow.obj
 0002:00006d88       __sign_and_exp_mask        000000018002dd88     libucrt:pow.obj
 0002:00006d90       __exp_mask                 000000018002dd90     libucrt:pow.obj
 0002:00006d98       __neg_inf                  000000018002dd98     libucrt:pow.obj
 0002:00006da0       __pos_inf                  000000018002dda0     libucrt:pow.obj
 0002:00006da8       __pos_one                  000000018002dda8     libucrt:pow.obj
 0002:00006db0       __pos_zero                 000000018002ddb0     libucrt:pow.obj
 0002:00006db8       __exp_mant_mask            000000018002ddb8     libucrt:pow.obj
 0002:00006dc0       __mant_mask                000000018002ddc0     libucrt:pow.obj
 0002:00006dc8       __ind_pattern              000000018002ddc8     libucrt:pow.obj
 0002:00006dd0       __neg_qnan                 000000018002ddd0     libucrt:pow.obj
 0002:00006dd8       __qnan                     000000018002ddd8     libucrt:pow.obj
 0002:00006de0       __qnan_set                 000000018002dde0     libucrt:pow.obj
 0002:00006de8       __neg_one                  000000018002dde8     libucrt:pow.obj
 0002:00006df0       __neg_zero                 000000018002ddf0     libucrt:pow.obj
 0002:00006df8       __exp_shift                000000018002ddf8     libucrt:pow.obj
 0002:00006e00       __exp_bias                 000000018002de00     libucrt:pow.obj
 0002:00006e08       __exp_bias_m1              000000018002de08     libucrt:pow.obj
 0002:00006e10       __yexp_53                  000000018002de10     libucrt:pow.obj
 0002:00006e18       __mant_full                000000018002de18     libucrt:pow.obj
 0002:00006e20       __1_before_mant            000000018002de20     libucrt:pow.obj
 0002:00006e28       __mask_mant_all8           000000018002de28     libucrt:pow.obj
 0002:00006e30       __mask_mant9               000000018002de30     libucrt:pow.obj
 0002:00006e40       __real_fffffffff8000000    000000018002de40     libucrt:pow.obj
 0002:00006e50       __mask_8000000000000000    000000018002de50     libucrt:pow.obj
 0002:00006e60       __real_4090040000000000    000000018002de60     libucrt:pow.obj
 0002:00006e70       __real_C090C80000000000    000000018002de70     libucrt:pow.obj
 0002:00006e80       __real_ninf                000000018002de80     libucrt:pow.obj
 0002:00006e90       __real_inf                 000000018002de90     libucrt:pow.obj
 0002:00006ea0       __real_nan                 000000018002dea0     libucrt:pow.obj
 0002:00006eb0       __real_mant                000000018002deb0     libucrt:pow.obj
 0002:00006ec0       __mask_1023                000000018002dec0     libucrt:pow.obj
 0002:00006ed0       __mask_001                 000000018002ded0     libucrt:pow.obj
 0002:00006ee0       __real_log2_lead           000000018002dee0     libucrt:pow.obj
 0002:00006ef0       __real_log2_tail           000000018002def0     libucrt:pow.obj
 0002:00006f00       __real_two                 000000018002df00     libucrt:pow.obj
 0002:00006f10       __real_one                 000000018002df10     libucrt:pow.obj
 0002:00006f20       __real_half                000000018002df20     libucrt:pow.obj
 0002:00006f30       __mask_100                 000000018002df30     libucrt:pow.obj
 0002:00006f40       __real_1_over_2            000000018002df40     libucrt:pow.obj
 0002:00006f50       __real_1_over_3            000000018002df50     libucrt:pow.obj
 0002:00006f60       __real_1_over_4            000000018002df60     libucrt:pow.obj
 0002:00006f70       __real_1_over_5            000000018002df70     libucrt:pow.obj
 0002:00006f80       __real_1_over_6            000000018002df80     libucrt:pow.obj
 0002:00006f90       __real_1_over_7            000000018002df90     libucrt:pow.obj
 0002:00006fa0       __mask_1023_f              000000018002dfa0     libucrt:pow.obj
 0002:00006fb0       __mask_2045                000000018002dfb0     libucrt:pow.obj
 0002:00006fc0       __real_threshold           000000018002dfc0     libucrt:pow.obj
 0002:00006fd0       __real_notsign             000000018002dfd0     libucrt:pow.obj
 0002:00006fe0       __log_F_inv_head           000000018002dfe0     libucrt:pow.obj
 0002:000077f0       __log_F_inv_tail           000000018002e7f0     libucrt:pow.obj
 0002:00008000       __denormal_threshold       000000018002f000     libucrt:pow.obj
 0002:00008010       __enable_almost_inf        000000018002f010     libucrt:pow.obj
 0002:00008020       __real_zero                000000018002f020     libucrt:pow.obj
 0002:00008030       __real_smallest_denormal   000000018002f030     libucrt:pow.obj
 0002:00008040       __denormal_tiny_threshold  000000018002f040     libucrt:pow.obj
 0002:00008050       __real_p65536              000000018002f050     libucrt:pow.obj
 0002:00008060       __real_m68800              000000018002f060     libucrt:pow.obj
 0002:00008070       __real_64_by_log2          000000018002f070     libucrt:pow.obj
 0002:00008080       __real_log2_by_64_head     000000018002f080     libucrt:pow.obj
 0002:00008090       __real_log2_by_64_tail     000000018002f090     libucrt:pow.obj
 0002:000080a0       __real_1_by_720            000000018002f0a0     libucrt:pow.obj
 0002:000080b0       __real_1_by_120            000000018002f0b0     libucrt:pow.obj
 0002:000080c0       __real_1_by_24             000000018002f0c0     libucrt:pow.obj
 0002:000080d0       __real_1_by_6              000000018002f0d0     libucrt:pow.obj
 0002:000080e0       __real_1_by_2              000000018002f0e0     libucrt:pow.obj
 0002:000080f0       __flag_x_one_y_snan        000000018002f0f0     libucrt:powf.obj
 0002:000080f4       __flag_x_zero_z_inf        000000018002f0f4     libucrt:powf.obj
 0002:000080f8       __flag_x_nan               000000018002f0f8     libucrt:powf.obj
 0002:000080fc       __flag_y_nan               000000018002f0fc     libucrt:powf.obj
 0002:00008100       __flag_x_nan_y_nan         000000018002f100     libucrt:powf.obj
 0002:00008104       __flag_x_neg_y_notint      000000018002f104     libucrt:powf.obj
 0002:00008108       __flag_z_zero              000000018002f108     libucrt:powf.obj
 0002:0000810c       __flag_z_denormal          000000018002f10c     libucrt:powf.obj
 0002:00008110       __flag_z_inf               000000018002f110     libucrt:powf.obj
 0002:00008114       L__1_by_3                  000000018002f114     libucrt:powf.obj
 0002:0000811c       L__log2                    000000018002f11c     libucrt:powf.obj
 0002:00008124       L__max_exp_arg             000000018002f124     libucrt:powf.obj
 0002:0000812c       L__min_exp_arg             000000018002f12c     libucrt:powf.obj
 0002:00008134       L__real_log2_by_64         000000018002f134     libucrt:powf.obj
 0002:0000813c       L__1_by_6                  000000018002f13c     libucrt:powf.obj
 0002:00008144       L__real_threshold          000000018002f144     libucrt:powf.obj
 0002:0000814c       L__real_one                000000018002f14c     libucrt:powf.obj
 0002:00008154       L__real_two                000000018002f154     libucrt:powf.obj
 0002:0000815c       L__neg_zero                000000018002f15c     libucrt:powf.obj
 0002:00008170       L__real_ca42               000000018002f170     libucrt:powf.obj
 0002:00008178       L__real_ca4                000000018002f178     libucrt:powf.obj
 0002:00008180       L__real_ca31               000000018002f180     libucrt:powf.obj
 0002:00008188       L__real_ca3                000000018002f188     libucrt:powf.obj
 0002:00008190       L__clear_sign              000000018002f190     libucrt:powf.obj
 0002:000081a0       L__real_64_by_log2         000000018002f1a0     libucrt:powf.obj
 0002:000081b0       L__1_by_2                  000000018002f1b0     libucrt:powf.obj
 0002:000081c0       L__1023                    000000018002f1c0     libucrt:powf.obj
 0002:000081d0       L__xexp_bits_xmantissa_bits 000000018002f1d0     libucrt:powf.obj
 0002:00008ad0       __acrt_initializers        000000018002fad0     libucrt:initialization.obj
 0002:00008bd0       ?module_names@?A0x391cf84c@@3QBQEB_WB 000000018002fbd0     libucrt:winapi_thunks.obj
 0002:00009178       ?candidate_modules@?1??try_get_AreFileApisANSI@@YAP6AHXZXZ@4QBW4module_id@?A0x391cf84c@@B 0000000180030178     libucrt:winapi_thunks.obj
 0002:00009190       ?candidate_modules@?1??try_get_FlsAlloc@@YAP6AKP6AXPEAX@Z@ZXZ@4QBW4module_id@?A0x391cf84c@@B 0000000180030190     libucrt:winapi_thunks.obj
 0002:000091a8       ?candidate_modules@?1??try_get_FlsFree@@YAP6AHK@ZXZ@4QBW4module_id@?A0x391cf84c@@B 00000001800301a8     libucrt:winapi_thunks.obj
 0002:000091b8       ?candidate_modules@?1??try_get_FlsGetValue@@YAP6APEAXK@ZXZ@4QBW4module_id@?A0x391cf84c@@B 00000001800301b8     libucrt:winapi_thunks.obj
 0002:000091d0       ?candidate_modules@?1??try_get_FlsSetValue@@YAP6AHKPEAX@ZXZ@4QBW4module_id@?A0x391cf84c@@B 00000001800301d0     libucrt:winapi_thunks.obj
 0002:000091e8       ?candidate_modules@?1??try_get_GetActiveWindow@@YAP6APEAUHWND__@@XZXZ@4QBW4module_id@?A0x391cf84c@@B 00000001800301e8     libucrt:winapi_thunks.obj
 0002:00009200       ?candidate_modules@?1??try_get_GetLastActivePopup@@YAP6APEAUHWND__@@PEAU2@@ZXZ@4QBW4module_id@?A0x391cf84c@@B 0000000180030200     libucrt:winapi_thunks.obj
 0002:00009220       ?candidate_modules@?1??try_get_GetProcessWindowStation@@YAP6APEAUHWINSTA__@@XZXZ@4QBW4module_id@?A0x391cf84c@@B 0000000180030220     libucrt:winapi_thunks.obj
 0002:00009240       ?candidate_modules@?1??try_get_GetUserObjectInformationW@@YAP6AHPEAXH0KPEAK@ZXZ@4QBW4module_id@?A0x391cf84c@@B 0000000180030240     libucrt:winapi_thunks.obj
 0002:00009268       ?candidate_modules@?1??try_get_InitializeCriticalSectionEx@@YAP6AHPEAU_RTL_CRITICAL_SECTION@@KK@ZXZ@4QBW4module_id@?A0x391cf84c@@B 0000000180030268     libucrt:winapi_thunks.obj
 0002:00009290       ?candidate_modules@?1??try_get_LCMapStringEx@@YAP6AHPEB_WK0HPEA_WHPEAU_nlsversioninfo@@PEAX_J@ZXZ@4QBW4module_id@?A0x391cf84c@@B 0000000180030290     libucrt:winapi_thunks.obj
 0002:000092a8       ?candidate_modules@?1??try_get_LocaleNameToLCID@@YAP6AKPEB_WK@ZXZ@4QBW4module_id@?A0x391cf84c@@B 00000001800302a8     libucrt:winapi_thunks.obj
 0002:000092c8       ?candidate_modules@?1??try_get_MessageBoxA@@YAP6AHPEAUHWND__@@PEBD1I@ZXZ@4QBW4module_id@?A0x391cf84c@@B 00000001800302c8     libucrt:winapi_thunks.obj
 0002:000092e0       ?candidate_modules@?1??try_get_MessageBoxW@@YAP6AHPEAUHWND__@@PEB_W1I@ZXZ@4QBW4module_id@?A0x391cf84c@@B 00000001800302e0     libucrt:winapi_thunks.obj
 0002:000092f4       ?candidate_modules@?1??try_get_AppPolicyGetProcessTerminationMethod@@YAP6AJPEAXPEAW4AppPolicyProcessTerminationMethod@@@ZXZ@4QBW4module_id@?A0x391cf84c@@B 00000001800302f4     libucrt:winapi_thunks.obj
 0002:00009320       ?candidate_modules@?1??try_get_AppPolicyGetShowDeveloperDiagnostic@@YAP6AJPEAXPEAW4AppPolicyShowDeveloperDiagnostic@@@ZXZ@4QBW4module_id@?A0x391cf84c@@B 0000000180030320     libucrt:winapi_thunks.obj
 0002:0000934c       ?candidate_modules@?1??try_get_AppPolicyGetWindowingModel@@YAP6AJPEAXPEAW4AppPolicyWindowingModel@@@ZXZ@4QBW4module_id@?A0x391cf84c@@B 000000018003034c     libucrt:winapi_thunks.obj
 0002:0000b8a0       ?_mb_locale_names@@3QBQEB_WB 00000001800328a0     libucrt:mbctype.obj
 0002:0000b900       ?LcidToLocaleNameTable@?A0x881e4c05@@3QBULcidToLocaleName@1@B 0000000180032900     libucrt:lcidtoname_downlevel.obj
 0002:0000d360       ?LocaleNameToIndexTable@?A0x881e4c05@@3QBULocaleNameIndex@1@B 0000000180034360     libucrt:lcidtoname_downlevel.obj
 0002:0000ec20       __real@433fffffffffffff    0000000180035c20     libucrt:fpsr.obj
 0002:0000ec28       __real@c33fffffffffffff    0000000180035c28     libucrt:fpsr.obj
 0002:0000ec40       __real_ninf                0000000180035c40     libucrt:log10.obj
 0002:0000ec50       __real_inf                 0000000180035c50     libucrt:log10.obj
 0002:0000ec60       __real_neg_qnan            0000000180035c60     libucrt:log10.obj
 0002:0000ec70       __real_qnanbit             0000000180035c70     libucrt:log10.obj
 0002:0000ec80       __int_1023                 0000000180035c80     libucrt:log10.obj
 0002:0000ec90       __mask_001                 0000000180035c90     libucrt:log10.obj
 0002:0000eca0       __mask_mant                0000000180035ca0     libucrt:log10.obj
 0002:0000ecb0       __mask_mant_top8           0000000180035cb0     libucrt:log10.obj
 0002:0000ecc0       __mask_mant9               0000000180035cc0     libucrt:log10.obj
 0002:0000ecd0       __real_log10_e             0000000180035cd0     libucrt:log10.obj
 0002:0000ece0       __real_log10_e_lead        0000000180035ce0     libucrt:log10.obj
 0002:0000ecf0       __real_log10_e_tail        0000000180035cf0     libucrt:log10.obj
 0002:0000ed00       __real_log10_2_lead        0000000180035d00     libucrt:log10.obj
 0002:0000ed10       __real_log10_2_tail        0000000180035d10     libucrt:log10.obj
 0002:0000ed20       __real_two                 0000000180035d20     libucrt:log10.obj
 0002:0000ed30       __real_one                 0000000180035d30     libucrt:log10.obj
 0002:0000ed40       __real_half                0000000180035d40     libucrt:log10.obj
 0002:0000ed50       __mask_100                 0000000180035d50     libucrt:log10.obj
 0002:0000ed60       __real_1_over_512          0000000180035d60     libucrt:log10.obj
 0002:0000ed70       __real_1_over_2            0000000180035d70     libucrt:log10.obj
 0002:0000ed80       __real_1_over_3            0000000180035d80     libucrt:log10.obj
 0002:0000ed90       __real_1_over_4            0000000180035d90     libucrt:log10.obj
 0002:0000eda0       __real_1_over_5            0000000180035da0     libucrt:log10.obj
 0002:0000edb0       __real_1_over_6            0000000180035db0     libucrt:log10.obj
 0002:0000edc0       __real_neg_1023            0000000180035dc0     libucrt:log10.obj
 0002:0000edd0       __mask_2045                0000000180035dd0     libucrt:log10.obj
 0002:0000ede0       __real_threshold           0000000180035de0     libucrt:log10.obj
 0002:0000edf0       __real_near_one_lt         0000000180035df0     libucrt:log10.obj
 0002:0000ee00       __real_near_one_gt         0000000180035e00     libucrt:log10.obj
 0002:0000ee10       __real_min_norm            0000000180035e10     libucrt:log10.obj
 0002:0000ee20       __real_notsign             0000000180035e20     libucrt:log10.obj
 0002:0000ee30       __real_ca1                 0000000180035e30     libucrt:log10.obj
 0002:0000ee40       __real_ca2                 0000000180035e40     libucrt:log10.obj
 0002:0000ee50       __real_ca3                 0000000180035e50     libucrt:log10.obj
 0002:0000ee60       __real_ca4                 0000000180035e60     libucrt:log10.obj
 0002:0000ee70       __mask_lower               0000000180035e70     libucrt:log10.obj
 0002:0000ee80       __flag_x_zero              0000000180035e80     libucrt:log10.obj
 0002:0000ee84       __flag_x_neg               0000000180035e84     libucrt:log10.obj
 0002:0000ee88       __flag_x_nan               0000000180035e88     libucrt:log10.obj
 0002:00010000       ?kGlyfTableTag@woff2@@3IB  0000000180037000     font.obj
 0002:00010004       ?kLocaTableTag@woff2@@3IB  0000000180037004     font.obj
 0002:00010008       ?kDsigTableTag@woff2@@3IB  0000000180037008     font.obj
 0002:0001000c       ?piecewise_construct@std@@3Upiecewise_construct_t@1@B 000000018003700c     font.obj
 0002:0001000d       ?piecewise_construct@std@@3Upiecewise_construct_t@1@B 000000018003700d     normalize.obj
 0002:0001000e       ?piecewise_construct@std@@3Upiecewise_construct_t@1@B 000000018003700e     transform.obj
 0002:0001000f       ?piecewise_construct@std@@3Upiecewise_construct_t@1@B 000000018003700f     woff2_dec.obj
 0002:0001010c       ?piecewise_construct@std@@3Upiecewise_construct_t@1@B 000000018003710c     woff2_enc.obj
 0002:00010110       kBrotliDictionaryData      0000000180037110     dictionary.obj
 0002:0002e0b0       kCmdLut                    00000001800550b0     decode.obj
 0002:0002f6b0       kCodeLengthPrefixValue     00000001800566b0     decode.obj
 0002:0002f6c0       kCodeLengthCodeOrder       00000001800566c0     decode.obj
 0002:0002f6d8       kCodeLengthPrefixLength    00000001800566d8     decode.obj
 0002:0002f6e8       kRingBufferWriteAheadSlack 00000001800566e8     decode.obj
 0002:0002f6f0       kContextLookup             00000001800566f0     decode.obj
 0002:0002fdf0       kTransforms                0000000180056df0     decode.obj
 0002:0002ff60       kBitMask                   0000000180056f60     decode.obj
 0002:0002ffe4       kNumTransforms             0000000180056fe4     decode.obj
 0002:0002ffe8       kHashMul64                 0000000180056fe8     backward_references.obj
 0002:0002fff0       kBlockLengthPrefixCode     0000000180056ff0     decode.obj
 0002:00030058       kContextLookupOffsets      0000000180057058     decode.obj
 0002:00030078       kHashMul32                 0000000180057078     backward_references.obj
 0002:00030080       kPrefixSuffix              0000000180057080     decode.obj
 0002:00030150       kReverseBits               0000000180057150     huffman.obj
 0002:00030250       kMaxHuffmanTableSize       0000000180057250     state.obj
 0002:00030280       kCutoffTransformsCount     0000000180057280     backward_references.obj
 0002:00030284       kInfinity                  0000000180057284     backward_references_hq.obj
 0002:00030288       kCutoffTransforms          0000000180057288     backward_references.obj
 0002:00030290       kHashMul64Long             0000000180057290     backward_references.obj
 0002:00030298       kHashMul32                 0000000180057298     backward_references_hq.obj
 0002:000302a0       kLog2Table                 00000001800572a0     backward_references_hq.obj
 0002:000306a0       kCopyExtra                 00000001800576a0     backward_references_hq.obj
 0002:00030700       kDistanceCacheOffset       0000000180057700     backward_references_hq.obj
 0002:00030740       kInsExtra                  0000000180057740     backward_references_hq.obj
 0002:000307a0       kInvalidMatch              00000001800577a0     backward_references_hq.obj
 0002:000307a4       ?kInvalidId@?1??RemapBlockIdsDistance@@9@9 00000001800577a4     block_splitter.obj
 0002:000307a8       kMinLengthForBlockSplitting 00000001800577a8     block_splitter.obj
 0002:000307b0       kDistanceCacheIndex        00000001800577b0     backward_references_hq.obj
 0002:000307f0       kLog2Table                 00000001800577f0     bit_cost.obj
 0002:00030bf0       kIterMulForRefining        0000000180057bf0     block_splitter.obj
 0002:00030bf8       ?kInvalidId@?1??RemapBlockIdsCommand@@9@9 0000000180057bf8     block_splitter.obj
 0002:00030c00       kLog2Table                 0000000180057c00     block_splitter.obj
 0002:00031000       ?kInvalidId@?1??RemapBlockIdsLiteral@@9@9 0000000180058000     block_splitter.obj
 0002:00031004       ?kInvalidIndex@?1??ClusterBlocksCommand@@9@9 0000000180058004     block_splitter.obj
 0002:00031008       ?kInvalidIndex@?1??ClusterBlocksDistance@@9@9 0000000180058008     block_splitter.obj
 0002:0003100c       ?kInvalidIndex@?1??ClusterBlocksLiteral@@9@9 000000018005800c     block_splitter.obj
 0002:00031010       kMinItersForRefining       0000000180058010     block_splitter.obj
 0002:00031018       ?kStorageOrder@?1??BrotliStoreHuffmanTreeOfHuffmanTreeToBitMask@@9@9 0000000180058018     brotli_bit_stream.obj
 0002:00031030       kCopyBase                  0000000180058030     brotli_bit_stream.obj
 0002:00031090       ?gaps@?1??SortHuffmanTreeItems@@9@9 0000000180058090     brotli_bit_stream.obj
 0002:000310c0       kStaticDistanceCodeDepth   00000001800580c0     brotli_bit_stream.obj
 0002:00031100       kSigned3BitContextLookup   0000000180058100     brotli_bit_stream.obj
 0002:00031200       kUTF8ContextLookup         0000000180058200     brotli_bit_stream.obj
 0002:00031400       kStaticDistanceCodeBits    0000000180058400     brotli_bit_stream.obj
 0002:00031480       kCopyExtra                 0000000180058480     brotli_bit_stream.obj
 0002:000314e0       kStaticCommandCodeDepth    00000001800584e0     brotli_bit_stream.obj
 0002:000317a0       ?kSymbolMask@?1??EncodeContextMap@@9@9 00000001800587a0     brotli_bit_stream.obj
 0002:000317a4       ?kHuffmanBitLengthHuffmanCodeSymbols@?1??BrotliStoreHuffmanTreeOfHuffmanTreeToBitMask@@9@9 00000001800587a4     brotli_bit_stream.obj
 0002:000317b0       kBlockLengthPrefixCode     00000001800587b0     brotli_bit_stream.obj
 0002:00031880       kStaticCommandCodeBits     0000000180058880     brotli_bit_stream.obj
 0002:00031e00       kInsBase                   0000000180058e00     brotli_bit_stream.obj
 0002:00031e60       ?kHuffmanBitLengthHuffmanCodeBitLengths@?1??BrotliStoreHuffmanTreeOfHuffmanTreeToBitMask@@9@9 0000000180058e60     brotli_bit_stream.obj
 0002:00031e68       ?kSampleRate@?7??BuildAndStoreLiteralPrefixCode@@9@9 0000000180058e68     compress_fragment.obj
 0002:00031e70       kInsExtra                  0000000180058e70     brotli_bit_stream.obj
 0002:00031ed0       kLog2Table                 0000000180058ed0     cluster.obj
 0002:000322d0       kLog2Table                 00000001800592d0     compress_fragment.obj
 0002:000326d0       ?kSampleRate@?1??ShouldMergeBlock@@9@9 00000001800596d0     compress_fragment.obj
 0002:000326d8       kHashMul32                 00000001800596d8     compress_fragment.obj
 0002:000326dc       kHashMul32                 00000001800596dc     compress_fragment_two_pass.obj
 0002:000326e0       ?kFirstBlockSize@?1??BrotliCompressFragmentFastImpl@@9@9 00000001800596e0     compress_fragment.obj
 0002:000326e8       ?kMergeBlockSize@?1??BrotliCompressFragmentFastImpl@@9@9 00000001800596e8     compress_fragment.obj
 0002:000326f0       kLog2Table                 00000001800596f0     compress_fragment_two_pass.obj
 0002:00032af0       ?kNumExtraBits@?1??StoreCommands@@9@9 0000000180059af0     compress_fragment_two_pass.obj
 0002:00032cf0       ?kInsertOffset@?1??StoreCommands@@9@9 0000000180059cf0     compress_fragment_two_pass.obj
 0002:00032d50       kCompressFragmentTwoPassBlockSize 0000000180059d50     compress_fragment_two_pass.obj
 0002:00032d58       ?kMinEntropy@?3??ShouldCompress@@9@9 0000000180059d58     encode.obj
 0002:00042d60       ?lut@?6??DecideOverLiteralContextModeling@@9@9 0000000180069d60     encode.obj
 0002:00042d70       ?kDefaultCommandCodeNumBits@?1??InitCommandPrefixCodes@@9@9 0000000180069d70     encode.obj
 0002:00042d78       kHashMul64                 0000000180069d78     encode.obj
 0002:00042d80       kLog2Table                 0000000180069d80     encode.obj
 0002:00043180       ?kSlackForEightByteHashingEverywhere@?1??RingBufferInitBuffer@@9@9 000000018006a180     encode.obj
 0002:00043188       kHashMul32                 000000018006a188     encode.obj
 0002:00043190       kSigned3BitContextLookup   000000018006a190     encode.obj
 0002:00043290       kUTF8ContextLookup         000000018006a290     encode.obj
 0002:00043490       ?kDefaultCommandCode@?1??InitCommandPrefixCodes@@9@9 000000018006a490     encode.obj
 0002:000434cc       ?kSampleRate@?3??ShouldCompress@@9@9 000000018006a4cc     encode.obj
 0002:000434d0       kCompressFragmentTwoPassBlockSize 000000018006a4d0     encode.obj
 0002:000434d8       kMinUTF8Ratio              000000018006a4d8     encode.obj
 0002:000434e0       ?kStaticContextMapSimpleUTF8@?1??ChooseContextMap@@9@9 000000018006a4e0     encode.obj
 0002:000435e0       ?kStaticContextMapComplexUTF8@?1??ShouldUseComplexStaticContextMap@@9@9 000000018006a5e0     encode.obj
 0002:000436e0       kHashMul64Long             000000018006a6e0     encode.obj
 0002:000436e8       kDictHashMul32             000000018006a6e8     static_dict.obj
 0002:000436f0       ?kDefaultCommandDepths@?1??InitCommandPrefixCodes@@9@9 000000018006a6f0     encode.obj
 0002:00043770       ?kStaticContextMapContinuation@?1??ChooseContextMap@@9@9 000000018006a770     encode.obj
 0002:00043870       ?kDefaultCommandBits@?1??InitCommandPrefixCodes@@9@9 000000018006a870     encode.obj
 0002:00043970       ?gaps@?1??SortHuffmanTreeItems@@9@9 000000018006a970     entropy_encode.obj
 0002:000439a0       ?kLut@?1??BrotliReverseBits@@9@9 000000018006a9a0     entropy_encode.obj
 0002:00043a20       kSigned3BitContextLookup   000000018006aa20     histogram.obj
 0002:00043b20       kUTF8ContextLookup         000000018006ab20     histogram.obj
 0002:00043d20       kLog2Table                 000000018006ad20     literal_cost.obj
 0002:00044120       kLog2Table                 000000018006b120     metablock.obj
 0002:00044520       kSigned3BitContextLookup   000000018006b520     metablock.obj
 0002:00044620       kUTF8ContextLookup         000000018006b620     metablock.obj
 0002:00044820       kDictNumBits               000000018006b820     static_dict.obj
 0002:00045320       $unwind$__acrt_stdio_begin_temporary_buffering_nolock 000000018006c320     libucrt:_sftbuf.obj
 0002:00045320       $unwind$__acrt_uninitialize_lowio 000000018006c320     libucrt:ioinit.obj
 0002:00045320       $unwind$??_Glogic_error@std@@UEAAPEAXI@Z 000000018006c320     libcpmt:xthrow.obj
 0002:00045320       $unwind$wcsncat_s          000000018006c320     libucrt:wcsncat_s.obj
 0002:00045320       $unwind$__acrt_errno_map_os_error 000000018006c320     libucrt:errno.obj
 0002:00045320       $unwind$_updatetlocinfoEx_nolock 000000018006c320     libucrt:locale_refcounting.obj
 0002:00045320       $unwind$__acrt_FlsSetValue 000000018006c320     libucrt:winapi_thunks.obj
 0002:00045320       $unwind$??_Gbad_exception@std@@UEAAPEAXI@Z 000000018006c320     libvcruntime:frame.obj
 0002:00045320       $unwind$_realloc_base      000000018006c320     libucrt:realloc_base.obj
 0002:00045320       $unwind$__acrt_fp_strflt_to_string 000000018006c320     libucrt:_fptostr.obj
 0002:00045320       $unwind$_FindAndUnlinkFrame 000000018006c320     libvcruntime:risctrnsctrl.obj
 0002:00045320       $unwind$__acrt_stdio_allocate_buffer_nolock 000000018006c320     libucrt:_getbuf.obj
 0002:00045320       $unwind$strncpy_s          000000018006c320     libucrt:strncpy_s.obj
 0002:00045320       $unwind$_initterm_e        000000018006c320     libucrt:initterm.obj
 0002:00045320       $unwind$__acrt_can_show_message_box 000000018006c320     libucrt:winapi_thunks.obj
 0002:00045320       $unwind$?Read@Buffer@woff2@@QEAA_NPEAE_K@Z 000000018006c320     font.obj
 0002:00045320       $unwind$_RTC_Initialize    000000018006c320     LIBCMT:initsect.obj
 0002:00045320       $unwind$BrotliDecoderStateCleanupAfterMetablock 000000018006c320     state.obj
 0002:00045320       $unwind$_RTC_Terminate     000000018006c320     LIBCMT:initsect.obj
 0002:00045320       $unwind$?replace_current_thread_locale_nolock@@YAXQEAU__acrt_ptd@@QEAU__crt_locale_data@@@Z 000000018006c320     libucrt:per_thread_data.obj
 0002:00045320       $unwind$__vcrt_FlsSetValue 000000018006c320     libvcruntime:winapi_downlevel.obj
 0002:00045320       $unwind$BrotliDecoderStateCleanup 000000018006c320     state.obj
 0002:00045320       $unwind$?DloadGetSRWLockFunctionPointers@@YAEXZ 000000018006c320     DelayImp:delayhlp.obj
 0002:00045320       $unwind$??_Glength_error@std@@UEAAPEAXI@Z 000000018006c320     libcpmt:xthrow.obj
 0002:00045320       $unwind$??_Gbad_alloc@std@@UEAAPEAXI@Z 000000018006c320     libcpmt:xthrow.obj
 0002:00045320       $unwind$__acrt_LocaleNameToLCID 000000018006c320     libucrt:winapi_thunks.obj
 0002:00045320       $unwind$??_Gexception@std@@UEAAPEAXI@Z 000000018006c320     libcpmt:xthrow.obj
 0002:00045320       $unwind$_close_nolock      000000018006c320     libucrt:close.obj
 0002:00045320       $unwind$??_Gbad_array_new_length@std@@UEAAPEAXI@Z 000000018006c320     LIBCMT:throw_bad_alloc.obj
 0002:00045320       $unwind$??1_Init_locks@std@@QEAA@XZ 000000018006c320     libcpmt:xlock.obj
 0002:00045320       $unwind$?force_decimal_point@__crt_stdio_output@@YAXPEADQEAU__crt_locale_pointers@@@Z 000000018006c320     libucrt:output.obj
 0002:00045320       $unwind$__acrt_execute_uninitializers 000000018006c320     libucrt:shared_initialization.obj
 0002:00045320       $unwind$_fclose_nolock     000000018006c320     libucrt:fclose.obj
 0002:00045320       $unwind$??$common_initialize_environment_nolock@D@@YAHXZ 000000018006c320     libucrt:environment_initialization.obj
 0002:00045320       $unwind$?SetUnwindTryBlock@__FrameHandler3@@SAXPEA_KPEAU_xDISPATCHER_CONTEXT@@PEBU_s_FuncInfo@@H@Z 000000018006c320     libvcruntime:ehstate.obj
 0002:0004532c       $unwind$??A?$map@U?$pair@II@std@@IU?$less@U?$pair@II@std@@@2@V?$allocator@U?$pair@$$CBU?$pair@II@std@@I@std@@@2@@std@@QEAAAEAIAEBU?$pair@II@1@@Z 000000018006c32c     woff2_dec.obj
 0002:0004532c       $unwind$??A?$map@IIU?$less@I@std@@V?$allocator@U?$pair@$$CBII@std@@@2@@std@@QEAAAEAIAEBI@Z 000000018006c32c     font.obj
 0002:0004533c       $unwind$__acrt_free_locale 000000018006c33c     libucrt:locale_refcounting.obj
 0002:0004533c       $unwind$_initterm          000000018006c33c     libucrt:initterm.obj
 0002:0004533c       $unwind$__acrt_lowio_create_handle_array 000000018006c33c     libucrt:osfinfo.obj
 0002:0004533c       $unwind$__scrt_dllmain_exception_filter 000000018006c33c     LIBCMT:utility.obj
 0002:0004533c       $unwind$??$ensure_buffer_is_big_enough@D@formatting_buffer@__crt_stdio_output@@QEAA_N_K@Z 000000018006c33c     libucrt:output.obj
 0002:0004533c       $unwind$??$ensure_buffer_is_big_enough@_W@formatting_buffer@__crt_stdio_output@@QEAA_N_K@Z 000000018006c33c     libucrt:output.obj
 0002:0004533c       $unwind$?setSBCS@@YAXPEAU__crt_multibyte_data@@@Z 000000018006c33c     libucrt:mbctype.obj
 0002:0004533c       $unwind$_seh_filter_exe    000000018006c33c     libucrt:exception_filter.obj
 0002:0004533c       $unwind$__acrt_show_wide_message_box 000000018006c33c     libucrt:crtmbox.obj
 0002:0004533c       $unwind$_wassert           000000018006c33c     libucrt:assert.obj
 0002:0004533c       $unwind$?Is_bad_exception_allowed@@YAEPEBU_s_ESTypeList@@@Z 000000018006c33c     libvcruntime:frame.obj
 0002:0004533c       $unwind$?_Tidy@?$_Tree@V?$_Tmap_traits@IIU?$less@I@std@@V?$allocator@U?$pair@$$CBII@std@@@2@$0A@@std@@@std@@IEAAXXZ 000000018006c33c     font.obj
 0002:0004533c       $unwind$_recalloc_base     000000018006c33c     libucrt:recalloc.obj
 0002:0004533c       $unwind$?GetHandlerSearchState@__FrameHandler3@@SAHPEA_KPEAU_xDISPATCHER_CONTEXT@@PEBU_s_FuncInfo@@@Z 000000018006c33c     libvcruntime:frame.obj
 0002:00045350       $unwind$__acrt_freeptd     000000018006c350     libucrt:per_thread_data.obj
 0002:00045350       $unwind$__acrt_getptd_head 000000018006c350     libucrt:per_thread_data.obj
 0002:00045350       $unwind$fegetenv           000000018006c350     libucrt:fegetenv.obj
 0002:00045350       $unwind$fesetenv           000000018006c350     libucrt:fesetenv.obj
 0002:00045350       $unwind$feholdexcept       000000018006c350     libucrt:feholdexcept.obj
 0002:00045350       $unwind$__acrt_AppPolicyGetWindowingModelInternal 000000018006c350     libucrt:winapi_thunks.obj
 0002:00045350       $unwind$__vcrt_FlsGetValue 000000018006c350     libvcruntime:winapi_downlevel.obj
 0002:00045350       $unwind$_IsExceptionObjectToBeDestroyed 000000018006c350     libvcruntime:ehhelpers.obj
 0002:00045350       $unwind$__acrt_AppPolicyGetShowDeveloperDiagnosticInternal 000000018006c350     libucrt:winapi_thunks.obj
 0002:00045350       $unwind$__acrt_AppPolicyGetProcessTerminationMethodInternal 000000018006c350     libucrt:winapi_thunks.obj
 0002:00045350       $unwind$?ExecutionInCatch@__FrameHandler3@@SA_NPEAU_xDISPATCHER_CONTEXT@@PEBU_s_FuncInfo@@@Z 000000018006c350     libvcruntime:risctrnsctrl.obj
 0002:00045350       $unwind$??0bad_exception@std@@QEAA@AEBV01@@Z 000000018006c350     libvcruntime:frame.obj
 0002:00045350       $unwind$__acrt_get_parent_window 000000018006c350     libucrt:winapi_thunks.obj
 0002:00045350       $unwind$__acrt_stdio_free_buffer_nolock 000000018006c350     libucrt:_freebuf.obj
 0002:00045350       $unwind$__acrt_FlsGetValue 000000018006c350     libucrt:winapi_thunks.obj
 0002:00045350       $unwind$__acrt_FlsFree     000000018006c350     libucrt:winapi_thunks.obj
 0002:00045350       $unwind$?load_exe_hook@@YAP6A_JXZIPEAUDelayLoadInfo@@@Z 000000018006c350     win_delay_load_hook.obj
 0002:00045350       $unwind$wcscat_s           000000018006c350     libucrt:wcscat_s.obj
 0002:00045350       $unwind$?try_cor_exit_process@@YAXI@Z 000000018006c350     libucrt:exit.obj
 0002:00045350       $unwind$??0exception@std@@QEAA@AEBV01@@Z 000000018006c350     libcpmt:xthrow.obj
 0002:00045350       $unwind$?ExFilterRethrow@@YAHPEAU_EXCEPTION_POINTERS@@PEAUEHExceptionRecord@@PEAH@Z 000000018006c350     libvcruntime:frame.obj
 0002:00045350       $unwind$__acrt_FlsAlloc    000000018006c350     libucrt:winapi_thunks.obj
 0002:00045350       $unwind$??_Gtype_info@@UEAAPEAXI@Z 000000018006c350     LIBCMT:std_type_info_static.obj
 0002:00045350       $unwind$_SetImageBase      000000018006c350     libvcruntime:risctrnsctrl.obj
 0002:00045350       $unwind$__acrt_uninitialize_winapi_thunks 000000018006c350     libucrt:winapi_thunks.obj
 0002:00045350       $unwind$??2@YAPEAX_K@Z     000000018006c350     LIBCMT:new_scalar.obj
 0002:00045350       $unwind$_SetThrowImageBase 000000018006c350     libvcruntime:risctrnsctrl.obj
 0002:00045350       $unwind$??0bad_alloc@std@@QEAA@AEBV01@@Z 000000018006c350     libcpmt:xthrow.obj
 0002:00045350       $unwind$__std_exception_destroy 000000018006c350     libvcruntime:std_exception.obj
 0002:00045350       $unwind$??_GWOFF2MemoryOut@woff2@@UEAAPEAXI@Z 000000018006c350     woff2_out.obj
 0002:00045350       $unwind$_malloc_base       000000018006c350     libucrt:malloc_base.obj
 0002:00045350       $unwind$?DloadAcquireSectionWriteAccess@@YAXXZ 000000018006c350     DelayImp:delayhlp.obj
 0002:00045350       $unwind$_calloc_base       000000018006c350     libucrt:calloc_base.obj
 0002:00045350       $unwind$_onexit            000000018006c350     LIBCMT:utility.obj
 0002:00045350       $unwind$__raise_securityfailure 000000018006c350     LIBCMT:gs_report.obj
 0002:00045350       $unwind$_set_statfp        000000018006c350     libucrt:fpctrl.obj
 0002:00045350       $unwind$__vcrt_FlsAlloc    000000018006c350     libvcruntime:winapi_downlevel.obj
 0002:00045350       $unwind$?internal_isupper_l@@YA_NHQEAU__crt_locale_pointers@@@Z 000000018006c350     libucrt:tolower_toupper.obj
 0002:00045350       $unwind$_clrfp             000000018006c350     libucrt:fpctrl.obj
 0002:00045350       $unwind$?exit_or_terminate_process@@YAXI@Z 000000018006c350     libucrt:exit.obj
 0002:00045350       $unwind$?_Tidy@?$vector@U?$pair@PEBE_K@std@@V?$allocator@U?$pair@PEBE_K@std@@@2@@std@@AEAAXXZ 000000018006c350     woff2_dec.obj
 0002:00045350       $unwind$__acrt_uninitialize_locks 000000018006c350     libucrt:locks.obj
 0002:00045350       $unwind$initialize_pointers 000000018006c350     libucrt:initialization.obj
 0002:00045350       $unwind$??0logic_error@std@@QEAA@AEBV01@@Z 000000018006c350     libcpmt:xthrow.obj
 0002:00045350       $unwind$__scrt_release_startup_lock 000000018006c350     LIBCMT:utility.obj
 0002:00045350       $unwind$__acrt_get_process_end_policy 000000018006c350     libucrt:win_policies.obj
 0002:00045350       $unwind$__acrt_allocate_buffer_for_argv 000000018006c350     libucrt:argv_parsing.obj
 0002:00045350       $unwind$_CreateFrameInfo   000000018006c350     libvcruntime:risctrnsctrl.obj
 0002:00045350       $unwind$uninitialize_allocated_memory 000000018006c350     libucrt:initialization.obj
 0002:00045350       $unwind$??_GWOFF2Out@woff2@@UEAAPEAXI@Z 000000018006c350     woff2_dec.obj
 0002:00045350       $unwind$__acrt_get_developer_information_policy 000000018006c350     libucrt:win_policies.obj
 0002:00045350       $unwind$?stream_is_at_end_of_file_nolock@@YA_NV__crt_stdio_stream@@@Z 000000018006c350     libucrt:_flsbuf.obj
 0002:00045350       $unwind$__acrt_get_windowing_model_policy 000000018006c350     libucrt:win_policies.obj
 0002:00045350       $unwind$wcscpy_s           000000018006c350     libucrt:wcscpy_s.obj
 0002:00045350       $unwind$__scrt_uninitialize_crt 000000018006c350     LIBCMT:utility.obj
 0002:00045350       $unwind$strcpy_s           000000018006c350     libucrt:strcpy_s.obj
 0002:00045350       $unwind$??0length_error@std@@QEAA@AEBV01@@Z 000000018006c350     libcpmt:xthrow.obj
 0002:00045350       $unwind$?_Tidy@?$vector@UTable@woff2@@V?$allocator@UTable@woff2@@@std@@@std@@AEAAXXZ 000000018006c350     woff2_dec.obj
 0002:00045350       $unwind$_fflush_nolock     000000018006c350     libucrt:fflush.obj
 0002:00045350       $unwind$__vcrt_initialize_locks 000000018006c350     libvcruntime:locks.obj
 0002:00045350       $unwind$__acrt_uninitialize_stdio 000000018006c350     libucrt:_file.obj
 0002:00045350       $unwind$?_Tidy@?$vector@IV?$allocator@I@std@@@std@@AEAAXXZ 000000018006c350     font.obj
 0002:00045350       $unwind$??0bad_array_new_length@std@@QEAA@AEBV01@@Z 000000018006c350     LIBCMT:throw_bad_alloc.obj
 0002:00045350       $unwind$?GetUnwindTryBlock@__FrameHandler3@@SAHPEA_KPEAU_xDISPATCHER_CONTEXT@@PEBU_s_FuncInfo@@@Z 000000018006c350     libvcruntime:ehstate.obj
 0002:00045350       $unwind$__scrt_initialize_crt 000000018006c350     LIBCMT:utility.obj
 0002:00045350       $unwind$__acrt_initialize_locks 000000018006c350     libucrt:locks.obj
 0002:00045350       $unwind$__std_type_info_destroy_list 000000018006c350     libvcruntime:std_type_info.obj
 0002:00045350       $unwind$_clearfp           000000018006c350     libucrt:ieee.obj
 0002:00045350       $unwind$__acrt_update_multibyte_info 000000018006c350     libucrt:locale_update.obj
 0002:00045350       $unwind$?StateFromIp@__FrameHandler3@@SAHPEBU_s_FuncInfo@@PEAU_xDISPATCHER_CONTEXT@@_K@Z 000000018006c350     libvcruntime:ehstate.obj
 0002:00045350       $unwind$__vcrt_uninitialize_locks 000000018006c350     libvcruntime:locks.obj
 0002:00045350       $unwind$?initialize_pointers@@YAHXZ 000000018006c350     libcpmt:winapisupp.obj
 0002:00045350       $unwind$__vcrt_freeptd     000000018006c350     libvcruntime:per_thread_data.obj
 0002:00045350       $unwind$__vcrt_FlsFree     000000018006c350     libvcruntime:winapi_downlevel.obj
 0002:00045350       $unwind$_callnewh          000000018006c350     libucrt:new_handler.obj
 0002:00045350       $unwind$__acrt_update_locale_info 000000018006c350     libucrt:locale_update.obj
 0002:00045358       $unwind$__acrt_stdio_flush_and_write_narrow_nolock 000000018006c358     libucrt:_flsbuf.obj
 0002:00045358       $unwind$??0_Init_locks@std@@QEAA@XZ 000000018006c358     libcpmt:xlock.obj
 0002:00045358       $unwind$__acrt_execute_initializers 000000018006c358     libucrt:shared_initialization.obj
 0002:00045358       $unwind$__acrt_stdio_flush_and_write_wide_nolock 000000018006c358     libucrt:_flsbuf.obj
 0002:00045358       $unwind$?Write@WOFF2MemoryOut@woff2@@UEAA_NPEBX_K1@Z 000000018006c358     woff2_out.obj
 0002:00045358       $unwind$?_Erase@?$_Tree@V?$_Tmap_traits@IGU?$less@I@std@@V?$allocator@U?$pair@$$CBIG@std@@@2@$0A@@std@@@std@@IEAAXPEAU?$_Tree_node@U?$pair@$$CBIG@std@@PEAX@2@@Z 000000018006c358     woff2_dec.obj
 0002:00045358       $unwind$_exception_enabled 000000018006c358     libucrt:libm_error.obj
 0002:00045358       $unwind$?CatchTryBlock@__FrameHandler3@@SAPEBU_s_TryBlockMapEntry@@PEBU_s_FuncInfo@@H@Z 000000018006c358     libvcruntime:risctrnsctrl.obj
 0002:00045358       $unwind$?_Erase@?$_Tree@V?$_Tmap_traits@U?$pair@II@std@@IU?$less@U?$pair@II@std@@@2@V?$allocator@U?$pair@$$CBU?$pair@II@std@@I@std@@@2@$0A@@std@@@std@@IEAAXPEAU?$_Tree_node@U?$pair@$$CBU?$pair@II@std@@I@std@@PEAX@2@@Z 000000018006c358     woff2_dec.obj
 0002:00045358       $unwind$??$common_lseek_nolock@_J@@YA_JH_JH@Z 000000018006c358     libucrt:lseek.obj
 0002:00045358       $unwind$?type_case_n@?$output_processor@_WV?$stream_output_adapter@_W@__crt_stdio_output@@V?$standard_base@_WV?$stream_output_adapter@_W@__crt_stdio_output@@@2@@__crt_stdio_output@@AEAA_NXZ 000000018006c358     libucrt:output.obj
 0002:00045358       $unwind$__acrt_stdio_flush_nolock 000000018006c358     libucrt:fflush.obj
 0002:00045358       $unwind$memcpy_s           000000018006c358     libucrt:cfout.obj
 0002:00045358       $unwind$_DllMainCRTStartup 000000018006c358     LIBCMT:dll_dllmain.obj
 0002:00045358       $unwind$__acrt_InitializeCriticalSectionEx 000000018006c358     libucrt:winapi_thunks.obj
 0002:00045358       $unwind$?free_crt_array_internal@@YAXQEAPEBX_K@Z 000000018006c358     libucrt:inittime.obj
 0002:00045358       $unwind$?type_case_s@?$output_processor@_WV?$string_output_adapter@_W@__crt_stdio_output@@V?$standard_base@_WV?$string_output_adapter@_W@__crt_stdio_output@@@2@@__crt_stdio_output@@AEAA_NXZ 000000018006c358     libucrt:output.obj
 0002:00045358       $unwind$??R<lambda_ca71763b3c0644891230e4f79ea54fa6>@@QEBAHXZ 000000018006c358     libucrt:setvbuf.obj
 0002:00045358       $unwind$?type_case_n@?$output_processor@_WV?$string_output_adapter@_W@__crt_stdio_output@@V?$standard_base@_WV?$string_output_adapter@_W@__crt_stdio_output@@@2@@__crt_stdio_output@@AEAA_NXZ 000000018006c358     libucrt:output.obj
 0002:00045358       $unwind$__vcrt_getptd_noexit 000000018006c358     libvcruntime:per_thread_data.obj
 0002:00045358       $unwind$?_Erase@?$_Tree@V?$_Tmap_traits@IIU?$less@I@std@@V?$allocator@U?$pair@$$CBII@std@@@2@$0A@@std@@@std@@IEAAXPEAU?$_Tree_node@U?$pair@$$CBII@std@@PEAX@2@@Z 000000018006c358     font.obj
 0002:00045358       $unwind$?type_case_Z@?$output_processor@_WV?$stream_output_adapter@_W@__crt_stdio_output@@V?$standard_base@_WV?$stream_output_adapter@_W@__crt_stdio_output@@@2@@__crt_stdio_output@@AEAA_NXZ 000000018006c358     libucrt:output.obj
 0002:00045358       $unwind$__acrt_getptd_noexit 000000018006c358     libucrt:per_thread_data.obj
 0002:00045358       $unwind$?type_case_Z@?$output_processor@_WV?$string_output_adapter@_W@__crt_stdio_output@@V?$standard_base@_WV?$string_output_adapter@_W@__crt_stdio_output@@@2@@__crt_stdio_output@@AEAA_NXZ 000000018006c358     libucrt:output.obj
 0002:00045358       $unwind$?type_case_s@?$output_processor@_WV?$stream_output_adapter@_W@__crt_stdio_output@@V?$standard_base@_WV?$stream_output_adapter@_W@__crt_stdio_output@@@2@@__crt_stdio_output@@AEAA_NXZ 000000018006c358     libucrt:output.obj
 0002:00045358       $unwind$??0_LocaleUpdate@@QEAA@QEAU__crt_locale_pointers@@@Z 000000018006c358     libucrt:output.obj
 0002:00045358       $unwind$__vcrt_InitializeCriticalSectionEx 000000018006c358     libvcruntime:winapi_downlevel.obj
 0002:00045358       $unwind$__acrt_getptd      000000018006c358     libucrt:per_thread_data.obj
 0002:00045358       $unwind$?FrameUnwindToEmptyState@__FrameHandler3@@SAXPEA_KPEAU_xDISPATCHER_CONTEXT@@PEBU_s_FuncInfo@@@Z 000000018006c358     libvcruntime:risctrnsctrl.obj
 0002:00045358       $unwind$memcpy_s           000000018006c358     libucrt:strtod.obj
 0002:00045368       $unwind$??$_Emplace_reallocate@AEBI@?$vector@IV?$allocator@I@std@@@std@@QEAAPEAIQEAIAEBI@Z 000000018006c368     font.obj
 0002:00045368       $unwind$??$_Emplace_reallocate@PEAUTable@woff2@@@?$vector@PEAUTable@woff2@@V?$allocator@PEAUTable@woff2@@@std@@@std@@QEAAPEAPEAUTable@woff2@@QEAPEAU23@$$QEAPEAU23@@Z 000000018006c368     woff2_dec.obj
 0002:00045368       $unwind$??$_Emplace_reallocate@AEBF@?$vector@FV?$allocator@F@std@@@std@@QEAAPEAFQEAFAEBF@Z 000000018006c368     transform.obj
 0002:00045368       $unwind$??$_Emplace_reallocate@AEBG@?$vector@GV?$allocator@G@std@@@std@@QEAAPEAGQEAGAEBG@Z 000000018006c368     transform.obj
 0002:00045378       $chain$3$??$_Emplace_reallocate@AEBI@?$vector@IV?$allocator@I@std@@@std@@QEAAPEAIQEAIAEBI@Z 000000018006c378     font.obj
 0002:00045398       $chain$5$??$_Emplace_reallocate@AEBI@?$vector@IV?$allocator@I@std@@@std@@QEAAPEAIQEAIAEBI@Z 000000018006c398     font.obj
 0002:000453b8       $chain$6$??$_Emplace_reallocate@AEBI@?$vector@IV?$allocator@I@std@@@std@@QEAAPEAIQEAIAEBI@Z 000000018006c3b8     font.obj
 0002:000453c8       $unwind$__acrt_thread_detach 000000018006c3c8     libucrt:initialization.obj
 0002:000453c8       $unwind$__doserrno         000000018006c3c8     libucrt:errno.obj
 0002:000453c8       $unwind$?_Xlength@?$vector@PEAUTable@woff2@@V?$allocator@PEAUTable@woff2@@@std@@@std@@CAXXZ 000000018006c3c8     woff2_dec.obj
 0002:000453c8       $unwind$__scrt_initialize_default_local_stdio_options 000000018006c3c8     LIBCMT:default_local_stdio_options.obj
 0002:000453c8       $unwind$_GetThrowImageBase 000000018006c3c8     libvcruntime:risctrnsctrl.obj
 0002:000453c8       $unwind$?_Xlength@?$vector@UWOFF2FontInfo@?A0x4a477eb2@woff2@@V?$allocator@UWOFF2FontInfo@?A0x4a477eb2@woff2@@@std@@@std@@CAXXZ 000000018006c3c8     woff2_dec.obj
 0002:000453c8       $unwind$?_Xlength@?$vector@GV?$allocator@G@std@@@std@@CAXXZ 000000018006c3c8     transform.obj
 0002:000453c8       $unwind$?_Xlength@?$vector@UTtcFont@?A0x4a477eb2@woff2@@V?$allocator@UTtcFont@?A0x4a477eb2@woff2@@@std@@@std@@CAXXZ 000000018006c3c8     woff2_dec.obj
 0002:000453c8       $unwind$?_Xlength@?$vector@IV?$allocator@I@std@@@std@@CAXXZ 000000018006c3c8     font.obj
 0002:000453c8       $unwind$?_Xlength@?$vector@FV?$allocator@F@std@@@std@@CAXXZ 000000018006c3c8     transform.obj
 0002:000453c8       $unwind$initialize_c       000000018006c3c8     libucrt:initialization.obj
 0002:000453c8       $unwind$?DloadReleaseSectionWriteAccess@@YAXXZ 000000018006c3c8     DelayImp:delayhlp.obj
 0002:000453c8       $unwind$__acrt_initialize_ptd 000000018006c3c8     libucrt:per_thread_data.obj
 0002:000453c8       $unwind$__acrt_thread_attach 000000018006c3c8     libucrt:initialization.obj
 0002:000453c8       $unwind$tolower            000000018006c3c8     libucrt:tolower_toupper.obj
 0002:000453c8       $unwind$__report_rangecheckfailure 000000018006c3c8     LIBCMT:gs_report.obj
 0002:000453c8       $unwind$atexit             000000018006c3c8     LIBCMT:utility.obj
 0002:000453c8       $unwind$__dcrt_terminate_console_output 000000018006c3c8     libucrt:initcon.obj
 0002:000453c8       $unwind$__acrt_uninitialize_ptd 000000018006c3c8     libucrt:per_thread_data.obj
 0002:000453c8       $unwind$__scrt_dllmain_crt_thread_detach 000000018006c3c8     LIBCMT:utility.obj
 0002:000453c8       $unwind$__acrt_update_thread_multibyte_data 000000018006c3c8     libucrt:mbctype.obj
 0002:000453c8       $unwind$__vcrt_freefls     000000018006c3c8     libvcruntime:per_thread_data.obj
 0002:000453c8       $unwind$_errno             000000018006c3c8     libucrt:errno.obj
 0002:000453c8       $unwind$__scrt_acquire_startup_lock 000000018006c3c8     LIBCMT:utility.obj
 0002:000453c8       $unwind$__scrt_dllmain_crt_thread_attach 000000018006c3c8     LIBCMT:utility.obj
 0002:000453c8       $unwind$_msize_base        000000018006c3c8     libucrt:msize.obj
 0002:000453c8       $unwind$__acrt_uninitialize_critical 000000018006c3c8     libucrt:initialization.obj
 0002:000453c8       $unwind$__GSHandlerCheck   000000018006c3c8     LIBCMT:gshandler.obj
 0002:000453c8       $unwind$__scrt_dllmain_uninitialize_critical 000000018006c3c8     LIBCMT:utility.obj
 0002:000453c8       $unwind$__vcrt_getptd      000000018006c3c8     libvcruntime:per_thread_data.obj
 0002:000453c8       $unwind$?initialize_multibyte@@YAHXZ 000000018006c3c8     libucrt:multibyte_initializer.obj
 0002:000453c8       $unwind$_GetImageBase      000000018006c3c8     libvcruntime:risctrnsctrl.obj
 0002:000453c8       $unwind$__scrt_dllmain_uninitialize_c 000000018006c3c8     LIBCMT:utility.obj
 0002:000453c8       $unwind$__pctype_func      000000018006c3c8     libucrt:ctype.obj
 0002:000453c8       $unwind$uninitialize_environment 000000018006c3c8     libucrt:initialization.obj
 0002:000453c8       $unwind$abort              000000018006c3c8     libucrt:abort.obj
 0002:000453c8       $unwind$_statfp            000000018006c3c8     libucrt:fpctrl.obj
 0002:000453c8       $unwind$__scrt_dllmain_after_initialize_c 000000018006c3c8     LIBCMT:utility.obj
 0002:000453c8       $unwind$__dcrt_uninitialize_environments_nolock 000000018006c3c8     libucrt:environment_initialization.obj
 0002:000453c8       $unwind$__scrt_dllmain_before_initialize_c 000000018006c3c8     LIBCMT:utility.obj
 0002:000453c8       $unwind$??$uninitialize_environment_internal@D@@YAXAEAPEAPEAD@Z 000000018006c3c8     libucrt:environment_initialization.obj
 0002:000453c8       $unwind$??$uninitialize_environment_internal@_W@@YAXAEAPEAPEA_W@Z 000000018006c3c8     libucrt:environment_initialization.obj
 0002:000453c8       $unwind$_set_error_mode    000000018006c3c8     libucrt:set_error_mode.obj
 0002:000453c8       $unwind$?_Xlength@?$vector@EV?$allocator@E@std@@@std@@CAXXZ 000000018006c3c8     font.obj
 0002:000453c8       $unwind$_purecall          000000018006c3c8     libvcruntime:purevirt.obj
 0002:000453c8       $unwind$__acrt_initialize_multibyte 000000018006c3c8     libucrt:mbctype.obj
 0002:000453c8       $unwind$_invoke_watson     000000018006c3c8     libucrt:invalid_parameter.obj
 0002:000453c8       $unwind$_stricmp           000000018006c3c8     libucrt:stricmp.obj
 0002:000453c8       $unwind$_fileno            000000018006c3c8     libucrt:fileno.obj
 0002:000453c8       $unwind$??__Einitlocks@std@@YAXXZ 000000018006c3c8     libcpmt:xlock.obj
 0002:000453c8       $unwind$__acrt_initialize_command_line 000000018006c3c8     libucrt:argv_data.obj
 0002:000453c8       $unwind$__std_terminate    000000018006c3c8     libvcruntime:ehhelpers.obj
 0002:000453c8       $unwind$_set_errno_from_matherr 000000018006c3c8     libucrt:fpexcept.obj
 0002:000453c8       $unwind$?GetCurrentState@__FrameHandler3@@SAHPEA_KPEAU_xDISPATCHER_CONTEXT@@PEBU_s_FuncInfo@@@Z 000000018006c3c8     libvcruntime:ehstate.obj
 0002:000453c8       $unwind$?dllmain_crt_dispatch@@YAHQEAUHINSTANCE__@@KQEAX@Z 000000018006c3c8     LIBCMT:dll_dllmain.obj
 0002:000453c8       $unwind$__crtInitializeCriticalSectionEx 000000018006c3c8     libcpmt:winapisupp.obj
 0002:000453c8       $unwind$__FrameUnwindFilter 000000018006c3c8     libvcruntime:ehhelpers.obj
 0002:000453c8       $unwind$__vcrt_uninitialize_ptd 000000018006c3c8     libvcruntime:per_thread_data.obj
 0002:000453c8       $unwind$?state_case_size@?$output_processor@_WV?$string_output_adapter@_W@__crt_stdio_output@@V?$standard_base@_WV?$string_output_adapter@_W@__crt_stdio_output@@@2@@__crt_stdio_output@@AEAA_NXZ 000000018006c3c8     libucrt:output.obj
 0002:000453c8       $unwind$__vcrt_initialize_ptd 000000018006c3c8     libvcruntime:per_thread_data.obj
 0002:000453c8       $unwind$__acrt_initialize_heap 000000018006c3c8     libucrt:heap_handle.obj
 0002:000453c8       $unwind$?state_case_size@?$output_processor@_WV?$stream_output_adapter@_W@__crt_stdio_output@@V?$standard_base@_WV?$stream_output_adapter@_W@__crt_stdio_output@@@2@@__crt_stdio_output@@AEAA_NXZ 000000018006c3c8     libucrt:output.obj
 0002:000453c8       $unwind$__acrt_release_locale_ref 000000018006c3c8     libucrt:locale_refcounting.obj
 0002:000453c8       $unwind$__vcrt_thread_detach 000000018006c3c8     libvcruntime:initialization.obj
 0002:000453c8       $unwind$_isatty            000000018006c3c8     libucrt:isatty.obj
 0002:000453c8       $unwind$__vcrt_thread_attach 000000018006c3c8     libvcruntime:initialization.obj
 0002:000453c8       $unwind$?__c32rtomb_utf8@__crt_mbstring@@YA_KPEAD_UPEAU_Mbstatet@@@Z 000000018006c3c8     libucrt:c32rtomb.obj
 0002:000453c8       $unwind$?_Xlength@?$vector@UTable@woff2@@V?$allocator@UTable@woff2@@@std@@@std@@CAXXZ 000000018006c3c8     woff2_dec.obj
 0002:000453c8       $unwind$__vcrt_uninitialize_critical 000000018006c3c8     libvcruntime:initialization.obj
 0002:000453c8       $unwind$uninitialize_allocated_io_buffers 000000018006c3c8     libucrt:initialization.obj
 0002:000453c8       $unwind$__acrt_AreFileApisANSI 000000018006c3c8     libucrt:winapi_thunks.obj
 0002:000453c8       $unwind$_get_osfhandle     000000018006c3c8     libucrt:osfinfo.obj
 0002:000453c8       $unwind$__vcrt_uninitialize 000000018006c3c8     libvcruntime:initialization.obj
 0002:000453c8       $unwind$__vcrt_initialize  000000018006c3c8     libvcruntime:initialization.obj
 0002:000453c8       $unwind$??__Einitlocks@std@@YAXXZ 000000018006c3c8     libcpmt:iosptrs.obj
 0002:000453c8       $unwind$__acrt_uninitialize 000000018006c3c8     libucrt:initialization.obj
 0002:000453c8       $unwind$__acrt_DownlevelLocaleNameToLCID 000000018006c3c8     libucrt:lcidtoname_downlevel.obj
 0002:000453d0       $unwind$??$_Insert_hint@AEAU?$pair@$$CBIG@std@@PEAU?$_Tree_node@U?$pair@$$CBIG@std@@PEAX@2@@?$_Tree@V?$_Tmap_traits@IGU?$less@I@std@@V?$allocator@U?$pair@$$CBIG@std@@@2@$0A@@std@@@std@@IEAA?AV?$_Tree_iterator@V?$_Tree_val@U?$_Tree_simple_types@U?$pair@$$CBIG@std@@@std@@@std@@@1@V?$_Tree_const_iterator@V?$_Tree_val@U?$_Tree_simple_types@U?$pair@$$CBIG@std@@@std@@@std@@@1@AEAU?$pair@$$CBIG@1@PEAU?$_Tree_node@U?$pair@$$CBIG@std@@PEAX@1@@Z 000000018006c3d0     woff2_dec.obj
 0002:000453d0       $unwind$??$_Insert_hint@AEAU?$pair@$$CBII@std@@PEAU?$_Tree_node@U?$pair@$$CBII@std@@PEAX@2@@?$_Tree@V?$_Tmap_traits@IIU?$less@I@std@@V?$allocator@U?$pair@$$CBII@std@@@2@$0A@@std@@@std@@IEAA?AV?$_Tree_iterator@V?$_Tree_val@U?$_Tree_simple_types@U?$pair@$$CBII@std@@@std@@@std@@@1@V?$_Tree_const_iterator@V?$_Tree_val@U?$_Tree_simple_types@U?$pair@$$CBII@std@@@std@@@std@@@1@AEAU?$pair@$$CBII@1@PEAU?$_Tree_node@U?$pair@$$CBII@std@@PEAX@1@@Z 000000018006c3d0     font.obj
 0002:000453dc       $chain$0$??$_Insert_hint@AEAU?$pair@$$CBIG@std@@PEAU?$_Tree_node@U?$pair@$$CBIG@std@@PEAX@2@@?$_Tree@V?$_Tmap_traits@IGU?$less@I@std@@V?$allocator@U?$pair@$$CBIG@std@@@2@$0A@@std@@@std@@IEAA?AV?$_Tree_iterator@V?$_Tree_val@U?$_Tree_simple_types@U?$pair@$$CBIG@std@@@std@@@std@@@1@V?$_Tree_const_iterator@V?$_Tree_val@U?$_Tree_simple_types@U?$pair@$$CBIG@std@@@std@@@std@@@1@AEAU?$pair@$$CBIG@1@PEAU?$_Tree_node@U?$pair@$$CBIG@std@@PEAX@1@@Z 000000018006c3dc     woff2_dec.obj
 0002:000453dc       $chain$0$??$_Insert_hint@AEAU?$pair@$$CBII@std@@PEAU?$_Tree_node@U?$pair@$$CBII@std@@PEAX@2@@?$_Tree@V?$_Tmap_traits@IIU?$less@I@std@@V?$allocator@U?$pair@$$CBII@std@@@2@$0A@@std@@@std@@IEAA?AV?$_Tree_iterator@V?$_Tree_val@U?$_Tree_simple_types@U?$pair@$$CBII@std@@@std@@@std@@@1@V?$_Tree_const_iterator@V?$_Tree_val@U?$_Tree_simple_types@U?$pair@$$CBII@std@@@std@@@std@@@1@AEAU?$pair@$$CBII@1@PEAU?$_Tree_node@U?$pair@$$CBII@std@@PEAX@1@@Z 000000018006c3dc     font.obj
 0002:000453f0       $chain$6$??$_Insert_hint@AEAU?$pair@$$CBIG@std@@PEAU?$_Tree_node@U?$pair@$$CBIG@std@@PEAX@2@@?$_Tree@V?$_Tmap_traits@IGU?$less@I@std@@V?$allocator@U?$pair@$$CBIG@std@@@2@$0A@@std@@@std@@IEAA?AV?$_Tree_iterator@V?$_Tree_val@U?$_Tree_simple_types@U?$pair@$$CBIG@std@@@std@@@std@@@1@V?$_Tree_const_iterator@V?$_Tree_val@U?$_Tree_simple_types@U?$pair@$$CBIG@std@@@std@@@std@@@1@AEAU?$pair@$$CBIG@1@PEAU?$_Tree_node@U?$pair@$$CBIG@std@@PEAX@1@@Z 000000018006c3f0     woff2_dec.obj
 0002:000453f0       $chain$4$??$_Insert_hint@AEAU?$pair@$$CBII@std@@PEAU?$_Tree_node@U?$pair@$$CBII@std@@PEAX@2@@?$_Tree@V?$_Tmap_traits@IIU?$less@I@std@@V?$allocator@U?$pair@$$CBII@std@@@2@$0A@@std@@@std@@IEAA?AV?$_Tree_iterator@V?$_Tree_val@U?$_Tree_simple_types@U?$pair@$$CBII@std@@@std@@@std@@@1@V?$_Tree_const_iterator@V?$_Tree_val@U?$_Tree_simple_types@U?$pair@$$CBII@std@@@std@@@std@@@1@AEAU?$pair@$$CBII@1@PEAU?$_Tree_node@U?$pair@$$CBII@std@@PEAX@1@@Z 000000018006c3f0     font.obj
 0002:000453f0       $chain$6$??$_Insert_hint@AEAU?$pair@$$CBII@std@@PEAU?$_Tree_node@U?$pair@$$CBII@std@@PEAX@2@@?$_Tree@V?$_Tmap_traits@IIU?$less@I@std@@V?$allocator@U?$pair@$$CBII@std@@@2@$0A@@std@@@std@@IEAA?AV?$_Tree_iterator@V?$_Tree_val@U?$_Tree_simple_types@U?$pair@$$CBII@std@@@std@@@std@@@1@V?$_Tree_const_iterator@V?$_Tree_val@U?$_Tree_simple_types@U?$pair@$$CBII@std@@@std@@@std@@@1@AEAU?$pair@$$CBII@1@PEAU?$_Tree_node@U?$pair@$$CBII@std@@PEAX@1@@Z 000000018006c3f0     font.obj
 0002:000453f0       $chain$2$??$_Insert_hint@AEAU?$pair@$$CBII@std@@PEAU?$_Tree_node@U?$pair@$$CBII@std@@PEAX@2@@?$_Tree@V?$_Tmap_traits@IIU?$less@I@std@@V?$allocator@U?$pair@$$CBII@std@@@2@$0A@@std@@@std@@IEAA?AV?$_Tree_iterator@V?$_Tree_val@U?$_Tree_simple_types@U?$pair@$$CBII@std@@@std@@@std@@@1@V?$_Tree_const_iterator@V?$_Tree_val@U?$_Tree_simple_types@U?$pair@$$CBII@std@@@std@@@std@@@1@AEAU?$pair@$$CBII@1@PEAU?$_Tree_node@U?$pair@$$CBII@std@@PEAX@1@@Z 000000018006c3f0     font.obj
 0002:000453f0       $chain$4$??$_Insert_hint@AEAU?$pair@$$CBIG@std@@PEAU?$_Tree_node@U?$pair@$$CBIG@std@@PEAX@2@@?$_Tree@V?$_Tmap_traits@IGU?$less@I@std@@V?$allocator@U?$pair@$$CBIG@std@@@2@$0A@@std@@@std@@IEAA?AV?$_Tree_iterator@V?$_Tree_val@U?$_Tree_simple_types@U?$pair@$$CBIG@std@@@std@@@std@@@1@V?$_Tree_const_iterator@V?$_Tree_val@U?$_Tree_simple_types@U?$pair@$$CBIG@std@@@std@@@std@@@1@AEAU?$pair@$$CBIG@1@PEAU?$_Tree_node@U?$pair@$$CBIG@std@@PEAX@1@@Z 000000018006c3f0     woff2_dec.obj
 0002:000453f0       $chain$2$??$_Insert_hint@AEAU?$pair@$$CBIG@std@@PEAU?$_Tree_node@U?$pair@$$CBIG@std@@PEAX@2@@?$_Tree@V?$_Tmap_traits@IGU?$less@I@std@@V?$allocator@U?$pair@$$CBIG@std@@@2@$0A@@std@@@std@@IEAA?AV?$_Tree_iterator@V?$_Tree_val@U?$_Tree_simple_types@U?$pair@$$CBIG@std@@@std@@@std@@@1@V?$_Tree_const_iterator@V?$_Tree_val@U?$_Tree_simple_types@U?$pair@$$CBIG@std@@@std@@@std@@@1@AEAU?$pair@$$CBIG@1@PEAU?$_Tree_node@U?$pair@$$CBIG@std@@PEAX@1@@Z 000000018006c3f0     woff2_dec.obj
 0002:00045404       $chain$9$??$_Insert_hint@AEAU?$pair@$$CBII@std@@PEAU?$_Tree_node@U?$pair@$$CBII@std@@PEAX@2@@?$_Tree@V?$_Tmap_traits@IIU?$less@I@std@@V?$allocator@U?$pair@$$CBII@std@@@2@$0A@@std@@@std@@IEAA?AV?$_Tree_iterator@V?$_Tree_val@U?$_Tree_simple_types@U?$pair@$$CBII@std@@@std@@@std@@@1@V?$_Tree_const_iterator@V?$_Tree_val@U?$_Tree_simple_types@U?$pair@$$CBII@std@@@std@@@std@@@1@AEAU?$pair@$$CBII@1@PEAU?$_Tree_node@U?$pair@$$CBII@std@@PEAX@1@@Z 000000018006c404     font.obj
 0002:00045404       $chain$9$??$_Insert_hint@AEAU?$pair@$$CBIG@std@@PEAU?$_Tree_node@U?$pair@$$CBIG@std@@PEAX@2@@?$_Tree@V?$_Tmap_traits@IGU?$less@I@std@@V?$allocator@U?$pair@$$CBIG@std@@@2@$0A@@std@@@std@@IEAA?AV?$_Tree_iterator@V?$_Tree_val@U?$_Tree_simple_types@U?$pair@$$CBIG@std@@@std@@@std@@@1@V?$_Tree_const_iterator@V?$_Tree_val@U?$_Tree_simple_types@U?$pair@$$CBIG@std@@@std@@@std@@@1@AEAU?$pair@$$CBIG@1@PEAU?$_Tree_node@U?$pair@$$CBIG@std@@PEAX@1@@Z 000000018006c404     woff2_dec.obj
 0002:0004541c       $unwind$??$_Insert_at@AEAU?$pair@$$CBU?$pair@II@std@@I@std@@PEAU?$_Tree_node@U?$pair@$$CBU?$pair@II@std@@I@std@@PEAX@2@@?$_Tree@V?$_Tmap_traits@U?$pair@II@std@@IU?$less@U?$pair@II@std@@@2@V?$allocator@U?$pair@$$CBU?$pair@II@std@@I@std@@@2@$0A@@std@@@std@@IEAA?AV?$_Tree_iterator@V?$_Tree_val@U?$_Tree_simple_types@U?$pair@$$CBU?$pair@II@std@@I@std@@@std@@@std@@@1@_NPEAU?$_Tree_node@U?$pair@$$CBU?$pair@II@std@@I@std@@PEAX@1@AEAU?$pair@$$CBU?$pair@II@std@@I@1@1@Z 000000018006c41c     woff2_dec.obj
 0002:0004541c       $unwind$??$_Insert_at@AEAU?$pair@$$CBII@std@@PEAU?$_Tree_node@U?$pair@$$CBII@std@@PEAX@2@@?$_Tree@V?$_Tmap_traits@IIU?$less@I@std@@V?$allocator@U?$pair@$$CBII@std@@@2@$0A@@std@@@std@@IEAA?AV?$_Tree_iterator@V?$_Tree_val@U?$_Tree_simple_types@U?$pair@$$CBII@std@@@std@@@std@@@1@_NPEAU?$_Tree_node@U?$pair@$$CBII@std@@PEAX@1@AEAU?$pair@$$CBII@1@1@Z 000000018006c41c     font.obj
 0002:0004541c       $unwind$??$_Insert_at@AEAU?$pair@$$CBIG@std@@PEAU?$_Tree_node@U?$pair@$$CBIG@std@@PEAX@2@@?$_Tree@V?$_Tmap_traits@IGU?$less@I@std@@V?$allocator@U?$pair@$$CBIG@std@@@2@$0A@@std@@@std@@IEAA?AV?$_Tree_iterator@V?$_Tree_val@U?$_Tree_simple_types@U?$pair@$$CBIG@std@@@std@@@std@@@1@_NPEAU?$_Tree_node@U?$pair@$$CBIG@std@@PEAX@1@AEAU?$pair@$$CBIG@1@1@Z 000000018006c41c     woff2_dec.obj
 0002:00045424       $chain$0$??$_Insert_at@AEAU?$pair@$$CBIG@std@@PEAU?$_Tree_node@U?$pair@$$CBIG@std@@PEAX@2@@?$_Tree@V?$_Tmap_traits@IGU?$less@I@std@@V?$allocator@U?$pair@$$CBIG@std@@@2@$0A@@std@@@std@@IEAA?AV?$_Tree_iterator@V?$_Tree_val@U?$_Tree_simple_types@U?$pair@$$CBIG@std@@@std@@@std@@@1@_NPEAU?$_Tree_node@U?$pair@$$CBIG@std@@PEAX@1@AEAU?$pair@$$CBIG@1@1@Z 000000018006c424     woff2_dec.obj
 0002:00045424       $chain$0$??$_Insert_at@AEAU?$pair@$$CBU?$pair@II@std@@I@std@@PEAU?$_Tree_node@U?$pair@$$CBU?$pair@II@std@@I@std@@PEAX@2@@?$_Tree@V?$_Tmap_traits@U?$pair@II@std@@IU?$less@U?$pair@II@std@@@2@V?$allocator@U?$pair@$$CBU?$pair@II@std@@I@std@@@2@$0A@@std@@@std@@IEAA?AV?$_Tree_iterator@V?$_Tree_val@U?$_Tree_simple_types@U?$pair@$$CBU?$pair@II@std@@I@std@@@std@@@std@@@1@_NPEAU?$_Tree_node@U?$pair@$$CBU?$pair@II@std@@I@std@@PEAX@1@AEAU?$pair@$$CBU?$pair@II@std@@I@1@1@Z 000000018006c424     woff2_dec.obj
 0002:00045424       $chain$0$??$_Insert_at@AEAU?$pair@$$CBII@std@@PEAU?$_Tree_node@U?$pair@$$CBII@std@@PEAX@2@@?$_Tree@V?$_Tmap_traits@IIU?$less@I@std@@V?$allocator@U?$pair@$$CBII@std@@@2@$0A@@std@@@std@@IEAA?AV?$_Tree_iterator@V?$_Tree_val@U?$_Tree_simple_types@U?$pair@$$CBII@std@@@std@@@std@@@1@_NPEAU?$_Tree_node@U?$pair@$$CBII@std@@PEAX@1@AEAU?$pair@$$CBII@1@1@Z 000000018006c424     font.obj
 0002:00045438       $chain$1$??$_Insert_at@AEAU?$pair@$$CBII@std@@PEAU?$_Tree_node@U?$pair@$$CBII@std@@PEAX@2@@?$_Tree@V?$_Tmap_traits@IIU?$less@I@std@@V?$allocator@U?$pair@$$CBII@std@@@2@$0A@@std@@@std@@IEAA?AV?$_Tree_iterator@V?$_Tree_val@U?$_Tree_simple_types@U?$pair@$$CBII@std@@@std@@@std@@@1@_NPEAU?$_Tree_node@U?$pair@$$CBII@std@@PEAX@1@AEAU?$pair@$$CBII@1@1@Z 000000018006c438     font.obj
 0002:00045438       $chain$1$??$_Insert_at@AEAU?$pair@$$CBIG@std@@PEAU?$_Tree_node@U?$pair@$$CBIG@std@@PEAX@2@@?$_Tree@V?$_Tmap_traits@IGU?$less@I@std@@V?$allocator@U?$pair@$$CBIG@std@@@2@$0A@@std@@@std@@IEAA?AV?$_Tree_iterator@V?$_Tree_val@U?$_Tree_simple_types@U?$pair@$$CBIG@std@@@std@@@std@@@1@_NPEAU?$_Tree_node@U?$pair@$$CBIG@std@@PEAX@1@AEAU?$pair@$$CBIG@1@1@Z 000000018006c438     woff2_dec.obj
 0002:00045438       $chain$1$??$_Insert_at@AEAU?$pair@$$CBU?$pair@II@std@@I@std@@PEAU?$_Tree_node@U?$pair@$$CBU?$pair@II@std@@I@std@@PEAX@2@@?$_Tree@V?$_Tmap_traits@U?$pair@II@std@@IU?$less@U?$pair@II@std@@@2@V?$allocator@U?$pair@$$CBU?$pair@II@std@@I@std@@@2@$0A@@std@@@std@@IEAA?AV?$_Tree_iterator@V?$_Tree_val@U?$_Tree_simple_types@U?$pair@$$CBU?$pair@II@std@@I@std@@@std@@@std@@@1@_NPEAU?$_Tree_node@U?$pair@$$CBU?$pair@II@std@@I@std@@PEAX@1@AEAU?$pair@$$CBU?$pair@II@std@@I@1@1@Z 000000018006c438     woff2_dec.obj
 0002:00045448       $chain$3$??$_Emplace_reallocate@AEBF@?$vector@FV?$allocator@F@std@@@std@@QEAAPEAFQEAFAEBF@Z 000000018006c448     transform.obj
 0002:00045448       $chain$3$??$_Emplace_reallocate@AEBG@?$vector@GV?$allocator@G@std@@@std@@QEAAPEAGQEAGAEBG@Z 000000018006c448     transform.obj
 0002:00045468       $chain$5$??$_Emplace_reallocate@AEBF@?$vector@FV?$allocator@F@std@@@std@@QEAAPEAFQEAFAEBF@Z 000000018006c468     transform.obj
 0002:00045468       $chain$5$??$_Emplace_reallocate@AEBG@?$vector@GV?$allocator@G@std@@@std@@QEAAPEAGQEAGAEBG@Z 000000018006c468     transform.obj
 0002:00045488       $chain$6$??$_Emplace_reallocate@AEBG@?$vector@GV?$allocator@G@std@@@std@@QEAAPEAGQEAGAEBG@Z 000000018006c488     transform.obj
 0002:00045488       $chain$6$??$_Emplace_reallocate@AEBF@?$vector@FV?$allocator@F@std@@@std@@QEAAPEAFQEAFAEBF@Z 000000018006c488     transform.obj
 0002:00045498       $unwind$?ComputeULongSum@woff2@@YAIPEBE_K@Z 000000018006c498     woff2_common.obj
 0002:000454a4       $chain$0$?ComputeULongSum@woff2@@YAIPEBE_K@Z 000000018006c4a4     woff2_common.obj
 0002:000454b8       $chain$1$?ComputeULongSum@woff2@@YAIPEBE_K@Z 000000018006c4b8     woff2_common.obj
 0002:000454c8       $unwind$?TripletDecode@?A0x4a477eb2@woff2@@YA_NPEBE0_KIPEAUPoint@2@PEA_K@Z 000000018006c4c8     woff2_dec.obj
 0002:000454e0       $unwind$?StorePoints@?A0x4a477eb2@woff2@@YA_NIPEBUPoint@2@IIPEAE_KPEA_K@Z 000000018006c4e0     woff2_dec.obj
 0002:000454f8       $unwind$?ComputeBbox@?A0x4a477eb2@woff2@@YAXIPEBUPoint@2@PEAE@Z 000000018006c4f8     woff2_dec.obj
 0002:000454f8       $unwind$??$_Pop_heap_hole_by_index@PEAUTable@woff2@@U12@U?$less@X@std@@@std@@YAXPEAUTable@woff2@@_J1$$QEAU12@U?$less@X@0@@Z 000000018006c4f8     woff2_dec.obj
 0002:0004550c       $unwind$iswctype           000000018006c50c     libucrt:iswctype.obj
 0002:0004550c       $unwind$?Pad4@?A0x4a477eb2@woff2@@YA_NPEAVWOFF2Out@2@@Z 000000018006c50c     woff2_dec.obj
 0002:0004550c       $unwind$BrotliBuildSimpleHuffmanTable 000000018006c50c     huffman.obj
 0002:00045518       $unwind$?StoreLoca@?A0x4a477eb2@woff2@@YA_NAEBV?$vector@IV?$allocator@I@std@@@std@@HPEAIPEAVWOFF2Out@2@@Z 000000018006c518     woff2_dec.obj
 0002:00045528       $chain$3$?StoreLoca@?A0x4a477eb2@woff2@@YA_NAEBV?$vector@IV?$allocator@I@std@@@std@@HPEAIPEAVWOFF2Out@2@@Z 000000018006c528     woff2_dec.obj
 0002:00045548       $chain$5$?StoreLoca@?A0x4a477eb2@woff2@@YA_NAEBV?$vector@IV?$allocator@I@std@@@std@@HPEAIPEAVWOFF2Out@2@@Z 000000018006c548     woff2_dec.obj
 0002:00045568       $unwind$?ReconstructGlyf@?A0x4a477eb2@woff2@@YA_NPEBEPEAUTable@2@PEAI12PEAUWOFF2FontInfo@12@PEAVWOFF2Out@2@@Z 000000018006c568     woff2_dec.obj
 0002:00045580       $unwind$?ReconstructTransformedHmtx@?A0x4a477eb2@woff2@@YA_NPEBE_KGGAEBV?$vector@FV?$allocator@F@std@@@std@@PEAIPEAVWOFF2Out@2@@Z 000000018006c580     woff2_dec.obj
 0002:00045590       $chain$4$?ReconstructTransformedHmtx@?A0x4a477eb2@woff2@@YA_NPEBE_KGGAEBV?$vector@FV?$allocator@F@std@@@std@@PEAIPEAVWOFF2Out@2@@Z 000000018006c590     woff2_dec.obj
 0002:000455b4       $chain$5$?ReconstructTransformedHmtx@?A0x4a477eb2@woff2@@YA_NPEBE_KGGAEBV?$vector@FV?$allocator@F@std@@@std@@PEAIPEAVWOFF2Out@2@@Z 000000018006c5b4     woff2_dec.obj
 0002:000455c4       $chain$6$?ReconstructTransformedHmtx@?A0x4a477eb2@woff2@@YA_NPEBE_KGGAEBV?$vector@FV?$allocator@F@std@@@std@@PEAIPEAVWOFF2Out@2@@Z 000000018006c5c4     woff2_dec.obj
 0002:000455e8       $unwind$?ReadTableDirectory@?A0x4a477eb2@woff2@@YA_NPEAVBuffer@2@PEAV?$vector@UTable@woff2@@V?$allocator@UTable@woff2@@@std@@@std@@_K@Z 000000018006c5e8     woff2_dec.obj
 0002:00045600       $unwind$?ComputeOffsetToFirstTable@?A0x4a477eb2@woff2@@YA_KAEBUWOFF2Header@12@@Z 000000018006c600     woff2_dec.obj
 0002:00045608       $chain$0$?ComputeOffsetToFirstTable@?A0x4a477eb2@woff2@@YA_KAEBUWOFF2Header@12@@Z 000000018006c608     woff2_dec.obj
 0002:0004561c       $chain$1$?ComputeOffsetToFirstTable@?A0x4a477eb2@woff2@@YA_KAEBUWOFF2Header@12@@Z 000000018006c61c     woff2_dec.obj
 0002:0004562c       $unwind$?ReconstructFont@?A0x4a477eb2@woff2@@YA_NPEAEIPEAURebuildMetadata@12@PEAUWOFF2Header@12@_KPEAVWOFF2Out@2@@Z 000000018006c62c     woff2_dec.obj
 0002:00045644       $chain$4$?ReconstructFont@?A0x4a477eb2@woff2@@YA_NPEAEIPEAURebuildMetadata@12@PEAUWOFF2Header@12@_KPEAVWOFF2Out@2@@Z 000000018006c644     woff2_dec.obj
 0002:00045668       $chain$5$?ReconstructFont@?A0x4a477eb2@woff2@@YA_NPEAEIPEAURebuildMetadata@12@PEAUWOFF2Header@12@_KPEAVWOFF2Out@2@@Z 000000018006c668     woff2_dec.obj
 0002:00045678       $unwind$?ReadWOFF2Header@?A0x4a477eb2@woff2@@YA_NPEBE_KPEAUWOFF2Header@12@@Z 000000018006c678     woff2_dec.obj
 0002:00045690       $unwind$?WriteHeaders@?A0x4a477eb2@woff2@@YA_NPEBE_KPEAURebuildMetadata@12@PEAUWOFF2Header@12@PEAVWOFF2Out@2@@Z 000000018006c690     woff2_dec.obj
 0002:000456a8       $chain$0$?WriteHeaders@?A0x4a477eb2@woff2@@YA_NPEBE_KPEAURebuildMetadata@12@PEAUWOFF2Header@12@PEAVWOFF2Out@2@@Z 000000018006c6a8     woff2_dec.obj
 0002:000456bc       $chain$1$?WriteHeaders@?A0x4a477eb2@woff2@@YA_NPEBE_KPEAURebuildMetadata@12@PEAUWOFF2Header@12@PEAVWOFF2Out@2@@Z 000000018006c6bc     woff2_dec.obj
 0002:000456cc       $unwind$?ConvertWOFF2ToTTF@woff2@@YA_NPEBE_KPEAVWOFF2Out@1@@Z 000000018006c6cc     woff2_dec.obj
 0002:000456f0       $unwind$??R<lambda_f8e21d53eaa236cf9a8dcf160a9c20df>@@QEBAPEAUWOFF2FontInfo@?A0x4a477eb2@woff2@@PEAU123@_K@Z 000000018006c6f0     woff2_dec.obj
 0002:000456fc       $chain$1$??R<lambda_f8e21d53eaa236cf9a8dcf160a9c20df>@@QEBAPEAUWOFF2FontInfo@?A0x4a477eb2@woff2@@PEAU123@_K@Z 000000018006c6fc     woff2_dec.obj
 0002:00045714       $chain$2$??R<lambda_f8e21d53eaa236cf9a8dcf160a9c20df>@@QEBAPEAUWOFF2FontInfo@?A0x4a477eb2@woff2@@PEAU123@_K@Z 000000018006c714     woff2_dec.obj
 0002:00045724       $chain$3$??$_Emplace_reallocate@PEAUTable@woff2@@@?$vector@PEAUTable@woff2@@V?$allocator@PEAUTable@woff2@@@std@@@std@@QEAAPEAPEAUTable@woff2@@QEAPEAU23@$$QEAPEAU23@@Z 000000018006c724     woff2_dec.obj
 0002:00045744       $chain$5$??$_Emplace_reallocate@PEAUTable@woff2@@@?$vector@PEAUTable@woff2@@V?$allocator@PEAUTable@woff2@@@std@@@std@@QEAAPEAPEAUTable@woff2@@QEAPEAU23@$$QEAPEAU23@@Z 000000018006c744     woff2_dec.obj
 0002:00045764       $chain$6$??$_Emplace_reallocate@PEAUTable@woff2@@@?$vector@PEAUTable@woff2@@V?$allocator@PEAUTable@woff2@@@std@@@std@@QEAAPEAPEAUTable@woff2@@QEAPEAU23@$$QEAPEAU23@@Z 000000018006c764     woff2_dec.obj
 0002:00045774       $unwind$??$_Resize@V<lambda_f8e21d53eaa236cf9a8dcf160a9c20df>@@@?$vector@UWOFF2FontInfo@?A0x4a477eb2@woff2@@V?$allocator@UWOFF2FontInfo@?A0x4a477eb2@woff2@@@std@@@std@@AEAAX_KV<lambda_f8e21d53eaa236cf9a8dcf160a9c20df>@@@Z 000000018006c774     woff2_dec.obj
 0002:00045784       $chain$1$??$_Resize@V<lambda_f8e21d53eaa236cf9a8dcf160a9c20df>@@@?$vector@UWOFF2FontInfo@?A0x4a477eb2@woff2@@V?$allocator@UWOFF2FontInfo@?A0x4a477eb2@woff2@@@std@@@std@@AEAAX_KV<lambda_f8e21d53eaa236cf9a8dcf160a9c20df>@@@Z 000000018006c784     woff2_dec.obj
 0002:0004579c       $chain$3$??$_Resize@V<lambda_f8e21d53eaa236cf9a8dcf160a9c20df>@@@?$vector@UWOFF2FontInfo@?A0x4a477eb2@woff2@@V?$allocator@UWOFF2FontInfo@?A0x4a477eb2@woff2@@@std@@@std@@AEAAX_KV<lambda_f8e21d53eaa236cf9a8dcf160a9c20df>@@@Z 000000018006c79c     woff2_dec.obj
 0002:000457b4       $chain$4$??$_Resize@V<lambda_f8e21d53eaa236cf9a8dcf160a9c20df>@@@?$vector@UWOFF2FontInfo@?A0x4a477eb2@woff2@@V?$allocator@UWOFF2FontInfo@?A0x4a477eb2@woff2@@@std@@@std@@AEAAX_KV<lambda_f8e21d53eaa236cf9a8dcf160a9c20df>@@@Z 000000018006c7b4     woff2_dec.obj
 0002:000457c4       $chain$7$??$_Resize@V<lambda_f8e21d53eaa236cf9a8dcf160a9c20df>@@@?$vector@UWOFF2FontInfo@?A0x4a477eb2@woff2@@V?$allocator@UWOFF2FontInfo@?A0x4a477eb2@woff2@@@std@@@std@@AEAAX_KV<lambda_f8e21d53eaa236cf9a8dcf160a9c20df>@@@Z 000000018006c7c4     woff2_dec.obj
 0002:000457c4       $chain$5$??$_Resize@V<lambda_f8e21d53eaa236cf9a8dcf160a9c20df>@@@?$vector@UWOFF2FontInfo@?A0x4a477eb2@woff2@@V?$allocator@UWOFF2FontInfo@?A0x4a477eb2@woff2@@@std@@@std@@AEAAX_KV<lambda_f8e21d53eaa236cf9a8dcf160a9c20df>@@@Z 000000018006c7c4     woff2_dec.obj
 0002:000457d4       $chain$6$??$_Resize@V<lambda_f8e21d53eaa236cf9a8dcf160a9c20df>@@@?$vector@UWOFF2FontInfo@?A0x4a477eb2@woff2@@V?$allocator@UWOFF2FontInfo@?A0x4a477eb2@woff2@@@std@@@std@@AEAAX_KV<lambda_f8e21d53eaa236cf9a8dcf160a9c20df>@@@Z 000000018006c7d4     woff2_dec.obj
 0002:000457ec       $unwind$??$_Resize@V<lambda_06569d7aee9f112244d25d5e54def049>@@@?$vector@FV?$allocator@F@std@@@std@@AEAAX_KV<lambda_06569d7aee9f112244d25d5e54def049>@@@Z 000000018006c7ec     woff2_dec.obj
 0002:000457ec       $unwind$??$_Resize@V<lambda_5d91c21a7dab2480088f44d5291e9dfa>@@@?$vector@GV?$allocator@G@std@@@std@@AEAAX_KV<lambda_5d91c21a7dab2480088f44d5291e9dfa>@@@Z 000000018006c7ec     woff2_dec.obj
 0002:00045800       $chain$0$??$_Resize@V<lambda_5d91c21a7dab2480088f44d5291e9dfa>@@@?$vector@GV?$allocator@G@std@@@std@@AEAAX_KV<lambda_5d91c21a7dab2480088f44d5291e9dfa>@@@Z 000000018006c800     woff2_dec.obj
 0002:00045800       $chain$0$??$_Resize@V<lambda_06569d7aee9f112244d25d5e54def049>@@@?$vector@FV?$allocator@F@std@@@std@@AEAAX_KV<lambda_06569d7aee9f112244d25d5e54def049>@@@Z 000000018006c800     woff2_dec.obj
 0002:00045814       $chain$1$??$_Resize@V<lambda_5d91c21a7dab2480088f44d5291e9dfa>@@@?$vector@GV?$allocator@G@std@@@std@@AEAAX_KV<lambda_5d91c21a7dab2480088f44d5291e9dfa>@@@Z 000000018006c814     woff2_dec.obj
 0002:00045814       $chain$1$??$_Resize@V<lambda_06569d7aee9f112244d25d5e54def049>@@@?$vector@FV?$allocator@F@std@@@std@@AEAAX_KV<lambda_06569d7aee9f112244d25d5e54def049>@@@Z 000000018006c814     woff2_dec.obj
 0002:00045824       $chain$2$??$_Resize@V<lambda_5d91c21a7dab2480088f44d5291e9dfa>@@@?$vector@GV?$allocator@G@std@@@std@@AEAAX_KV<lambda_5d91c21a7dab2480088f44d5291e9dfa>@@@Z 000000018006c824     woff2_dec.obj
 0002:00045824       $chain$2$??$_Resize@V<lambda_06569d7aee9f112244d25d5e54def049>@@@?$vector@FV?$allocator@F@std@@@std@@AEAAX_KV<lambda_06569d7aee9f112244d25d5e54def049>@@@Z 000000018006c824     woff2_dec.obj
 0002:00045838       $unwind$??$_Resize@V<lambda_84660212d3c769bc0ae482d1336fa5d3>@@@?$vector@UTtcFont@?A0x4a477eb2@woff2@@V?$allocator@UTtcFont@?A0x4a477eb2@woff2@@@std@@@std@@AEAAX_KV<lambda_84660212d3c769bc0ae482d1336fa5d3>@@@Z 000000018006c838     woff2_dec.obj
 0002:00045838       $unwind$??R<lambda_22ebabd17bc4fa466a2aca6d8deb888d>@@QEBAHXZ 000000018006c838     libucrt:onexit.obj
 0002:00045850       $chain$0$??$_Resize@V<lambda_84660212d3c769bc0ae482d1336fa5d3>@@@?$vector@UTtcFont@?A0x4a477eb2@woff2@@V?$allocator@UTtcFont@?A0x4a477eb2@woff2@@@std@@@std@@AEAAX_KV<lambda_84660212d3c769bc0ae482d1336fa5d3>@@@Z 000000018006c850     woff2_dec.obj
 0002:00045864       $chain$3$??$_Resize@V<lambda_84660212d3c769bc0ae482d1336fa5d3>@@@?$vector@UTtcFont@?A0x4a477eb2@woff2@@V?$allocator@UTtcFont@?A0x4a477eb2@woff2@@@std@@@std@@AEAAX_KV<lambda_84660212d3c769bc0ae482d1336fa5d3>@@@Z 000000018006c864     woff2_dec.obj
 0002:00045864       $chain$1$??$_Resize@V<lambda_84660212d3c769bc0ae482d1336fa5d3>@@@?$vector@UTtcFont@?A0x4a477eb2@woff2@@V?$allocator@UTtcFont@?A0x4a477eb2@woff2@@@std@@@std@@AEAAX_KV<lambda_84660212d3c769bc0ae482d1336fa5d3>@@@Z 000000018006c864     woff2_dec.obj
 0002:00045874       $chain$2$??$_Resize@V<lambda_84660212d3c769bc0ae482d1336fa5d3>@@@?$vector@UTtcFont@?A0x4a477eb2@woff2@@V?$allocator@UTtcFont@?A0x4a477eb2@woff2@@@std@@@std@@AEAAX_KV<lambda_84660212d3c769bc0ae482d1336fa5d3>@@@Z 000000018006c874     woff2_dec.obj
 0002:00045888       $unwind$??$_Resize@V<lambda_f266c3dfe27f71e88ee4d827fba9e497>@@@?$vector@UTable@woff2@@V?$allocator@UTable@woff2@@@std@@@std@@AEAAX_KV<lambda_f266c3dfe27f71e88ee4d827fba9e497>@@@Z 000000018006c888     woff2_dec.obj
 0002:0004589c       $chain$0$??$_Resize@V<lambda_f266c3dfe27f71e88ee4d827fba9e497>@@@?$vector@UTable@woff2@@V?$allocator@UTable@woff2@@@std@@@std@@AEAAX_KV<lambda_f266c3dfe27f71e88ee4d827fba9e497>@@@Z 000000018006c89c     woff2_dec.obj
 0002:000458b0       $chain$3$??$_Resize@V<lambda_f266c3dfe27f71e88ee4d827fba9e497>@@@?$vector@UTable@woff2@@V?$allocator@UTable@woff2@@@std@@@std@@AEAAX_KV<lambda_f266c3dfe27f71e88ee4d827fba9e497>@@@Z 000000018006c8b0     woff2_dec.obj
 0002:000458b0       $chain$1$??$_Resize@V<lambda_f266c3dfe27f71e88ee4d827fba9e497>@@@?$vector@UTable@woff2@@V?$allocator@UTable@woff2@@@std@@@std@@AEAAX_KV<lambda_f266c3dfe27f71e88ee4d827fba9e497>@@@Z 000000018006c8b0     woff2_dec.obj
 0002:000458c0       $chain$2$??$_Resize@V<lambda_f266c3dfe27f71e88ee4d827fba9e497>@@@?$vector@UTable@woff2@@V?$allocator@UTable@woff2@@@std@@@std@@AEAAX_KV<lambda_f266c3dfe27f71e88ee4d827fba9e497>@@@Z 000000018006c8c0     woff2_dec.obj
 0002:000458d4       $unwind$??$_Destroy_range@V?$allocator@UWOFF2FontInfo@?A0x4a477eb2@woff2@@@std@@@std@@YAXPEAUWOFF2FontInfo@?A0x4a477eb2@woff2@@0AEAV?$allocator@UWOFF2FontInfo@?A0x4a477eb2@woff2@@@0@@Z 000000018006c8d4     woff2_dec.obj
 0002:000458dc       $chain$2$??$_Destroy_range@V?$allocator@UWOFF2FontInfo@?A0x4a477eb2@woff2@@@std@@@std@@YAXPEAUWOFF2FontInfo@?A0x4a477eb2@woff2@@0AEAV?$allocator@UWOFF2FontInfo@?A0x4a477eb2@woff2@@@0@@Z 000000018006c8dc     woff2_dec.obj
 0002:000458f8       $chain$3$??$_Destroy_range@V?$allocator@UWOFF2FontInfo@?A0x4a477eb2@woff2@@@std@@@std@@YAXPEAUWOFF2FontInfo@?A0x4a477eb2@woff2@@0AEAV?$allocator@UWOFF2FontInfo@?A0x4a477eb2@woff2@@@0@@Z 000000018006c8f8     woff2_dec.obj
 0002:00045908       $chain$4$??$_Destroy_range@V?$allocator@UWOFF2FontInfo@?A0x4a477eb2@woff2@@@std@@@std@@YAXPEAUWOFF2FontInfo@?A0x4a477eb2@woff2@@0AEAV?$allocator@UWOFF2FontInfo@?A0x4a477eb2@woff2@@@0@@Z 000000018006c908     woff2_dec.obj
 0002:00045924       $unwind$??$_Destroy_range@V?$allocator@UTtcFont@?A0x4a477eb2@woff2@@@std@@@std@@YAXPEAUTtcFont@?A0x4a477eb2@woff2@@0AEAV?$allocator@UTtcFont@?A0x4a477eb2@woff2@@@0@@Z 000000018006c924     woff2_dec.obj
 0002:0004592c       $chain$1$??$_Destroy_range@V?$allocator@UTtcFont@?A0x4a477eb2@woff2@@@std@@@std@@YAXPEAUTtcFont@?A0x4a477eb2@woff2@@0AEAV?$allocator@UTtcFont@?A0x4a477eb2@woff2@@@0@@Z 000000018006c92c     woff2_dec.obj
 0002:00045944       $chain$2$??$_Destroy_range@V?$allocator@UTtcFont@?A0x4a477eb2@woff2@@@std@@@std@@YAXPEAUTtcFont@?A0x4a477eb2@woff2@@0AEAV?$allocator@UTtcFont@?A0x4a477eb2@woff2@@@0@@Z 000000018006c944     woff2_dec.obj
 0002:00045954       $chain$3$??$_Destroy_range@V?$allocator@UTtcFont@?A0x4a477eb2@woff2@@@std@@@std@@YAXPEAUTtcFont@?A0x4a477eb2@woff2@@0AEAV?$allocator@UTtcFont@?A0x4a477eb2@woff2@@@0@@Z 000000018006c954     woff2_dec.obj
 0002:0004596c       $unwind$?_Change_array@?$vector@UTable@woff2@@V?$allocator@UTable@woff2@@@std@@@std@@AEAAXQEAUTable@woff2@@_K1@Z 000000018006c96c     woff2_dec.obj
 0002:0004596c       $unwind$??$_Partition_by_median_guess_unchecked@PEAUTable@woff2@@U?$less@X@std@@@std@@YA?AU?$pair@PEAUTable@woff2@@PEAU12@@0@PEAUTable@woff2@@0U?$less@X@0@@Z 000000018006c96c     woff2_dec.obj
 0002:0004596c       $unwind$_free_osfhnd       000000018006c96c     libucrt:osfinfo.obj
 0002:0004596c       $unwind$__std_exception_copy 000000018006c96c     libvcruntime:std_exception.obj
 0002:00045980       $unwind$??$_Sort_unchecked@PEAUTable@woff2@@U?$less@X@std@@@std@@YAXPEAUTable@woff2@@0_JU?$less@X@0@@Z 000000018006c980     woff2_dec.obj
 0002:00045998       $unwind$??$_Insert_hint@AEAU?$pair@$$CBU?$pair@II@std@@I@std@@PEAU?$_Tree_node@U?$pair@$$CBU?$pair@II@std@@I@std@@PEAX@2@@?$_Tree@V?$_Tmap_traits@U?$pair@II@std@@IU?$less@U?$pair@II@std@@@2@V?$allocator@U?$pair@$$CBU?$pair@II@std@@I@std@@@2@$0A@@std@@@std@@IEAA?AV?$_Tree_iterator@V?$_Tree_val@U?$_Tree_simple_types@U?$pair@$$CBU?$pair@II@std@@I@std@@@std@@@std@@@1@V?$_Tree_const_iterator@V?$_Tree_val@U?$_Tree_simple_types@U?$pair@$$CBU?$pair@II@std@@I@std@@@std@@@std@@@1@AEAU?$pair@$$CBU?$pair@II@std@@I@1@PEAU?$_Tree_node@U?$pair@$$CBU?$pair@II@std@@I@std@@PEAX@1@@Z 000000018006c998     woff2_dec.obj
 0002:000459a4       $chain$0$??$_Insert_hint@AEAU?$pair@$$CBU?$pair@II@std@@I@std@@PEAU?$_Tree_node@U?$pair@$$CBU?$pair@II@std@@I@std@@PEAX@2@@?$_Tree@V?$_Tmap_traits@U?$pair@II@std@@IU?$less@U?$pair@II@std@@@2@V?$allocator@U?$pair@$$CBU?$pair@II@std@@I@std@@@2@$0A@@std@@@std@@IEAA?AV?$_Tree_iterator@V?$_Tree_val@U?$_Tree_simple_types@U?$pair@$$CBU?$pair@II@std@@I@std@@@std@@@std@@@1@V?$_Tree_const_iterator@V?$_Tree_val@U?$_Tree_simple_types@U?$pair@$$CBU?$pair@II@std@@I@std@@@std@@@std@@@1@AEAU?$pair@$$CBU?$pair@II@std@@I@1@PEAU?$_Tree_node@U?$pair@$$CBU?$pair@II@std@@I@std@@PEAX@1@@Z 000000018006c9a4     woff2_dec.obj
 0002:000459b8       $chain$2$??$_Insert_hint@AEAU?$pair@$$CBU?$pair@II@std@@I@std@@PEAU?$_Tree_node@U?$pair@$$CBU?$pair@II@std@@I@std@@PEAX@2@@?$_Tree@V?$_Tmap_traits@U?$pair@II@std@@IU?$less@U?$pair@II@std@@@2@V?$allocator@U?$pair@$$CBU?$pair@II@std@@I@std@@@2@$0A@@std@@@std@@IEAA?AV?$_Tree_iterator@V?$_Tree_val@U?$_Tree_simple_types@U?$pair@$$CBU?$pair@II@std@@I@std@@@std@@@std@@@1@V?$_Tree_const_iterator@V?$_Tree_val@U?$_Tree_simple_types@U?$pair@$$CBU?$pair@II@std@@I@std@@@std@@@std@@@1@AEAU?$pair@$$CBU?$pair@II@std@@I@1@PEAU?$_Tree_node@U?$pair@$$CBU?$pair@II@std@@I@std@@PEAX@1@@Z 000000018006c9b8     woff2_dec.obj
 0002:000459cc       $unwind$??$_Insert_nohint@AEAU?$pair@$$CBU?$pair@II@std@@I@std@@PEAU?$_Tree_node@U?$pair@$$CBU?$pair@II@std@@I@std@@PEAX@2@@?$_Tree@V?$_Tmap_traits@U?$pair@II@std@@IU?$less@U?$pair@II@std@@@2@V?$allocator@U?$pair@$$CBU?$pair@II@std@@I@std@@@2@$0A@@std@@@std@@IEAA?AU?$pair@V?$_Tree_iterator@V?$_Tree_val@U?$_Tree_simple_types@U?$pair@$$CBU?$pair@II@std@@I@std@@@std@@@std@@@std@@_N@1@_NAEAU?$pair@$$CBU?$pair@II@std@@I@1@PEAU?$_Tree_node@U?$pair@$$CBU?$pair@II@std@@I@std@@PEAX@1@@Z 000000018006c9cc     woff2_dec.obj
 0002:000459e0       $unwind$?process@?$output_processor@_WV?$stream_output_adapter@_W@__crt_stdio_output@@V?$standard_base@_WV?$stream_output_adapter@_W@__crt_stdio_output@@@2@@__crt_stdio_output@@QEAAHXZ 000000018006c9e0     libucrt:output.obj
 0002:000459e0       $unwind$?process@?$output_processor@_WV?$string_output_adapter@_W@__crt_stdio_output@@V?$standard_base@_WV?$string_output_adapter@_W@__crt_stdio_output@@@2@@__crt_stdio_output@@QEAAHXZ 000000018006c9e0     libucrt:output.obj
 0002:000459e0       $unwind$??0WOFF2FontInfo@?A0x4a477eb2@woff2@@QEAA@AEBU012@@Z 000000018006c9e0     woff2_dec.obj
 0002:000459f4       $unwind$??$_Copy_nodes@U_Copy_tag@?$_Tree@V?$_Tmap_traits@IIU?$less@I@std@@V?$allocator@U?$pair@$$CBII@std@@@2@$0A@@std@@@std@@@?$_Tree@V?$_Tmap_traits@IIU?$less@I@std@@V?$allocator@U?$pair@$$CBII@std@@@2@$0A@@std@@@std@@IEAAPEAU?$_Tree_node@U?$pair@$$CBII@std@@PEAX@1@PEAU21@0U_Copy_tag@01@@Z 000000018006c9f4     woff2_dec.obj
 0002:00045a08       $chain$0$??$_Copy_nodes@U_Copy_tag@?$_Tree@V?$_Tmap_traits@IIU?$less@I@std@@V?$allocator@U?$pair@$$CBII@std@@@2@$0A@@std@@@std@@@?$_Tree@V?$_Tmap_traits@IIU?$less@I@std@@V?$allocator@U?$pair@$$CBII@std@@@2@$0A@@std@@@std@@IEAAPEAU?$_Tree_node@U?$pair@$$CBII@std@@PEAX@1@PEAU21@0U_Copy_tag@01@@Z 000000018006ca08     woff2_dec.obj
 0002:00045a1c       $chain$1$??$_Copy_nodes@U_Copy_tag@?$_Tree@V?$_Tmap_traits@IIU?$less@I@std@@V?$allocator@U?$pair@$$CBII@std@@@2@$0A@@std@@@std@@@?$_Tree@V?$_Tmap_traits@IIU?$less@I@std@@V?$allocator@U?$pair@$$CBII@std@@@2@$0A@@std@@@std@@IEAAPEAU?$_Tree_node@U?$pair@$$CBII@std@@PEAX@1@PEAU21@0U_Copy_tag@01@@Z 000000018006ca1c     woff2_dec.obj
 0002:00045a2c       $unwind$DecodeDistanceBlockSwitch 000000018006ca2c     decode.obj
 0002:00045a2c       $unwind$DecodeLiteralBlockSwitch 000000018006ca2c     decode.obj
 0002:00045a2c       $unwind$SafeReadSymbolCodeLengths 000000018006ca2c     decode.obj
 0002:00045a2c       $unwind$DecodeCommandBlockSwitch 000000018006ca2c     decode.obj
 0002:00045a2c       $unwind$TransformDictionaryWord 000000018006ca2c     decode.obj
 0002:00045a44       $unwind$DecodeVarLenUint8  000000018006ca44     decode.obj
 0002:00045a50       $unwind$DecodeMetaBlockLength 000000018006ca50     decode.obj
 0002:00045a50       $unwind$__acrt_fenv_set_control 000000018006ca50     libucrt:_fenvutils.obj
 0002:00045a60       $unwind$??$type_case_integer_parse_into_buffer@_K@?$output_processor@_WV?$stream_output_adapter@_W@__crt_stdio_output@@V?$standard_base@_WV?$stream_output_adapter@_W@__crt_stdio_output@@@2@@__crt_stdio_output@@AEAAX_KI_N@Z 000000018006ca60     libucrt:output.obj
 0002:00045a60       $unwind$??$type_case_integer_parse_into_buffer@I@?$output_processor@_WV?$string_output_adapter@_W@__crt_stdio_output@@V?$standard_base@_WV?$string_output_adapter@_W@__crt_stdio_output@@@2@@__crt_stdio_output@@AEAAXII_N@Z 000000018006ca60     libucrt:output.obj
 0002:00045a60       $unwind$??$type_case_integer_parse_into_buffer@I@?$output_processor@_WV?$stream_output_adapter@_W@__crt_stdio_output@@V?$standard_base@_WV?$stream_output_adapter@_W@__crt_stdio_output@@@2@@__crt_stdio_output@@AEAAXII_N@Z 000000018006ca60     libucrt:output.obj
 0002:00045a60       $unwind$SafeDecodeSymbol   000000018006ca60     decode.obj
 0002:00045a60       $unwind$??$type_case_integer_parse_into_buffer@_K@?$output_processor@_WV?$string_output_adapter@_W@__crt_stdio_output@@V?$standard_base@_WV?$string_output_adapter@_W@__crt_stdio_output@@@2@@__crt_stdio_output@@AEAAX_KI_N@Z 000000018006ca60     libucrt:output.obj
 0002:00045a68       $unwind$ReadSymbolCodeLengths 000000018006ca68     decode.obj
 0002:00045a7c       $chain$1$ReadSymbolCodeLengths 000000018006ca7c     decode.obj
 0002:00045a94       $chain$2$ReadSymbolCodeLengths 000000018006ca94     decode.obj
 0002:00045aa4       $chain$5$ReadSymbolCodeLengths 000000018006caa4     decode.obj
 0002:00045aa4       $chain$3$ReadSymbolCodeLengths 000000018006caa4     decode.obj
 0002:00045abc       $unwind$?DloadObtainSection@@YAPEAXPEAK0@Z 000000018006cabc     DelayImp:delayhlp.obj
 0002:00045abc       $unwind$ReadCodeLengthCodeLengths 000000018006cabc     decode.obj
 0002:00045acc       $unwind$?IsInExceptionSpec@@YAEPEAUEHExceptionRecord@@PEBU_s_ESTypeList@@@Z 000000018006cacc     libvcruntime:frame.obj
 0002:00045acc       $unwind$ReadHuffmanCode    000000018006cacc     decode.obj
 0002:00045acc       $unwind$?try_get_function@@YAPEAXW4function_id@?A0x14c33c87@@QEBDQEBW4module_id@2@2@Z 000000018006cacc     libvcruntime:winapi_downlevel.obj
 0002:00045acc       $unwind$DecodeContextMap   000000018006cacc     decode.obj
 0002:00045acc       $unwind$?try_get_function@@YAPEAXW4function_id@?A0x391cf84c@@QEBDQEBW4module_id@2@2@Z 000000018006cacc     libucrt:winapi_thunks.obj
 0002:00045ae8       $unwind$ProcessCommands    000000018006cae8     decode.obj
 0002:00045ae8       $unwind$SafeDecodeDistanceBlockSwitch 000000018006cae8     decode.obj
 0002:00045ae8       $unwind$SafeDecodeCommandBlockSwitch 000000018006cae8     decode.obj
 0002:00045ae8       $unwind$SafeDecodeLiteralBlockSwitch 000000018006cae8     decode.obj
 0002:00045b04       $unwind$CopyUncompressedBlockToOutput 000000018006cb04     decode.obj
 0002:00045b20       $unwind$SafeProcessCommands 000000018006cb20     decode.obj
 0002:00045b38       $unwind$BrotliDecoderDecompressStream 000000018006cb38     decode.obj
 0002:00045b48       $chain$2$BrotliDecoderDecompressStream 000000018006cb48     decode.obj
 0002:00045b64       $chain$3$BrotliDecoderDecompressStream 000000018006cb64     decode.obj
 0002:00045b74       $unwind$BrotliBuildCodeLengthsHuffmanTable 000000018006cb74     huffman.obj
 0002:00045b8c       $chain$2$BrotliBuildCodeLengthsHuffmanTable 000000018006cb8c     huffman.obj
 0002:00045ba8       $chain$3$BrotliBuildCodeLengthsHuffmanTable 000000018006cba8     huffman.obj
 0002:00045bb8       $unwind$BrotliBuildHuffmanTable 000000018006cbb8     huffman.obj
 0002:00045bd0       $chain$0$BrotliBuildSimpleHuffmanTable 000000018006cbd0     huffman.obj
 0002:00045be4       $chain$1$BrotliBuildSimpleHuffmanTable 000000018006cbe4     huffman.obj
 0002:00045bf4       $unwind$?FunctionCallbackWrapper@imp@Nan@@YAXAEBV?$FunctionCallbackInfo@VValue@v8@@@v8@@@Z 000000018006cbf4     woff2_decode.obj
 0002:00045c08       $unwind$?decode@@YAXAEBV?$FunctionCallbackInfo@VValue@v8@@@Nan@@@Z 000000018006cc08     woff2_decode.obj
 0002:00045c1c       $chain$3$?decode@@YAXAEBV?$FunctionCallbackInfo@VValue@v8@@@Nan@@@Z 000000018006cc1c     woff2_decode.obj
 0002:00045c34       $chain$4$?decode@@YAXAEBV?$FunctionCallbackInfo@VValue@v8@@@Nan@@@Z 000000018006cc34     woff2_decode.obj
 0002:00045c48       $unwind$?Init@@YAXV?$Local@VObject@v8@@@v8@@@Z 000000018006cc48     woff2_decode.obj
 0002:00045c5c       xdata                      000000018006cc5c     node:node.exe
 0002:00045c64       $unwind$?_Xlength_error@std@@YAXPEBD@Z 000000018006cc64     libcpmt:xthrow.obj
 0002:00045c64       $unwind$_raise_exc         000000018006cc64     libucrt:fpexcept.obj
 0002:00045c64       $unwind$?__scrt_throw_std_bad_array_new_length@@YAXXZ 000000018006cc64     LIBCMT:throw_bad_alloc.obj
 0002:00045c64       $unwind$_raise_excf        000000018006cc64     libucrt:fpexcept.obj
 0002:00045c64       $unwind$?__scrt_throw_std_bad_alloc@@YAXXZ 000000018006cc64     LIBCMT:throw_bad_alloc.obj
 0002:00045c6c       $unwind$?__mbrtowc_utf8@__crt_mbstring@@YA_KPEA_WPEBD_KPEAU_Mbstatet@@@Z 000000018006cc6c     libucrt:mbrtowc.obj
 0002:00045c6c       $unwind$??$common_xtox_s@K_W@@YAHKQEA_W_KI_N@Z 000000018006cc6c     libucrt:xtoa.obj
 0002:00045c6c       $unwind$??0length_error@std@@QEAA@PEBD@Z 000000018006cc6c     libcpmt:xthrow.obj
 0002:00045c74       $unwind$??1_Fac_tidy_reg_t@std@@QEAA@XZ 000000018006cc74     libcpmt:locale0.obj
 0002:00045c84       $stateUnwindMap$??__Finit_atexit@@YAXXZ 000000018006cc84     libcpmt:iosptrs.obj
 0002:00045c84       $stateUnwindMap$??__Fclassic_locale@std@@YAXXZ 000000018006cc84     libcpmt:locale0.obj
 0002:00045c84       $stateUnwindMap$??1_Fac_tidy_reg_t@std@@QEAA@XZ 000000018006cc84     libcpmt:locale0.obj
 0002:00045c90       $ip2state$??1_Fac_tidy_reg_t@std@@QEAA@XZ 000000018006cc90     libcpmt:locale0.obj
 0002:00045c98       $unwind$??__Fclassic_locale@std@@YAXXZ 000000018006cc98     libcpmt:locale0.obj
 0002:00045ca8       $ip2state$??__Fclassic_locale@std@@YAXXZ 000000018006cca8     libcpmt:locale0.obj
 0002:00045cb0       $unwind$??__Finit_atexit@@YAXXZ 000000018006ccb0     libcpmt:iosptrs.obj
 0002:00045cc0       $ip2state$??__Finit_atexit@@YAXXZ 000000018006ccc0     libcpmt:iosptrs.obj
 0002:00045cc8       $xdatasym                  000000018006ccc8     LIBCMT:amdsecgs.obj
 0002:00045ccc       $unwind$__report_securityfailure 000000018006cccc     LIBCMT:gs_report.obj
 0002:00045cd4       $unwind$__report_gsfailure 000000018006ccd4     LIBCMT:gs_report.obj
 0002:00045cdc       $unwind$capture_current_context 000000018006ccdc     LIBCMT:gs_report.obj
 0002:00045ce8       $unwind$capture_previous_context 000000018006cce8     LIBCMT:gs_report.obj
 0002:00045cf4       $unwind$?dllmain_crt_process_attach@@YAHQEAUHINSTANCE__@@QEAX@Z 000000018006ccf4     LIBCMT:dll_dllmain.obj
 0002:00045d30       $unwind$?fin$0@?0???$?RV<lambda_842d9ff0dc9ef11c61343bbaebe7f885>@@AEAV<lambda_c5860995281e5c4ce005b3de8f5874ee>@@V<lambda_d90129c13df834fdcbf8d2b88dafcf2d>@@@?$__crt_seh_guarded_call@X@@QEAAX$$QEAV<lambda_842d9ff0dc9ef11c61343bbaebe7f885>@@AEAV<lambda_c5860995281e5c4ce005b3de8f5874ee>@@$$QEAV<lambda_d90129c13df834fdcbf8d2b88dafcf2d>@@@Z@4HA 000000018006cd30     libucrt:fflush.obj
 0002:00045d30       $unwind$fclose$fin$0       000000018006cd30     libucrt:fclose.obj
 0002:00045d30       $unwind$?fin$0@?0???$?RV<lambda_638799b9deba96c50f710eeac98168cd>@@AEAV<lambda_22ebabd17bc4fa466a2aca6d8deb888d>@@V<lambda_a6f7d7db0129f75315ebf26d50c089f1>@@@?$__crt_seh_guarded_call@H@@QEAAH$$QEAV<lambda_638799b9deba96c50f710eeac98168cd>@@AEAV<lambda_22ebabd17bc4fa466a2aca6d8deb888d>@@$$QEAV<lambda_a6f7d7db0129f75315ebf26d50c089f1>@@@Z@4HA 000000018006cd30     libucrt:onexit.obj
 0002:00045d30       $unwind$?fin$0@?0???$?RV<lambda_efdfa57d1f175319df784efa44bb7b81>@@AEAV<lambda_5f0a4c1567f8adc6734073e5d1e1b35c>@@V<lambda_2e8a7d3640ea6ccb4c2413664c2db6fd>@@@?$__crt_seh_guarded_call@X@@QEAAX$$QEAV<lambda_efdfa57d1f175319df784efa44bb7b81>@@AEAV<lambda_5f0a4c1567f8adc6734073e5d1e1b35c>@@$$QEAV<lambda_2e8a7d3640ea6ccb4c2413664c2db6fd>@@@Z@4HA 000000018006cd30     libucrt:mbctype.obj
 0002:00045d30       $unwind$?fin$0@?0???$?RV<lambda_a37b2b86f63e897a80ea819b0eb08c01>@@AEAV<lambda_38ce7e780aa69e748d6df282ebc68efe>@@V<lambda_99fb1378e971ab6e7edea83e3a7a83a2>@@@?$__crt_seh_guarded_call@H@@QEAAH$$QEAV<lambda_a37b2b86f63e897a80ea819b0eb08c01>@@AEAV<lambda_38ce7e780aa69e748d6df282ebc68efe>@@$$QEAV<lambda_99fb1378e971ab6e7edea83e3a7a83a2>@@@Z@4HA 000000018006cd30     libucrt:commit.obj
 0002:00045d30       $unwind$?fin$0@?0??update_thread_multibyte_data_internal@@YAPEAU__crt_multibyte_data@@QEAU__acrt_ptd@@QEAPEAU1@@Z@4HA 000000018006cd30     libucrt:mbctype.obj
 0002:00045d30       $unwind$_fcloseall$fin$0   000000018006cd30     libucrt:closeall.obj
 0002:00045d30       $unwind$?fin$0@?0???$?RV<lambda_7777bce6b2f8c936911f934f8298dc43>@@AEAV<lambda_f03950bc5685219e0bcd2087efbe011e>@@V<lambda_3883c3dff614d5e0c5f61bb1ac94921c>@@@?$__crt_seh_guarded_call@H@@QEAAH$$QEAV<lambda_7777bce6b2f8c936911f934f8298dc43>@@AEAV<lambda_f03950bc5685219e0bcd2087efbe011e>@@$$QEAV<lambda_3883c3dff614d5e0c5f61bb1ac94921c>@@@Z@4HA 000000018006cd30     libucrt:onexit.obj
 0002:00045d30       $unwind$_query_new_handler$fin$0 000000018006cd30     libucrt:new_handler.obj
 0002:00045d30       $unwind$?fin$0@?0???$?RV<lambda_84ec643ea9557e2f7dc01bb0e9624395>@@AEAV<lambda_ca71763b3c0644891230e4f79ea54fa6>@@V<lambda_439a761618c59b0600e24586724d733b>@@@?$__crt_seh_guarded_call@H@@QEAAH$$QEAV<lambda_84ec643ea9557e2f7dc01bb0e9624395>@@AEAV<lambda_ca71763b3c0644891230e4f79ea54fa6>@@$$QEAV<lambda_439a761618c59b0600e24586724d733b>@@@Z@4HA 000000018006cd30     libucrt:setvbuf.obj
 0002:00045d30       $unwind$?filt$0@?0???R<lambda_6e4b09c48022b2350581041d5f6b0c4c>@@QEBA@XZ@4HA 000000018006cd30     libucrt:exit.obj
 0002:00045d30       $unwind$?fin$0@?0???$?RV<lambda_0d412022a4b28cc8a401ea49574e8ae6>@@AEAV<lambda_a775ed57af18ba8e4d5dc780aa9068fe>@@V<lambda_975a71a6baa488a08f4e15f6b0339b9e>@@@?$__crt_seh_guarded_call@H@@QEAAH$$QEAV<lambda_0d412022a4b28cc8a401ea49574e8ae6>@@AEAV<lambda_a775ed57af18ba8e4d5dc780aa9068fe>@@$$QEAV<lambda_975a71a6baa488a08f4e15f6b0339b9e>@@@Z@4HA 000000018006cd30     libucrt:output.obj
 0002:00045d30       $unwind$?fin$0@?0???$common_lseek@_J@@YA_JH_JH@Z@4HA 000000018006cd30     libucrt:lseek.obj
 0002:00045d30       $unwind$?fin$0@?0??dllmain_crt_process_detach@@YAH_N@Z@4HA 000000018006cd30     LIBCMT:dll_dllmain.obj
 0002:00045d30       $unwind$?filt$0@?0??CxxCallCatchBlock@__FrameHandler3@@SAPEAXPEAU_EXCEPTION_RECORD@@@Z@4HA 000000018006cd30     libvcruntime:frame.obj
 0002:00045d30       $unwind$__acrt_update_thread_locale_data$fin$0 000000018006cd30     libucrt:locale_refcounting.obj
 0002:00045d30       $unwind$raise$fin$0        000000018006cd30     libucrt:signal.obj
 0002:00045d30       $unwind$?fin$1@?0??FrameUnwindToState@__FrameHandler3@@SAXPEA_KPEAU_xDISPATCHER_CONTEXT@@PEBU_s_FuncInfo@@H@Z@4HA 000000018006cd30     libvcruntime:frame.obj
 0002:00045d30       $unwind$?fin$0@?0???$?RV<lambda_450d765d439847d4c735a33c368b5fc0>@@AEAV<lambda_44731a7d0e6d81c3e6aa82d741081786>@@V<lambda_601a2a7da3b7a96e9554ac7215c4b07c>@@@?$__crt_seh_guarded_call@P6AXH@Z@@QEAAP6AXH@Z$$QEAV<lambda_450d765d439847d4c735a33c368b5fc0>@@AEAV<lambda_44731a7d0e6d81c3e6aa82d741081786>@@$$QEAV<lambda_601a2a7da3b7a96e9554ac7215c4b07c>@@@Z@4HA 000000018006cd30     libucrt:signal.obj
 0002:00045d30       $unwind$_write$fin$0       000000018006cd30     libucrt:write.obj
 0002:00045d30       $unwind$?fin$0@?0???$?RV<lambda_751a882b2c74d4b022dec766aa51a29a>@@AEAV<lambda_628dfdc04ba53c8bfc02c9951375f3f5>@@V<lambda_f6c7be5f7998530c34de24c7437d6b54>@@@?$__crt_seh_guarded_call@H@@QEAAH$$QEAV<lambda_751a882b2c74d4b022dec766aa51a29a>@@AEAV<lambda_628dfdc04ba53c8bfc02c9951375f3f5>@@$$QEAV<lambda_f6c7be5f7998530c34de24c7437d6b54>@@@Z@4HA 000000018006cd30     libucrt:close.obj
 0002:00045d30       $unwind$?fin$0@?0???$?RV<lambda_2d41944a1d46af3157314b8a01080d33>@@AEAV<lambda_8f455de75cd7d7f24b4096f044d8b9e6>@@V<lambda_aa500f224e6afead328df44964fe2772>@@@?$__crt_seh_guarded_call@X@@QEAAX$$QEAV<lambda_2d41944a1d46af3157314b8a01080d33>@@AEAV<lambda_8f455de75cd7d7f24b4096f044d8b9e6>@@$$QEAV<lambda_aa500f224e6afead328df44964fe2772>@@@Z@4HA 000000018006cd30     libucrt:per_thread_data.obj
 0002:00045d30       $unwind$?fin$0@?0???$?RV<lambda_d80eeec6fff315bfe5c115232f3240e3>@@AEAV<lambda_6e4b09c48022b2350581041d5f6b0c4c>@@V<lambda_2358e3775559c9db80273638284d5e45>@@@?$__crt_seh_guarded_call@X@@QEAAX$$QEAV<lambda_d80eeec6fff315bfe5c115232f3240e3>@@AEAV<lambda_6e4b09c48022b2350581041d5f6b0c4c>@@$$QEAV<lambda_2358e3775559c9db80273638284d5e45>@@@Z@4HA 000000018006cd30     libucrt:exit.obj
 0002:00045d30       $unwind$?fin$0@?0??dllmain_crt_process_attach@@YAHQEAUHINSTANCE__@@QEAX@Z@4HA 000000018006cd30     LIBCMT:dll_dllmain.obj
 0002:00045d30       $unwind$_IsNonwritableInCurrentImage$filt$0 000000018006cd30     LIBCMT:pesect.obj
 0002:00045d30       $unwind$?fin$0@?0???$?RV<lambda_f2e299630e499de9f9a165e60fcd3db5>@@AEAV<lambda_2ae9d31cdba2644fcbeaf08da7c24588>@@V<lambda_40d01ff24d0e7b3814fdbdcee8eab3c7>@@@?$__crt_seh_guarded_call@X@@QEAAX$$QEAV<lambda_f2e299630e499de9f9a165e60fcd3db5>@@AEAV<lambda_2ae9d31cdba2644fcbeaf08da7c24588>@@$$QEAV<lambda_40d01ff24d0e7b3814fdbdcee8eab3c7>@@@Z@4HA 000000018006cd30     libucrt:per_thread_data.obj
 0002:00045d30       $unwind$__acrt_lowio_ensure_fh_exists$fin$0 000000018006cd30     libucrt:osfinfo.obj
 0002:00045d30       $unwind$__DestructExceptionObject$filt$0 000000018006cd30     libvcruntime:ehhelpers.obj
 0002:00045d30       $unwind$__acrt_initialize_lowio$fin$0 000000018006cd30     libucrt:ioinit.obj
 0002:00045d30       $unwind$?fin$0@?0???$?RV<lambda_aa87e3671a710a21b5dc78c0bdf72e11>@@AEAV<lambda_92619d2358a28f41a33ba319515a20b9>@@V<lambda_6992ecaafeb10aed2b74cb1fae11a551>@@@?$__crt_seh_guarded_call@X@@QEAAX$$QEAV<lambda_aa87e3671a710a21b5dc78c0bdf72e11>@@AEAV<lambda_92619d2358a28f41a33ba319515a20b9>@@$$QEAV<lambda_6992ecaafeb10aed2b74cb1fae11a551>@@@Z@4HA 000000018006cd30     libucrt:per_thread_data.obj
 0002:00045d30       $unwind$?fin$0@?0???$?RV<lambda_c376a267cfb53b6959b3b692ec76b120>@@AEAV<lambda_9a32fed5bf61b6b509b2d3f6003082a1>@@V<lambda_572fbb9fa0ab338edf41edfd4b5fcc8d>@@@?$__crt_seh_guarded_call@H@@QEAAH$$QEAV<lambda_c376a267cfb53b6959b3b692ec76b120>@@AEAV<lambda_9a32fed5bf61b6b509b2d3f6003082a1>@@$$QEAV<lambda_572fbb9fa0ab338edf41edfd4b5fcc8d>@@@Z@4HA 000000018006cd30     libucrt:fflush.obj
 0002:00045d30       $unwind$?fin$0@?0???$?RV<lambda_886d6c58226a84441f68b9f2b8217b83>@@AEAV<lambda_ab61a845afdef5b7c387490eaf3616ee>@@V<lambda_f7f22ab5edc0698d5f6905b0d3f44752>@@@?$__crt_seh_guarded_call@X@@QEAAX$$QEAV<lambda_886d6c58226a84441f68b9f2b8217b83>@@AEAV<lambda_ab61a845afdef5b7c387490eaf3616ee>@@$$QEAV<lambda_f7f22ab5edc0698d5f6905b0d3f44752>@@@Z@4HA 000000018006cd30     libucrt:fflush.obj
 0002:00045d30       $unwind$?fin$0@?0???$?RV<lambda_410d79af7f07d98d83a3f525b3859a53>@@AEAV<lambda_3e16ef9562a7dcce91392c22ab16ea36>@@V<lambda_38119f0e861e05405d8a144b9b982f0a>@@@?$__crt_seh_guarded_call@X@@QEAAX$$QEAV<lambda_410d79af7f07d98d83a3f525b3859a53>@@AEAV<lambda_3e16ef9562a7dcce91392c22ab16ea36>@@$$QEAV<lambda_38119f0e861e05405d8a144b9b982f0a>@@@Z@4HA 000000018006cd30     libucrt:wsetlocale.obj
 0002:00045d30       $unwind$?fin$0@?0???$?RV<lambda_0ae27a3a962d80f24befdcbee591983d>@@AEAV<lambda_8d0ee55de4b1038c4002e0adecdf1839>@@V<lambda_dc504788e8f1664fe9b84e20bfb512f2>@@@?$__crt_seh_guarded_call@X@@QEAAX$$QEAV<lambda_0ae27a3a962d80f24befdcbee591983d>@@AEAV<lambda_8d0ee55de4b1038c4002e0adecdf1839>@@$$QEAV<lambda_dc504788e8f1664fe9b84e20bfb512f2>@@@Z@4HA 000000018006cd30     libucrt:per_thread_data.obj
 0002:00045d30       $unwind$_ctrlfp$filt$0     000000018006cd30     libucrt:fpctrl.obj
 0002:00045d30       $unwind$?filt$0@?0??FrameUnwindToState@__FrameHandler3@@SAXPEA_KPEAU_xDISPATCHER_CONTEXT@@PEBU_s_FuncInfo@@H@Z@4HA 000000018006cd30     libvcruntime:frame.obj
 0002:00045d38       $unwind$?dllmain_crt_process_detach@@YAH_N@Z 000000018006cd38     LIBCMT:dll_dllmain.obj
 0002:00045d70       $unwind$?dllmain_dispatch@@YAHQEAUHINSTANCE__@@KQEAX@Z 000000018006cd70     LIBCMT:dll_dllmain.obj
 0002:00045d98       $unwind$?filt$0@?0??dllmain_dispatch@@YAHQEAUHINSTANCE__@@KQEAX@Z@4HA 000000018006cd98     LIBCMT:dll_dllmain.obj
 0002:00045da0       $unwind$__scrt_is_nonwritable_in_current_image 000000018006cda0     LIBCMT:utility.obj
 0002:00045dc0       $unwind$__scrt_is_nonwritable_in_current_image$filt$0 000000018006cdc0     LIBCMT:utility.obj
 0002:00045dc8       $unwind$?getSystemCP@@YAHH@Z 000000018006cdc8     libucrt:mbctype.obj
 0002:00045dc8       $unwind$__scrt_initialize_onexit_tables 000000018006cdc8     LIBCMT:utility.obj
 0002:00045dc8       $unwind$__dcrt_lowio_ensure_console_output_initialized 000000018006cdc8     libucrt:initcon.obj
 0002:00045dc8       $unwind$_isleadbyte_l      000000018006cdc8     libucrt:_wctype.obj
 0002:00045dd0       $unwind$__acrt_WideCharToMultiByte 000000018006cdd0     libucrt:widechartomultibyte.obj
 0002:00045dd0       $unwind$__GSHandlerCheckCommon 000000018006cdd0     LIBCMT:gshandler.obj
 0002:00045dd8       $xdatasym                  000000018006cdd8     LIBCMT:chkstk.obj
 0002:00045de0       $unwind$__security_init_cookie 000000018006cde0     LIBCMT:gs_support.obj
 0002:00045dec       $unwind$__scrt_fastfail    000000018006cdec     LIBCMT:utility_desktop.obj
 0002:00045dfc       $unwind$__isa_available_init 000000018006cdfc     LIBCMT:cpu_disp.obj
 0002:00045e10       $xdatasym                  000000018006ce10     LIBCMT:guard_dispatch.obj
 0002:00045e14       $unwind$_CxxThrowException 000000018006ce14     libvcruntime:throw.obj
 0002:00045e24       $unwind$?GetEstablisherFrame@__FrameHandler3@@SAPEA_KPEA_KPEAU_xDISPATCHER_CONTEXT@@PEBU_s_FuncInfo@@0@Z 000000018006ce24     libvcruntime:risctrnsctrl.obj
 0002:00045e3c       $unwind$?UnwindNestedFrames@__FrameHandler3@@SAXPEA_KPEAUEHExceptionRecord@@PEAU_CONTEXT@@0PEAXPEBU_s_FuncInfo@@HHPEBU_s_HandlerType@@PEAU_xDISPATCHER_CONTEXT@@E@Z 000000018006ce3c     libvcruntime:risctrnsctrl.obj
 0002:00045e50       $unwind$?GetRangeOfTrysToCheck@__FrameHandler3@@SA?AU?$pair@Viterator@TryBlockMap@__FrameHandler3@@V123@@std@@AEAVTryBlockMap@1@HH@Z 000000018006ce50     libvcruntime:risctrnsctrl.obj
 0002:00045e68       $unwind$__CxxFrameHandler3 000000018006ce68     libvcruntime:risctrnsctrl.obj
 0002:00045e78       $unwind$??$_CallSETranslator@V__FrameHandler3@@@@YAHPEAUEHExceptionRecord@@PEA_KPEAU_CONTEXT@@PEAU_xDISPATCHER_CONTEXT@@PEBU_s_FuncInfo@@K1@Z 000000018006ce78     libvcruntime:risctrnsctrl.obj
 0002:00045e98       $unwind$?filt$0@?0???$_CallSETranslator@V__FrameHandler3@@@@YAHPEAUEHExceptionRecord@@PEA_KPEAU_CONTEXT@@PEAU_xDISPATCHER_CONTEXT@@PEBU_s_FuncInfo@@K1@Z@4HA 000000018006ce98     libvcruntime:risctrnsctrl.obj
 0002:00045ea8       $xdatasym                  000000018006cea8     libvcruntime:memcpy.obj
 0002:00045eb8       $xdatasym                  000000018006ceb8     libvcruntime:memset.obj
 0002:00045ec8       $unwind$__DestructExceptionObject 000000018006cec8     libvcruntime:ehhelpers.obj
 0002:00045ee8       $xdatasym                  000000018006cee8     libvcruntime:memchr.obj
 0002:00045ef0       $xdatasym                  000000018006cef0     libvcruntime:memcmp.obj
 0002:00045ef4       $unwind$__C_specific_handler 000000018006cef4     libvcruntime:riscchandler.obj
 0002:00045f10       $unwind$?FrameUnwindToState@__FrameHandler3@@SAXPEA_KPEAU_xDISPATCHER_CONTEXT@@PEBU_s_FuncInfo@@H@Z 000000018006cf10     libvcruntime:frame.obj
 0002:00045f5c       $unwind$?CxxCallCatchBlock@__FrameHandler3@@SAPEAXPEAU_EXCEPTION_RECORD@@@Z 000000018006cf5c     libvcruntime:frame.obj
 0002:00045f98       $unwind$?fin$1@?0??CxxCallCatchBlock@__FrameHandler3@@SAPEAXPEAU_EXCEPTION_RECORD@@@Z@4HA 000000018006cf98     libvcruntime:frame.obj
 0002:00045fa4       $unwind$??$__InternalCxxFrameHandler@V__FrameHandler3@@@@YA?AW4_EXCEPTION_DISPOSITION@@PEAUEHExceptionRecord@@PEA_KPEAU_CONTEXT@@PEAU_xDISPATCHER_CONTEXT@@PEBU_s_FuncInfo@@H1E@Z 000000018006cfa4     libvcruntime:frame.obj
 0002:00045fbc       $unwind$??$TypeMatchHelper@V__FrameHandler3@@@@YAHPEBU_s_HandlerType@@PEBU_s_CatchableType@@PEBU_s_ThrowInfo@@@Z 000000018006cfbc     libvcruntime:frame.obj
 0002:00045fbc       $unwind$?initialize_stdio_handles_nolock@@YAXXZ 000000018006cfbc     libucrt:ioinit.obj
 0002:00045fbc       $unwind$__acrt_initialize_stdio 000000018006cfbc     libucrt:_file.obj
 0002:00045fd4       $unwind$??$BuildCatchObjectHelperInternal@V__FrameHandler3@@@@YAHPEAUEHExceptionRecord@@PEAXPEBU_s_HandlerType@@PEBU_s_CatchableType@@@Z 000000018006cfd4     libvcruntime:frame.obj
 0002:00046014       $unwind$??$BuildCatchObjectInternal@V__FrameHandler3@@@@YAXPEAUEHExceptionRecord@@PEAXPEBU_s_HandlerType@@PEBU_s_CatchableType@@@Z 000000018006d014     libvcruntime:frame.obj
 0002:00046040       $unwind$??$FindHandler@V__FrameHandler3@@@@YAXPEAUEHExceptionRecord@@PEA_KPEAU_CONTEXT@@PEAU_xDISPATCHER_CONTEXT@@PEBU_s_FuncInfo@@EH1@Z 000000018006d040     libvcruntime:frame.obj
 0002:0004605c       $unwind$??$CatchIt@V__FrameHandler3@@@@YAXPEAUEHExceptionRecord@@PEA_KPEAU_CONTEXT@@PEAU_xDISPATCHER_CONTEXT@@PEBU_s_FuncInfo@@PEBU_s_HandlerType@@PEBU_s_CatchableType@@PEBU_s_TryBlockMapEntry@@H1EE@Z 000000018006d05c     libvcruntime:frame.obj
 0002:00046074       $unwind$??$FindHandlerForForeignException@V__FrameHandler3@@@@YAXPEAUEHExceptionRecord@@PEA_KPEAU_CONTEXT@@PEAU_xDISPATCHER_CONTEXT@@PEBU_s_FuncInfo@@HH1@Z 000000018006d074     libvcruntime:frame.obj
 0002:00046090       $xdatasym                  000000018006d090     libvcruntime:notify.obj
 0002:0004609c       $unwind$__vcrt_initialize_winapi_thunks 000000018006d09c     libvcruntime:winapi_downlevel.obj
 0002:0004609c       $unwind$__acrt_initialize_winapi_thunks 000000018006d09c     libucrt:winapi_thunks.obj
 0002:000460a4       $unwind$__vcrt_uninitialize_winapi_thunks 000000018006d0a4     libvcruntime:winapi_downlevel.obj
 0002:000460a4       $unwind$__acrt_stdio_end_temporary_buffering_nolock 000000018006d0a4     libucrt:_sftbuf.obj
 0002:000460b0       $xdatasym                  000000018006d0b0     libvcruntime:handlers.obj
 0002:000460c0       $unwind$fwprintf           000000018006d0c0     libucrt:assert.obj
 0002:000460cc       $unwind$swprintf           000000018006d0cc     libucrt:assert.obj
 0002:000460dc       $unwind$??$common_assert_to_stderr@_W@@YAXQEB_W0I@Z 000000018006d0dc     libucrt:assert.obj
 0002:000460f8       $unwind$??$common_assert_to_message_box@_W@@YAXQEB_W0IQEAX@Z 000000018006d0f8     libucrt:assert.obj
 0002:00046114       $unwind$??$common_assert_to_message_box_build_string@_W@@YAXQEA_W_KQEB_W2IQEAX@Z 000000018006d114     libucrt:assert.obj
 0002:00046134       $unwind$_log10_special     000000018006d134     libucrt:log_special.obj
 0002:00046134       $unwind$_itow_s            000000018006d134     libucrt:xtoa.obj
 0002:00046134       $unwind$fflush             000000018006d134     libucrt:fflush.obj
 0002:00046134       $unwind$_invalid_parameter_noinfo_noreturn 000000018006d134     libucrt:invalid_parameter.obj
 0002:00046134       $unwind$wctomb_s           000000018006d134     libucrt:wctomb.obj
 0002:00046134       $unwind$_invalid_parameter_noinfo 000000018006d134     libucrt:invalid_parameter.obj
 0002:00046134       $unwind$wcstol             000000018006d134     libucrt:strtox.obj
 0002:0004613c       $unwind$__acrt_call_reportfault 000000018006d13c     libucrt:invalid_parameter.obj
 0002:0004615c       $unwind$_invalid_parameter 000000018006d15c     libucrt:invalid_parameter.obj
 0002:0004615c       $unwind$__acrt_MessageBoxW 000000018006d15c     libucrt:winapi_thunks.obj
 0002:00046170       $unwind$?common_flush_all@@YAH_N@Z 000000018006d170     libucrt:fflush.obj
 0002:00046178       $unwind$??$?RV<lambda_842d9ff0dc9ef11c61343bbaebe7f885>@@AEAV<lambda_c5860995281e5c4ce005b3de8f5874ee>@@V<lambda_d90129c13df834fdcbf8d2b88dafcf2d>@@@?$__crt_seh_guarded_call@X@@QEAAX$$QEAV<lambda_842d9ff0dc9ef11c61343bbaebe7f885>@@AEAV<lambda_c5860995281e5c4ce005b3de8f5874ee>@@$$QEAV<lambda_d90129c13df834fdcbf8d2b88dafcf2d>@@@Z 000000018006d178     libucrt:fflush.obj
 0002:0004619c       $unwind$??$?RV<lambda_886d6c58226a84441f68b9f2b8217b83>@@AEAV<lambda_ab61a845afdef5b7c387490eaf3616ee>@@V<lambda_f7f22ab5edc0698d5f6905b0d3f44752>@@@?$__crt_seh_guarded_call@X@@QEAAX$$QEAV<lambda_886d6c58226a84441f68b9f2b8217b83>@@AEAV<lambda_ab61a845afdef5b7c387490eaf3616ee>@@$$QEAV<lambda_f7f22ab5edc0698d5f6905b0d3f44752>@@@Z 000000018006d19c     libucrt:fflush.obj
 0002:000461c4       $unwind$??$?RV<lambda_c376a267cfb53b6959b3b692ec76b120>@@AEAV<lambda_9a32fed5bf61b6b509b2d3f6003082a1>@@V<lambda_572fbb9fa0ab338edf41edfd4b5fcc8d>@@@?$__crt_seh_guarded_call@H@@QEAAH$$QEAV<lambda_c376a267cfb53b6959b3b692ec76b120>@@AEAV<lambda_9a32fed5bf61b6b509b2d3f6003082a1>@@$$QEAV<lambda_572fbb9fa0ab338edf41edfd4b5fcc8d>@@@Z 000000018006d1c4     libucrt:fflush.obj
 0002:000461e8       $unwind$fclose             000000018006d1e8     libucrt:fclose.obj
 0002:0004620c       $unwind$__stdio_common_vfwprintf 000000018006d20c     libucrt:output.obj
 0002:00046214       $unwind$??$common_vsprintf@Vstandard_base@__crt_stdio_output@@_W@@YAH_KQEA_W0QEB_WQEAU__crt_locale_pointers@@QEAD@Z 000000018006d214     libucrt:output.obj
 0002:00046234       $unwind$??$parse_command_line@D@@YAXPEADPEAPEAD0PEA_K2@Z 000000018006d234     libucrt:argv_parsing.obj
 0002:00046234       $unwind$?write_string_impl@?$output_adapter_common@_WV?$stream_output_adapter@_W@__crt_stdio_output@@@__crt_stdio_output@@IEBAXQEB_WHQEAHAEAV__crt_deferred_errno_cache@@@Z 000000018006d234     libucrt:output.obj
 0002:00046250       $unwind$?parse_int_from_format_string@?$output_processor@_WV?$string_output_adapter@_W@__crt_stdio_output@@V?$standard_base@_WV?$string_output_adapter@_W@__crt_stdio_output@@@2@@__crt_stdio_output@@AEAA_NQEAH@Z 000000018006d250     libucrt:output.obj
 0002:00046250       $unwind$?parse_int_from_format_string@?$output_processor@_WV?$stream_output_adapter@_W@__crt_stdio_output@@V?$standard_base@_WV?$stream_output_adapter@_W@__crt_stdio_output@@@2@@__crt_stdio_output@@AEAA_NQEAH@Z 000000018006d250     libucrt:output.obj
 0002:00046264       $unwind$?state_case_type@?$output_processor@_WV?$stream_output_adapter@_W@__crt_stdio_output@@V?$standard_base@_WV?$stream_output_adapter@_W@__crt_stdio_output@@@2@@__crt_stdio_output@@AEAA_NXZ 000000018006d264     libucrt:output.obj
 0002:00046284       $unwind$?type_case_c_tchar@?$output_processor@_WV?$stream_output_adapter@_W@__crt_stdio_output@@V?$standard_base@_WV?$stream_output_adapter@_W@__crt_stdio_output@@@2@@__crt_stdio_output@@AEAA_N_W@Z 000000018006d284     libucrt:output.obj
 0002:00046284       $unwind$?type_case_c_tchar@?$output_processor@_WV?$string_output_adapter@_W@__crt_stdio_output@@V?$standard_base@_WV?$string_output_adapter@_W@__crt_stdio_output@@@2@@__crt_stdio_output@@AEAA_N_W@Z 000000018006d284     libucrt:output.obj
 0002:00046294       $unwind$?type_case_a@?$output_processor@_WV?$stream_output_adapter@_W@__crt_stdio_output@@V?$standard_base@_WV?$stream_output_adapter@_W@__crt_stdio_output@@@2@@__crt_stdio_output@@AEAA_NXZ 000000018006d294     libucrt:output.obj
 0002:00046294       $unwind$?type_case_a@?$output_processor@_WV?$string_output_adapter@_W@__crt_stdio_output@@V?$standard_base@_WV?$string_output_adapter@_W@__crt_stdio_output@@@2@@__crt_stdio_output@@AEAA_NXZ 000000018006d294     libucrt:output.obj
 0002:000462a4       $unwind$??R<lambda_f03950bc5685219e0bcd2087efbe011e>@@QEBAHXZ 000000018006d2a4     libucrt:onexit.obj
 0002:000462a4       $unwind$?type_case_integer@?$output_processor@_WV?$string_output_adapter@_W@__crt_stdio_output@@V?$standard_base@_WV?$string_output_adapter@_W@__crt_stdio_output@@@2@@__crt_stdio_output@@AEAA_NI_N@Z 000000018006d2a4     libucrt:output.obj
 0002:000462a4       $unwind$??$common_xtox@K_W@@YAHKQEA_W_KI_N@Z 000000018006d2a4     libucrt:xtoa.obj
 0002:000462a4       $unwind$?type_case_integer@?$output_processor@_WV?$stream_output_adapter@_W@__crt_stdio_output@@V?$standard_base@_WV?$stream_output_adapter@_W@__crt_stdio_output@@@2@@__crt_stdio_output@@AEAA_NI_N@Z 000000018006d2a4     libucrt:output.obj
 0002:000462bc       $unwind$?write_stored_string_tchar@?$output_processor@_WV?$stream_output_adapter@_W@__crt_stdio_output@@V?$standard_base@_WV?$stream_output_adapter@_W@__crt_stdio_output@@@2@@__crt_stdio_output@@AEAA_N_W@Z 000000018006d2bc     libucrt:output.obj
 0002:000462d0       $unwind$??R<lambda_a775ed57af18ba8e4d5dc780aa9068fe>@@QEBAHXZ 000000018006d2d0     libucrt:output.obj
 0002:000462f0       $unwind$?write_string@?$string_output_adapter@_W@__crt_stdio_output@@QEBAXQEB_WHQEAHAEAV__crt_deferred_errno_cache@@@Z 000000018006d2f0     libucrt:output.obj
 0002:00046308       $unwind$?state_case_type@?$output_processor@_WV?$string_output_adapter@_W@__crt_stdio_output@@V?$standard_base@_WV?$string_output_adapter@_W@__crt_stdio_output@@@2@@__crt_stdio_output@@AEAA_NXZ 000000018006d308     libucrt:output.obj
 0002:0004632c       $unwind$?write_stored_string_tchar@?$output_processor@_WV?$string_output_adapter@_W@__crt_stdio_output@@V?$standard_base@_WV?$string_output_adapter@_W@__crt_stdio_output@@@2@@__crt_stdio_output@@AEAA_N_W@Z 000000018006d32c     libucrt:output.obj
 0002:00046340       $unwind$??$write_multiple_characters@V?$string_output_adapter@_W@__crt_stdio_output@@D@__crt_stdio_output@@YAXAEBV?$string_output_adapter@_W@0@DHQEAH@Z 000000018006d340     libucrt:output.obj
 0002:0004634c       $unwind$??$write_multiple_characters@V?$stream_output_adapter@_W@__crt_stdio_output@@D@__crt_stdio_output@@YAXAEBV?$stream_output_adapter@_W@0@DHQEAH@Z 000000018006d34c     libucrt:output.obj
 0002:00046364       $unwind$??$?RV<lambda_0d412022a4b28cc8a401ea49574e8ae6>@@AEAV<lambda_a775ed57af18ba8e4d5dc780aa9068fe>@@V<lambda_975a71a6baa488a08f4e15f6b0339b9e>@@@?$__crt_seh_guarded_call@H@@QEAAH$$QEAV<lambda_0d412022a4b28cc8a401ea49574e8ae6>@@AEAV<lambda_a775ed57af18ba8e4d5dc780aa9068fe>@@$$QEAV<lambda_975a71a6baa488a08f4e15f6b0339b9e>@@@Z 000000018006d364     libucrt:output.obj
 0002:00046388       $unwind$setvbuf            000000018006d388     libucrt:setvbuf.obj
 0002:00046390       $unwind$??$?RV<lambda_84ec643ea9557e2f7dc01bb0e9624395>@@AEAV<lambda_ca71763b3c0644891230e4f79ea54fa6>@@V<lambda_439a761618c59b0600e24586724d733b>@@@?$__crt_seh_guarded_call@H@@QEAAH$$QEAV<lambda_84ec643ea9557e2f7dc01bb0e9624395>@@AEAV<lambda_ca71763b3c0644891230e4f79ea54fa6>@@$$QEAV<lambda_439a761618c59b0600e24586724d733b>@@@Z 000000018006d390     libucrt:setvbuf.obj
 0002:000463b4       $unwind$?common_exit@@YAXHW4_crt_exit_cleanup_mode@@W4_crt_exit_return_mode@@@Z 000000018006d3b4     libucrt:exit.obj
 0002:000463c0       $unwind$??R<lambda_6e4b09c48022b2350581041d5f6b0c4c>@@QEBA@XZ 000000018006d3c0     libucrt:exit.obj
 0002:000463e0       $unwind$??$?RV<lambda_d80eeec6fff315bfe5c115232f3240e3>@@AEAV<lambda_6e4b09c48022b2350581041d5f6b0c4c>@@V<lambda_2358e3775559c9db80273638284d5e45>@@@?$__crt_seh_guarded_call@X@@QEAAX$$QEAV<lambda_d80eeec6fff315bfe5c115232f3240e3>@@AEAV<lambda_6e4b09c48022b2350581041d5f6b0c4c>@@$$QEAV<lambda_2358e3775559c9db80273638284d5e45>@@@Z 000000018006d3e0     libucrt:exit.obj
 0002:00046404       $unwind$?x_ismbbtype_l@@YAHPEAU__crt_locale_pointers@@IHH@Z 000000018006d404     libucrt:ismbbyte.obj
 0002:00046404       $unwind$_stricmp_l         000000018006d404     libucrt:stricmp.obj
 0002:00046414       $unwind$terminate          000000018006d414     libucrt:terminate.obj
 0002:00046434       $unwind$isdigit            000000018006d434     libucrt:_ctype.obj
 0002:00046434       $unwind$_mbsdec_l          000000018006d434     libucrt:mbsdec.obj
 0002:00046440       $unwind$?divide@__crt_strtox@@YA_KAEAUbig_integer@1@AEBU21@@Z 000000018006d440     libucrt:strtod.obj
 0002:00046458       $chain$0$?divide@__crt_strtox@@YA_KAEAUbig_integer@1@AEBU21@@Z 000000018006d458     libucrt:strtod.obj
 0002:0004646c       $chain$1$?divide@__crt_strtox@@YA_KAEAUbig_integer@1@AEBU21@@Z 000000018006d46c     libucrt:strtod.obj
 0002:00046480       $xdatasym                  000000018006d480     libucrt:pow.obj
 0002:00046490       $xdatasym                  000000018006d490     libucrt:powf.obj
 0002:000464a0       $unwind$??$__acrt_mbs_to_wcs_cp@U__crt_win32_buffer_internal_dynamic_resizing@@@@YAHQEBDAEAV?$__crt_win32_buffer@_WU__crt_win32_buffer_internal_dynamic_resizing@@@@I@Z 000000018006d4a0     libucrt:strftime.obj
 0002:000464b8       $unwind$??$__acrt_wcs_to_mbs_cp@U__crt_win32_buffer_no_resizing@@@@YAHQEB_WAEAV?$__crt_win32_buffer@DU__crt_win32_buffer_no_resizing@@@@I@Z 000000018006d4b8     libucrt:strftime.obj
 0002:000464b8       $unwind$__dcrt_write_console 000000018006d4b8     libucrt:initcon.obj
 0002:000464cc       $unwind$_tolower_l         000000018006d4cc     libucrt:tolower_toupper.obj
 0002:000464dc       $unwind$_query_new_handler 000000018006d4dc     libucrt:new_handler.obj
 0002:000464fc       $unwind$_configure_narrow_argv 000000018006d4fc     libucrt:argv_parsing.obj
 0002:00046510       $unwind$??$free_environment@_W@@YAXQEAPEA_W@Z 000000018006d510     libucrt:environment_initialization.obj
 0002:00046510       $unwind$??$free_environment@D@@YAXQEAPEAD@Z 000000018006d510     libucrt:environment_initialization.obj
 0002:0004651c       $unwind$??$create_environment@D@@YAQEAPEADQEAD@Z 000000018006d51c     libucrt:environment_initialization.obj
 0002:00046534       $unwind$_register_onexit_function 000000018006d534     libucrt:onexit.obj
 0002:0004653c       $unwind$_execute_onexit_table 000000018006d53c     libucrt:onexit.obj
 0002:00046544       $unwind$??$?RV<lambda_638799b9deba96c50f710eeac98168cd>@@AEAV<lambda_22ebabd17bc4fa466a2aca6d8deb888d>@@V<lambda_a6f7d7db0129f75315ebf26d50c089f1>@@@?$__crt_seh_guarded_call@H@@QEAAH$$QEAV<lambda_638799b9deba96c50f710eeac98168cd>@@AEAV<lambda_22ebabd17bc4fa466a2aca6d8deb888d>@@$$QEAV<lambda_a6f7d7db0129f75315ebf26d50c089f1>@@@Z 000000018006d544     libucrt:onexit.obj
 0002:00046568       $unwind$??$?RV<lambda_7777bce6b2f8c936911f934f8298dc43>@@AEAV<lambda_f03950bc5685219e0bcd2087efbe011e>@@V<lambda_3883c3dff614d5e0c5f61bb1ac94921c>@@@?$__crt_seh_guarded_call@H@@QEAAH$$QEAV<lambda_7777bce6b2f8c936911f934f8298dc43>@@AEAV<lambda_f03950bc5685219e0bcd2087efbe011e>@@$$QEAV<lambda_3883c3dff614d5e0c5f61bb1ac94921c>@@@Z 000000018006d568     libucrt:onexit.obj
 0002:0004658c       $unwind$??$parse_integer@KV?$c_string_character_source@_W@__crt_strtox@@@__crt_strtox@@YAKQEAU__crt_locale_pointers@@V?$c_string_character_source@_W@0@H_N@Z 000000018006d58c     libucrt:atox.obj
 0002:000465a8       $xdatasym                  000000018006d5a8     libucrt:strncmp.obj
 0002:000465ac       $unwind$__acrt_GetModuleFileNameA 000000018006d5ac     libucrt:getmodulefilenamea.obj
 0002:000465c8       $unwind$__acrt_uninitialize_locale 000000018006d5c8     libucrt:wsetlocale.obj
 0002:000465c8       $unwind$__acrt_get_sigabrt_handler 000000018006d5c8     libucrt:signal.obj
 0002:000465d0       $unwind$raise              000000018006d5d0     libucrt:signal.obj
 0002:0004660c       $unwind$??$?RV<lambda_450d765d439847d4c735a33c368b5fc0>@@AEAV<lambda_44731a7d0e6d81c3e6aa82d741081786>@@V<lambda_601a2a7da3b7a96e9554ac7215c4b07c>@@@?$__crt_seh_guarded_call@P6AXH@Z@@QEAAP6AXH@Z$$QEAV<lambda_450d765d439847d4c735a33c368b5fc0>@@AEAV<lambda_44731a7d0e6d81c3e6aa82d741081786>@@$$QEAV<lambda_601a2a7da3b7a96e9554ac7215c4b07c>@@@Z 000000018006d60c     libucrt:signal.obj
 0002:00046630       $unwind$__acrt_locale_free_lc_time_if_unreferenced 000000018006d630     libucrt:locale_refcounting.obj
 0002:00046630       $unwind$_free_base         000000018006d630     libucrt:free_base.obj
 0002:00046630       $unwind$?destroy_fls@@YAXPEAX@Z 000000018006d630     libucrt:per_thread_data.obj
 0002:00046630       $unwind$__acrt_locale_free_numeric 000000018006d630     libucrt:initnum.obj
 0002:00046638       $unwind$?construct_ptd_array@@YAXQEAU__acrt_ptd@@@Z 000000018006d638     libucrt:per_thread_data.obj
 0002:00046640       $unwind$?destroy_ptd_array@@YAXQEAU__acrt_ptd@@@Z 000000018006d640     libucrt:per_thread_data.obj
 0002:00046648       $unwind$??$?RV<lambda_0ae27a3a962d80f24befdcbee591983d>@@AEAV<lambda_8d0ee55de4b1038c4002e0adecdf1839>@@V<lambda_dc504788e8f1664fe9b84e20bfb512f2>@@@?$__crt_seh_guarded_call@X@@QEAAX$$QEAV<lambda_0ae27a3a962d80f24befdcbee591983d>@@AEAV<lambda_8d0ee55de4b1038c4002e0adecdf1839>@@$$QEAV<lambda_dc504788e8f1664fe9b84e20bfb512f2>@@@Z 000000018006d648     libucrt:per_thread_data.obj
 0002:0004666c       $unwind$??$?RV<lambda_aa87e3671a710a21b5dc78c0bdf72e11>@@AEAV<lambda_92619d2358a28f41a33ba319515a20b9>@@V<lambda_6992ecaafeb10aed2b74cb1fae11a551>@@@?$__crt_seh_guarded_call@X@@QEAAX$$QEAV<lambda_aa87e3671a710a21b5dc78c0bdf72e11>@@AEAV<lambda_92619d2358a28f41a33ba319515a20b9>@@$$QEAV<lambda_6992ecaafeb10aed2b74cb1fae11a551>@@@Z 000000018006d66c     libucrt:per_thread_data.obj
 0002:00046690       $unwind$??$?RV<lambda_f2e299630e499de9f9a165e60fcd3db5>@@AEAV<lambda_2ae9d31cdba2644fcbeaf08da7c24588>@@V<lambda_40d01ff24d0e7b3814fdbdcee8eab3c7>@@@?$__crt_seh_guarded_call@X@@QEAAX$$QEAV<lambda_f2e299630e499de9f9a165e60fcd3db5>@@AEAV<lambda_2ae9d31cdba2644fcbeaf08da7c24588>@@$$QEAV<lambda_40d01ff24d0e7b3814fdbdcee8eab3c7>@@@Z 000000018006d690     libucrt:per_thread_data.obj
 0002:000466b4       $unwind$??$?RV<lambda_2d41944a1d46af3157314b8a01080d33>@@AEAV<lambda_8f455de75cd7d7f24b4096f044d8b9e6>@@V<lambda_aa500f224e6afead328df44964fe2772>@@@?$__crt_seh_guarded_call@X@@QEAAX$$QEAV<lambda_2d41944a1d46af3157314b8a01080d33>@@AEAV<lambda_8f455de75cd7d7f24b4096f044d8b9e6>@@$$QEAV<lambda_aa500f224e6afead328df44964fe2772>@@@Z 000000018006d6b4     libucrt:per_thread_data.obj
 0002:000466d8       $unwind$??$write_buffer_nolock@D@@YA_NDV__crt_stdio_stream@@@Z 000000018006d6d8     libucrt:_flsbuf.obj
 0002:000466e8       $unwind$??$write_buffer_nolock@_W@@YA_N_WV__crt_stdio_stream@@@Z 000000018006d6e8     libucrt:_flsbuf.obj
 0002:000466f8       $unwind$__acrt_initialize_lowio 000000018006d6f8     libucrt:ioinit.obj
 0002:00046718       $unwind$?initialize_inherited_file_handles_nolock@@YAXXZ 000000018006d718     libucrt:ioinit.obj
 0002:00046734       $unwind$?fp_format_e@@YAHQEBNQEAD_K12H_NIQEAU__crt_locale_pointers@@@Z 000000018006d734     libucrt:cvt.obj
 0002:00046734       $unwind$_mbtowc_l          000000018006d734     libucrt:mbtowc.obj
 0002:00046734       $unwind$__acrt_LCMapStringEx 000000018006d734     libucrt:winapi_thunks.obj
 0002:00046748       $unwind$__acrt_is_interactive 000000018006d748     libucrt:winapi_thunks.obj
 0002:0004675c       $unwind$_fcloseall         000000018006d75c     libucrt:closeall.obj
 0002:00046780       $unwind$_close             000000018006d780     libucrt:close.obj
 0002:00046780       $unwind$_commit            000000018006d780     libucrt:commit.obj
 0002:00046788       $unwind$??$?RV<lambda_a37b2b86f63e897a80ea819b0eb08c01>@@AEAV<lambda_38ce7e780aa69e748d6df282ebc68efe>@@V<lambda_99fb1378e971ab6e7edea83e3a7a83a2>@@@?$__crt_seh_guarded_call@H@@QEAAH$$QEAV<lambda_a37b2b86f63e897a80ea819b0eb08c01>@@AEAV<lambda_38ce7e780aa69e748d6df282ebc68efe>@@$$QEAV<lambda_99fb1378e971ab6e7edea83e3a7a83a2>@@@Z 000000018006d788     libucrt:commit.obj
 0002:000467ac       $unwind$_write             000000018006d7ac     libucrt:write.obj
 0002:000467dc       $unwind$_write_nolock      000000018006d7dc     libucrt:write.obj
 0002:000467f4       $unwind$?write_double_translated_ansi_nolock@@YA?AUwrite_result@?A0x17268360@@HQEBDI@Z 000000018006d7f4     libucrt:write.obj
 0002:00046818       $unwind$?write_text_ansi_nolock@@YA?AUwrite_result@?A0x17268360@@HQEBDI@Z 000000018006d818     libucrt:write.obj
 0002:00046818       $unwind$?write_text_utf16le_nolock@@YA?AUwrite_result@?A0x17268360@@HQEBDI@Z 000000018006d818     libucrt:write.obj
 0002:00046838       $unwind$?write_text_utf8_nolock@@YA?AUwrite_result@?A0x17268360@@HQEBDI@Z 000000018006d838     libucrt:write.obj
 0002:0004685c       $unwind$??$?RV<lambda_751a882b2c74d4b022dec766aa51a29a>@@AEAV<lambda_628dfdc04ba53c8bfc02c9951375f3f5>@@V<lambda_f6c7be5f7998530c34de24c7437d6b54>@@@?$__crt_seh_guarded_call@H@@QEAAH$$QEAV<lambda_751a882b2c74d4b022dec766aa51a29a>@@AEAV<lambda_628dfdc04ba53c8bfc02c9951375f3f5>@@$$QEAV<lambda_f6c7be5f7998530c34de24c7437d6b54>@@@Z 000000018006d85c     libucrt:close.obj
 0002:00046880       $unwind$_wctomb_s_l        000000018006d880     libucrt:wctomb.obj
 0002:00046890       $unwind$__acrt_fp_format   000000018006d890     libucrt:cvt.obj
 0002:000468a4       $unwind$?fp_format_nan_or_infinity@@YAHW4__acrt_fp_class@@_NPEAD_K1@Z 000000018006d8a4     libucrt:cvt.obj
 0002:000468b8       $unwind$?fp_format_e_internal@@YAHQEAD_KH_NIQEAU_strflt@@2QEAU__crt_locale_pointers@@@Z 000000018006d8b8     libucrt:cvt.obj
 0002:000468d0       $unwind$?fp_format_a@@YAHQEBNPEAD_KQEAD2H_NIQEAU__crt_locale_pointers@@@Z 000000018006d8d0     libucrt:cvt.obj
 0002:000468ec       $unwind$??$__acrt_wcs_to_mbs_cp@U__crt_win32_buffer_internal_dynamic_resizing@@@@YAHQEB_WAEAV?$__crt_win32_buffer@DU__crt_win32_buffer_internal_dynamic_resizing@@@@I@Z 000000018006d8ec     libucrt:argv_wildcards.obj
 0002:000468ec       $unwind$__dcrt_get_narrow_environment_from_os 000000018006d8ec     libucrt:get_environment_from_os.obj
 0002:000468ec       $unwind$?fp_format_f_internal@@YAHQEAD_KHQEAU_strflt@@_NQEAU__crt_locale_pointers@@@Z 000000018006d8ec     libucrt:cvt.obj
 0002:00046904       $unwind$?fp_format_g@@YAHQEBNQEAD_K12H_NIQEAU__crt_locale_pointers@@@Z 000000018006d904     libucrt:cvt.obj
 0002:00046918       $unwind$_fputwc_nolock     000000018006d918     libucrt:fputwc.obj
 0002:00046934       $unwind$??$?RV<lambda_410d79af7f07d98d83a3f525b3859a53>@@AEAV<lambda_3e16ef9562a7dcce91392c22ab16ea36>@@V<lambda_38119f0e861e05405d8a144b9b982f0a>@@@?$__crt_seh_guarded_call@X@@QEAAX$$QEAV<lambda_410d79af7f07d98d83a3f525b3859a53>@@AEAV<lambda_3e16ef9562a7dcce91392c22ab16ea36>@@$$QEAV<lambda_38119f0e861e05405d8a144b9b982f0a>@@@Z 000000018006d934     libucrt:wsetlocale.obj
 0002:0004695c       $unwind$??$common_lseek@_J@@YA_JH_JH@Z 000000018006d95c     libucrt:lseek.obj
 0002:0004698c       $unwind$_call_matherr      000000018006d98c     libucrt:libm_error.obj
 0002:00046994       $unwind$_handle_errorf     000000018006d994     libucrt:libm_error.obj
 0002:00046994       $unwind$_handle_error      000000018006d994     libucrt:libm_error.obj
 0002:000469b4       $unwind$_isctype_l         000000018006d9b4     libucrt:isctype.obj
 0002:000469d0       $unwind$__acrt_GetStringTypeA 000000018006d9d0     libucrt:getstringtypea.obj
 0002:000469f8       $unwind$__acrt_LCMapStringA 000000018006d9f8     libucrt:lcmapstringa.obj
 0002:00046a08       $unwind$?__acrt_LCMapStringA_stat@@YAHPEAU__crt_locale_pointers@@PEB_WKPEBDHPEADHHH@Z 000000018006da08     libucrt:lcmapstringa.obj
 0002:00046a30       $unwind$_raise_exc_ex      000000018006da30     libucrt:fpexcept.obj
 0002:00046a44       $unwind$_ctrlfp            000000018006da44     libucrt:fpctrl.obj
 0002:00046a6c       $unwind$__acrt_initialize_fma3 000000018006da6c     libucrt:fma3_available.obj
 0002:00046a74       $unwind$_powf_special      000000018006da74     libucrt:pow_special.obj
 0002:00046a84       $unwind$_pow_special       000000018006da84     libucrt:pow_special.obj
 0002:00046a90       $unwind$??$common_expand_argv_wildcards@D@@YAHQEAPEADQEAPEAPEAD@Z 000000018006da90     libucrt:argv_wildcards.obj
 0002:00046aa8       $unwind$??$copy_and_add_argument_to_buffer@D@@YAHQEBD0_KAEAV?$argument_list@D@?A0x5f5c8891@@@Z 000000018006daa8     libucrt:argv_wildcards.obj
 0002:00046ac4       $unwind$??$expand_argument_wildcards@D@@YAHQEAD0AEAV?$argument_list@D@?A0x5f5c8891@@@Z 000000018006dac4     libucrt:argv_wildcards.obj
 0002:00046ae8       $unwind$_setmbcp_nolock    000000018006dae8     libucrt:mbctype.obj
 0002:00046b08       $unwind$?update_thread_multibyte_data_internal@@YAPEAU__crt_multibyte_data@@QEAU__acrt_ptd@@QEAPEAU1@@Z 000000018006db08     libucrt:mbctype.obj
 0002:00046b30       $unwind$?setmbcp_internal@@YAHH_NQEAU__acrt_ptd@@QEAPEAU__crt_multibyte_data@@@Z 000000018006db30     libucrt:mbctype.obj
 0002:00046b40       $unwind$?setSBUpLow@@YAXPEAU__crt_multibyte_data@@@Z 000000018006db40     libucrt:mbctype.obj
 0002:00046b5c       $unwind$??$?RV<lambda_efdfa57d1f175319df784efa44bb7b81>@@AEAV<lambda_5f0a4c1567f8adc6734073e5d1e1b35c>@@V<lambda_2e8a7d3640ea6ccb4c2413664c2db6fd>@@@?$__crt_seh_guarded_call@X@@QEAAX$$QEAV<lambda_efdfa57d1f175319df784efa44bb7b81>@@AEAV<lambda_5f0a4c1567f8adc6734073e5d1e1b35c>@@$$QEAV<lambda_2e8a7d3640ea6ccb4c2413664c2db6fd>@@@Z 000000018006db5c     libucrt:mbctype.obj
 0002:00046b80       $unwind$__acrt_update_thread_locale_data 000000018006db80     libucrt:locale_refcounting.obj
 0002:00046ba4       $unwind$__acrt_lowio_destroy_handle_array 000000018006dba4     libucrt:osfinfo.obj
 0002:00046bb4       $unwind$__acrt_lowio_ensure_fh_exists 000000018006dbb4     libucrt:osfinfo.obj
 0002:00046be0       $unwind$?GetTableIndexFromLocaleName@@YAHPEB_W@Z 000000018006dbe0     libucrt:lcidtoname_downlevel.obj
 0002:00046bf8       $unwind$?__mbsrtowcs_utf8@__crt_mbstring@@YA_KPEA_WPEAPEBD_KPEAU_Mbstatet@@@Z 000000018006dbf8     libucrt:mbrtowc.obj
 0002:00046c10       $unwind$_putwch_nolock     000000018006dc10     libucrt:putwch.obj
 0002:00046c18       $unwind$__acrt_fltout      000000018006dc18     libucrt:cfout.obj
 0002:00046c38       $unwind$__acrt_locale_free_monetary 000000018006dc38     libucrt:initmon.obj
 0002:00046c40       $unwind$__acrt_locale_free_time 000000018006dc40     libucrt:inittime.obj
 0002:00046c50       $xdatasym                  000000018006dc50     libucrt:fpsr.obj
 0002:00046c58       $unwind$qsort              000000018006dc58     libucrt:qsort.obj
 0002:00046c70       $chain$4$qsort             000000018006dc70     libucrt:qsort.obj
 0002:00046c94       $chain$5$qsort             000000018006dc94     libucrt:qsort.obj
 0002:00046ca4       $unwind$strpbrk            000000018006dca4     libucrt:strpbrk.obj
 0002:00046cb4       $unwind$fallbackMethod     000000018006dcb4     libucrt:strpbrk.obj
 0002:00046cc4       $unwind$?__mbrtoc32_utf8@__crt_mbstring@@YA_KPEA_UPEBD_KPEAU_Mbstatet@@@Z 000000018006dcc4     libucrt:mbrtoc32.obj
 0002:00046ce0       $xdatasym                  000000018006dce0     libucrt:log10.obj
 0002:00046cec       $unwind$_log_special_common 000000018006dcec     libucrt:log_special.obj
 0002:00046cf8       $unwind$?DloadMakePermanentImageCommit@@YAXPEAX_K@Z 000000018006dcf8     DelayImp:delayhlp.obj
 0002:00046d04       $unwind$?DloadProtectSection@@YAXKPEAK@Z 000000018006dd04     DelayImp:delayhlp.obj
 0002:00046d14       $unwind$__delayLoadHelper2 000000018006dd14     DelayImp:delayhlp.obj
 0002:00046d2c       $unwind$_IsNonwritableInCurrentImage 000000018006dd2c     LIBCMT:pesect.obj
 0002:00046d50       $unwind$strrchr            000000018006dd50     libvcruntime:strrchr.obj
 0002:00047920       .edata                     000000018006e920     woff2_decode.exp
 0002:00047948       rgpv                       000000018006e948     woff2_decode.exp
 0002:0004794c       rgszName                   000000018006e94c     woff2_decode.exp
 0002:00047950       rgwOrd                     000000018006e950     woff2_decode.exp
 0002:00047952       szName                     000000018006e952     woff2_decode.exp
 0002:00047964       $N00001                    000000018006e964     woff2_decode.exp
 0002:00047c24       .idata$6                   000000018006ec24     kernel32:KERNEL32.dll
 0003:00000000       ?init@std@@3JA             0000000180070000     libcpmt:xlock.obj
 0003:00000068       ?atcount_cdecl@@3_KA       0000000180070068     libcpmt:iosptrs.obj
 0003:000000a0       ?__vcrt_flsindex@@3KA      00000001800700a0     libvcruntime:per_thread_data.obj
 0003:000001d0       ?errno_no_memory@@3HA      00000001800701d0     libucrt:errno.obj
 0003:000001d4       ?doserrno_no_memory@@3KA   00000001800701d4     libucrt:errno.obj
 0003:00000280       ?__acrt_flsindex@@3KA      0000000180070280     libucrt:per_thread_data.obj
 0003:00000554       ?dazSupported@?1??_ctrlfp@@9@9 0000000180070554     libucrt:fpctrl.obj
 0003:00000560       ?tzstd_program@@3PADA      0000000180070560     libucrt:timeset.obj
 0003:000005a0       ?tzdst_program@@3PADA      00000001800705a0     libucrt:timeset.obj
 0003:000005e0       ?tzname_states@@3PAY01PEADA 00000001800705e0     libucrt:timeset.obj
 0003:000005f0       _mbctypes                  00000001800705f0     libucrt:mbctype.obj
 0003:00000700       _mbcasemaps                0000000180070700     libucrt:mbctype.obj
 0003:00000800       ?__rgctypeflag@@3PADA      0000000180070800     libucrt:mbctype.obj
 0003:00000810       ?__rgcode_page_info@@3PAUcode_page_info@@A 0000000180070810     libucrt:mbctype.obj
 0003:00000b30       ?__dcrt_lowio_console_output_handle@@3PEAXEA 0000000180070b30     libucrt:initcon.obj
 0003:00000b40       kBrotliDictionary          0000000180070b40     dictionary.obj
 0003:00000bf0       _module                    0000000180070bf0     woff2_decode.obj
 0003:00000e40       ?initlocks@std@@3V_Init_locks@1@A 0000000180070e40     libcpmt:xlock.obj
 0003:00000e50       ?mtx@std@@3PAU_RTL_CRITICAL_SECTION@@A 0000000180070e50     libcpmt:xlock.obj
 0003:00000fc0       ?classic_locale@std@@3Vlocale@1@A 0000000180070fc0     libcpmt:locale0.obj
 0003:00000fd8       ?_Fac_tidy_reg@std@@3U_Fac_tidy_reg_t@1@B 0000000180070fd8     libcpmt:locale0.obj
 0003:00000fe0       ?_Fac_head@std@@3PEAU_Fac_node@1@EA 0000000180070fe0     libcpmt:locale0.obj
 0003:00000fe8       global_locale              0000000180070fe8     libcpmt:locale0.obj
 0003:00001000       ?stdstr@std@@3PAPEAVios_base@1@A 0000000180071000     libcpmt:ios.obj
 0003:00001050       ?stdopens@std@@3PADA       0000000180071050     libcpmt:ios.obj
 0003:00001210       ?initlocks@std@@3V_Init_locks@1@A 0000000180071210     libcpmt:iosptrs.obj
 0003:00001211       ?init_atexit@@3U_Init_atexit@@A 0000000180071211     libcpmt:iosptrs.obj
 0003:00001220       ?atfuns_cdecl@@3PAP6AXXZA  0000000180071220     libcpmt:iosptrs.obj
 0003:00001360       GS_ExceptionRecord         0000000180071360     LIBCMT:gs_report.obj
 0003:00001400       GS_ContextRecord           0000000180071400     LIBCMT:gs_report.obj
 0003:000018d0       ?__proc_attached@@3HA      00000001800718d0     LIBCMT:dll_dllmain.obj
 0003:000018e8       ?is_initialized_as_dll@@3_NA 00000001800718e8     LIBCMT:utility.obj
 0003:000018e9       ?module_local_atexit_table_initialized@@3_NA 00000001800718e9     LIBCMT:utility.obj
 0003:000018f0       ?module_local_atexit_table@@3U_onexit_table_t@@A 00000001800718f0     LIBCMT:utility.obj
 0003:00001908       ?module_local_at_quick_exit_table@@3U_onexit_table_t@@A 0000000180071908     LIBCMT:utility.obj
 0003:00001950       ?__vcrt_startup_thread_ptd@@3U__vcrt_ptd@@A 0000000180071950     libvcruntime:per_thread_data.obj
 0003:000019e0       __vcrt_lock_table          00000001800719e0     libvcruntime:locks.obj
 0003:00001a08       __vcrt_locks_initialized   0000000180071a08     libvcruntime:locks.obj
 0003:00001a10       ?module_handles@@3PAPEAUHINSTANCE__@@A 0000000180071a10     libvcruntime:winapi_downlevel.obj
 0003:00001a28       ?encoded_function_pointers@@3PAPEAXA 0000000180071a28     libvcruntime:winapi_downlevel.obj
 0003:00001a90       ?heap@@3V_HeapManager@@A   0000000180071a90     libvcruntime:undname.obj
 0003:00001ab8       ?__acrt_invalid_parameter_handler@@3V?$dual_state_global@P6AXPEB_W00I_K@Z@__crt_state_management@@A 0000000180071ab8     libucrt:invalid_parameter.obj
 0003:00001ad4       ?c_termination_complete@@3JA 0000000180071ad4     libucrt:exit.obj
 0003:00001ad8       ?thread_local_exit_callback_func@@3P6AXPEAXK0@ZEA 0000000180071ad8     libucrt:exit.obj
 0003:00001af0       ?__acrt_lock_table@@3PAU_RTL_CRITICAL_SECTION@@A 0000000180071af0     libucrt:locks.obj
 0003:00001d20       ?__acrt_locks_initialized@@3IA 0000000180071d20     libucrt:locks.obj
 0003:00001d30       ?__acrt_new_handler@@3V?$dual_state_global@P6AH_K@Z@__crt_state_management@@A 0000000180071d30     libucrt:new_handler.obj
 0003:00001d40       ?program_name@?1???$common_configure_argv@D@@YAHW4_crt_argv_mode@@@Z@4PADA 0000000180071d40     libucrt:argv_parsing.obj
 0003:00001e98       ?__acrt_app_type@@3W4_crt_app_type@@A 0000000180071e98     libucrt:report_runtime_error.obj
 0003:00001e9c       __acrt_error_mode          0000000180071e9c     libucrt:set_error_mode.obj
 0003:00001ea0       ?ctrlc_action@@3V?$dual_state_global@P6AXH@Z@__crt_state_management@@A 0000000180071ea0     libucrt:signal.obj
 0003:00001ea8       ?ctrlbreak_action@@3V?$dual_state_global@P6AXH@Z@__crt_state_management@@A 0000000180071ea8     libucrt:signal.obj
 0003:00001eb0       ?abort_action@@3V?$dual_state_global@P6AXH@Z@__crt_state_management@@A 0000000180071eb0     libucrt:signal.obj
 0003:00001eb8       ?term_action@@3V?$dual_state_global@P6AXH@Z@__crt_state_management@@A 0000000180071eb8     libucrt:signal.obj
 0003:000022d0       ?module_handles@@3PAPEAUHINSTANCE__@@A 00000001800722d0     libucrt:winapi_thunks.obj
 0003:00002370       ?encoded_function_pointers@@3PAPEAXA 0000000180072370     libucrt:winapi_thunks.obj
 0003:00002480       ?internal_state@?1??_mbtowc_l@@9@4U_Mbstatet@@A 0000000180072480     libucrt:mbtowc.obj
 0003:00002488       ?enable_percent_n@@3_KA    0000000180072488     libucrt:printf_count_output.obj
 0003:000024b0       ?state_cache@?1???$get_cached_win_policy@Udeveloper_information_policy_properties@?1??__acrt_get_developer_information_policy@@YA?AW4developer_information_policy@@XZ@@@YA?AW4developer_information_policy@@W4AppPolicyShowDeveloperDiagnostic@@@Z@4JA 00000001800724b0     libucrt:win_policies.obj
 0003:000024b4       ?state_cache@?1???$get_cached_win_policy@Uwindowing_model_policy_properties@?1??__acrt_get_windowing_model_policy@@YA?AW4windowing_model_policy@@XZ@@@YA?AW4windowing_model_policy@@W4AppPolicyWindowingModel@@@Z@4JA 00000001800724b4     libucrt:win_policies.obj
 0003:000024d0       ?_tzname@@3V?$dual_state_global@PEAPEAD@__crt_state_management@@A 00000001800724d0     libucrt:timeset.obj
 0003:000024e0       ?tz_api_used@@3HA          00000001800724e0     libucrt:tzset.obj
 0003:000024f0       ?tz_info@@3U_TIME_ZONE_INFORMATION@@A 00000001800724f0     libucrt:tzset.obj
 0003:000025b8       ?fSystemSet@@3HA           00000001800725b8     libucrt:mbctype.obj
 0003:000025bc       ?initialized@?1??__acrt_initialize_multibyte@@9@4_NA 00000001800725bc     libucrt:mbctype.obj
 0003:000025f8       ?user_matherr@@3V?$dual_state_global@P6AHPEAU_exception@@@Z@__crt_state_management@@A 00000001800725f8     libucrt:matherr.obj
 0003:00002600       ?__acrt_global_new_mode@@3V?$dual_state_global@J@__crt_state_management@@A 0000000180072600     libucrt:new_mode.obj
 0003:00002608       ?internal_pst@?1??__mbrtoc32_utf8@__crt_mbstring@@YA_KPEA_UPEBD_KPEAU_Mbstatet@@@Z@4U3@A 0000000180072608     libucrt:mbrtoc32.obj
 0004:00000000       $pdata$??__Einitlocks@std@@YAXXZ 0000000180073000     libcpmt:xlock.obj
 0004:0000000c       $pdata$??__Einitlocks@std@@YAXXZ 000000018007300c     libcpmt:iosptrs.obj
 0004:00000018       $pdata$?Read@Buffer@woff2@@QEAA_NPEAE_K@Z 0000000180073018     font.obj
 0004:00000024       $pdata$??A?$map@IIU?$less@I@std@@V?$allocator@U?$pair@$$CBII@std@@@2@@std@@QEAAAEAIAEBI@Z 0000000180073024     font.obj
 0004:00000030       $pdata$?_Tidy@?$_Tree@V?$_Tmap_traits@IIU?$less@I@std@@V?$allocator@U?$pair@$$CBII@std@@@2@$0A@@std@@@std@@IEAAXXZ 0000000180073030     font.obj
 0004:0000003c       $pdata$?_Tidy@?$vector@IV?$allocator@I@std@@@std@@AEAAXXZ 000000018007303c     font.obj
 0004:00000048       $pdata$?_Erase@?$_Tree@V?$_Tmap_traits@U?$pair@II@std@@IU?$less@U?$pair@II@std@@@2@V?$allocator@U?$pair@$$CBU?$pair@II@std@@I@std@@@2@$0A@@std@@@std@@IEAAXPEAU?$_Tree_node@U?$pair@$$CBU?$pair@II@std@@I@std@@PEAX@2@@Z 0000000180073048     woff2_dec.obj
 0004:00000048       $pdata$?_Erase@?$_Tree@V?$_Tmap_traits@IGU?$less@I@std@@V?$allocator@U?$pair@$$CBIG@std@@@2@$0A@@std@@@std@@IEAAXPEAU?$_Tree_node@U?$pair@$$CBIG@std@@PEAX@2@@Z 0000000180073048     woff2_dec.obj
 0004:00000048       $pdata$?_Erase@?$_Tree@V?$_Tmap_traits@IIU?$less@I@std@@V?$allocator@U?$pair@$$CBII@std@@@2@$0A@@std@@@std@@IEAAXPEAU?$_Tree_node@U?$pair@$$CBII@std@@PEAX@2@@Z 0000000180073048     font.obj
 0004:00000054       $pdata$??$_Emplace_reallocate@AEBI@?$vector@IV?$allocator@I@std@@@std@@QEAAPEAIQEAIAEBI@Z 0000000180073054     font.obj
 0004:00000060       $pdata$3$??$_Emplace_reallocate@AEBI@?$vector@IV?$allocator@I@std@@@std@@QEAAPEAIQEAIAEBI@Z 0000000180073060     font.obj
 0004:0000006c       $pdata$5$??$_Emplace_reallocate@AEBI@?$vector@IV?$allocator@I@std@@@std@@QEAAPEAIQEAIAEBI@Z 000000018007306c     font.obj
 0004:00000078       $pdata$6$??$_Emplace_reallocate@AEBI@?$vector@IV?$allocator@I@std@@@std@@QEAAPEAIQEAIAEBI@Z 0000000180073078     font.obj
 0004:00000084       $pdata$?_Xlength@?$vector@UTable@woff2@@V?$allocator@UTable@woff2@@@std@@@std@@CAXXZ 0000000180073084     woff2_dec.obj
 0004:00000084       $pdata$?_Xlength@?$vector@EV?$allocator@E@std@@@std@@CAXXZ 0000000180073084     font.obj
 0004:00000084       $pdata$?_Xlength@?$vector@IV?$allocator@I@std@@@std@@CAXXZ 0000000180073084     font.obj
 0004:00000084       $pdata$?_Xlength@?$vector@PEAUTable@woff2@@V?$allocator@PEAUTable@woff2@@@std@@@std@@CAXXZ 0000000180073084     woff2_dec.obj
 0004:00000084       $pdata$?_Xlength@?$vector@FV?$allocator@F@std@@@std@@CAXXZ 0000000180073084     transform.obj
 0004:00000084       $pdata$?_Xlength@?$vector@GV?$allocator@G@std@@@std@@CAXXZ 0000000180073084     transform.obj
 0004:00000090       $pdata$??$_Insert_hint@AEAU?$pair@$$CBII@std@@PEAU?$_Tree_node@U?$pair@$$CBII@std@@PEAX@2@@?$_Tree@V?$_Tmap_traits@IIU?$less@I@std@@V?$allocator@U?$pair@$$CBII@std@@@2@$0A@@std@@@std@@IEAA?AV?$_Tree_iterator@V?$_Tree_val@U?$_Tree_simple_types@U?$pair@$$CBII@std@@@std@@@std@@@1@V?$_Tree_const_iterator@V?$_Tree_val@U?$_Tree_simple_types@U?$pair@$$CBII@std@@@std@@@std@@@1@AEAU?$pair@$$CBII@1@PEAU?$_Tree_node@U?$pair@$$CBII@std@@PEAX@1@@Z 0000000180073090     font.obj
 0004:00000090       $pdata$??$_Insert_hint@AEAU?$pair@$$CBIG@std@@PEAU?$_Tree_node@U?$pair@$$CBIG@std@@PEAX@2@@?$_Tree@V?$_Tmap_traits@IGU?$less@I@std@@V?$allocator@U?$pair@$$CBIG@std@@@2@$0A@@std@@@std@@IEAA?AV?$_Tree_iterator@V?$_Tree_val@U?$_Tree_simple_types@U?$pair@$$CBIG@std@@@std@@@std@@@1@V?$_Tree_const_iterator@V?$_Tree_val@U?$_Tree_simple_types@U?$pair@$$CBIG@std@@@std@@@std@@@1@AEAU?$pair@$$CBIG@1@PEAU?$_Tree_node@U?$pair@$$CBIG@std@@PEAX@1@@Z 0000000180073090     woff2_dec.obj
 0004:0000009c       $pdata$0$??$_Insert_hint@AEAU?$pair@$$CBII@std@@PEAU?$_Tree_node@U?$pair@$$CBII@std@@PEAX@2@@?$_Tree@V?$_Tmap_traits@IIU?$less@I@std@@V?$allocator@U?$pair@$$CBII@std@@@2@$0A@@std@@@std@@IEAA?AV?$_Tree_iterator@V?$_Tree_val@U?$_Tree_simple_types@U?$pair@$$CBII@std@@@std@@@std@@@1@V?$_Tree_const_iterator@V?$_Tree_val@U?$_Tree_simple_types@U?$pair@$$CBII@std@@@std@@@std@@@1@AEAU?$pair@$$CBII@1@PEAU?$_Tree_node@U?$pair@$$CBII@std@@PEAX@1@@Z 000000018007309c     font.obj
 0004:0000009c       $pdata$0$??$_Insert_hint@AEAU?$pair@$$CBIG@std@@PEAU?$_Tree_node@U?$pair@$$CBIG@std@@PEAX@2@@?$_Tree@V?$_Tmap_traits@IGU?$less@I@std@@V?$allocator@U?$pair@$$CBIG@std@@@2@$0A@@std@@@std@@IEAA?AV?$_Tree_iterator@V?$_Tree_val@U?$_Tree_simple_types@U?$pair@$$CBIG@std@@@std@@@std@@@1@V?$_Tree_const_iterator@V?$_Tree_val@U?$_Tree_simple_types@U?$pair@$$CBIG@std@@@std@@@std@@@1@AEAU?$pair@$$CBIG@1@PEAU?$_Tree_node@U?$pair@$$CBIG@std@@PEAX@1@@Z 000000018007309c     woff2_dec.obj
 0004:000000a8       $pdata$2$??$_Insert_hint@AEAU?$pair@$$CBII@std@@PEAU?$_Tree_node@U?$pair@$$CBII@std@@PEAX@2@@?$_Tree@V?$_Tmap_traits@IIU?$less@I@std@@V?$allocator@U?$pair@$$CBII@std@@@2@$0A@@std@@@std@@IEAA?AV?$_Tree_iterator@V?$_Tree_val@U?$_Tree_simple_types@U?$pair@$$CBII@std@@@std@@@std@@@1@V?$_Tree_const_iterator@V?$_Tree_val@U?$_Tree_simple_types@U?$pair@$$CBII@std@@@std@@@std@@@1@AEAU?$pair@$$CBII@1@PEAU?$_Tree_node@U?$pair@$$CBII@std@@PEAX@1@@Z 00000001800730a8     font.obj
 0004:000000a8       $pdata$2$??$_Insert_hint@AEAU?$pair@$$CBIG@std@@PEAU?$_Tree_node@U?$pair@$$CBIG@std@@PEAX@2@@?$_Tree@V?$_Tmap_traits@IGU?$less@I@std@@V?$allocator@U?$pair@$$CBIG@std@@@2@$0A@@std@@@std@@IEAA?AV?$_Tree_iterator@V?$_Tree_val@U?$_Tree_simple_types@U?$pair@$$CBIG@std@@@std@@@std@@@1@V?$_Tree_const_iterator@V?$_Tree_val@U?$_Tree_simple_types@U?$pair@$$CBIG@std@@@std@@@std@@@1@AEAU?$pair@$$CBIG@1@PEAU?$_Tree_node@U?$pair@$$CBIG@std@@PEAX@1@@Z 00000001800730a8     woff2_dec.obj
 0004:000000b4       $pdata$4$??$_Insert_hint@AEAU?$pair@$$CBII@std@@PEAU?$_Tree_node@U?$pair@$$CBII@std@@PEAX@2@@?$_Tree@V?$_Tmap_traits@IIU?$less@I@std@@V?$allocator@U?$pair@$$CBII@std@@@2@$0A@@std@@@std@@IEAA?AV?$_Tree_iterator@V?$_Tree_val@U?$_Tree_simple_types@U?$pair@$$CBII@std@@@std@@@std@@@1@V?$_Tree_const_iterator@V?$_Tree_val@U?$_Tree_simple_types@U?$pair@$$CBII@std@@@std@@@std@@@1@AEAU?$pair@$$CBII@1@PEAU?$_Tree_node@U?$pair@$$CBII@std@@PEAX@1@@Z 00000001800730b4     font.obj
 0004:000000b4       $pdata$4$??$_Insert_hint@AEAU?$pair@$$CBIG@std@@PEAU?$_Tree_node@U?$pair@$$CBIG@std@@PEAX@2@@?$_Tree@V?$_Tmap_traits@IGU?$less@I@std@@V?$allocator@U?$pair@$$CBIG@std@@@2@$0A@@std@@@std@@IEAA?AV?$_Tree_iterator@V?$_Tree_val@U?$_Tree_simple_types@U?$pair@$$CBIG@std@@@std@@@std@@@1@V?$_Tree_const_iterator@V?$_Tree_val@U?$_Tree_simple_types@U?$pair@$$CBIG@std@@@std@@@std@@@1@AEAU?$pair@$$CBIG@1@PEAU?$_Tree_node@U?$pair@$$CBIG@std@@PEAX@1@@Z 00000001800730b4     woff2_dec.obj
 0004:000000c0       $pdata$6$??$_Insert_hint@AEAU?$pair@$$CBII@std@@PEAU?$_Tree_node@U?$pair@$$CBII@std@@PEAX@2@@?$_Tree@V?$_Tmap_traits@IIU?$less@I@std@@V?$allocator@U?$pair@$$CBII@std@@@2@$0A@@std@@@std@@IEAA?AV?$_Tree_iterator@V?$_Tree_val@U?$_Tree_simple_types@U?$pair@$$CBII@std@@@std@@@std@@@1@V?$_Tree_const_iterator@V?$_Tree_val@U?$_Tree_simple_types@U?$pair@$$CBII@std@@@std@@@std@@@1@AEAU?$pair@$$CBII@1@PEAU?$_Tree_node@U?$pair@$$CBII@std@@PEAX@1@@Z 00000001800730c0     font.obj
 0004:000000c0       $pdata$6$??$_Insert_hint@AEAU?$pair@$$CBIG@std@@PEAU?$_Tree_node@U?$pair@$$CBIG@std@@PEAX@2@@?$_Tree@V?$_Tmap_traits@IGU?$less@I@std@@V?$allocator@U?$pair@$$CBIG@std@@@2@$0A@@std@@@std@@IEAA?AV?$_Tree_iterator@V?$_Tree_val@U?$_Tree_simple_types@U?$pair@$$CBIG@std@@@std@@@std@@@1@V?$_Tree_const_iterator@V?$_Tree_val@U?$_Tree_simple_types@U?$pair@$$CBIG@std@@@std@@@std@@@1@AEAU?$pair@$$CBIG@1@PEAU?$_Tree_node@U?$pair@$$CBIG@std@@PEAX@1@@Z 00000001800730c0     woff2_dec.obj
 0004:000000cc       $pdata$9$??$_Insert_hint@AEAU?$pair@$$CBIG@std@@PEAU?$_Tree_node@U?$pair@$$CBIG@std@@PEAX@2@@?$_Tree@V?$_Tmap_traits@IGU?$less@I@std@@V?$allocator@U?$pair@$$CBIG@std@@@2@$0A@@std@@@std@@IEAA?AV?$_Tree_iterator@V?$_Tree_val@U?$_Tree_simple_types@U?$pair@$$CBIG@std@@@std@@@std@@@1@V?$_Tree_const_iterator@V?$_Tree_val@U?$_Tree_simple_types@U?$pair@$$CBIG@std@@@std@@@std@@@1@AEAU?$pair@$$CBIG@1@PEAU?$_Tree_node@U?$pair@$$CBIG@std@@PEAX@1@@Z 00000001800730cc     woff2_dec.obj
 0004:000000cc       $pdata$9$??$_Insert_hint@AEAU?$pair@$$CBII@std@@PEAU?$_Tree_node@U?$pair@$$CBII@std@@PEAX@2@@?$_Tree@V?$_Tmap_traits@IIU?$less@I@std@@V?$allocator@U?$pair@$$CBII@std@@@2@$0A@@std@@@std@@IEAA?AV?$_Tree_iterator@V?$_Tree_val@U?$_Tree_simple_types@U?$pair@$$CBII@std@@@std@@@std@@@1@V?$_Tree_const_iterator@V?$_Tree_val@U?$_Tree_simple_types@U?$pair@$$CBII@std@@@std@@@std@@@1@AEAU?$pair@$$CBII@1@PEAU?$_Tree_node@U?$pair@$$CBII@std@@PEAX@1@@Z 00000001800730cc     font.obj
 0004:000000d8       $pdata$??$_Insert_at@AEAU?$pair@$$CBII@std@@PEAU?$_Tree_node@U?$pair@$$CBII@std@@PEAX@2@@?$_Tree@V?$_Tmap_traits@IIU?$less@I@std@@V?$allocator@U?$pair@$$CBII@std@@@2@$0A@@std@@@std@@IEAA?AV?$_Tree_iterator@V?$_Tree_val@U?$_Tree_simple_types@U?$pair@$$CBII@std@@@std@@@std@@@1@_NPEAU?$_Tree_node@U?$pair@$$CBII@std@@PEAX@1@AEAU?$pair@$$CBII@1@1@Z 00000001800730d8     font.obj
 0004:000000d8       $pdata$??$_Insert_at@AEAU?$pair@$$CBIG@std@@PEAU?$_Tree_node@U?$pair@$$CBIG@std@@PEAX@2@@?$_Tree@V?$_Tmap_traits@IGU?$less@I@std@@V?$allocator@U?$pair@$$CBIG@std@@@2@$0A@@std@@@std@@IEAA?AV?$_Tree_iterator@V?$_Tree_val@U?$_Tree_simple_types@U?$pair@$$CBIG@std@@@std@@@std@@@1@_NPEAU?$_Tree_node@U?$pair@$$CBIG@std@@PEAX@1@AEAU?$pair@$$CBIG@1@1@Z 00000001800730d8     woff2_dec.obj
 0004:000000d8       $pdata$??$_Insert_at@AEAU?$pair@$$CBU?$pair@II@std@@I@std@@PEAU?$_Tree_node@U?$pair@$$CBU?$pair@II@std@@I@std@@PEAX@2@@?$_Tree@V?$_Tmap_traits@U?$pair@II@std@@IU?$less@U?$pair@II@std@@@2@V?$allocator@U?$pair@$$CBU?$pair@II@std@@I@std@@@2@$0A@@std@@@std@@IEAA?AV?$_Tree_iterator@V?$_Tree_val@U?$_Tree_simple_types@U?$pair@$$CBU?$pair@II@std@@I@std@@@std@@@std@@@1@_NPEAU?$_Tree_node@U?$pair@$$CBU?$pair@II@std@@I@std@@PEAX@1@AEAU?$pair@$$CBU?$pair@II@std@@I@1@1@Z 00000001800730d8     woff2_dec.obj
 0004:000000e4       $pdata$0$??$_Insert_at@AEAU?$pair@$$CBII@std@@PEAU?$_Tree_node@U?$pair@$$CBII@std@@PEAX@2@@?$_Tree@V?$_Tmap_traits@IIU?$less@I@std@@V?$allocator@U?$pair@$$CBII@std@@@2@$0A@@std@@@std@@IEAA?AV?$_Tree_iterator@V?$_Tree_val@U?$_Tree_simple_types@U?$pair@$$CBII@std@@@std@@@std@@@1@_NPEAU?$_Tree_node@U?$pair@$$CBII@std@@PEAX@1@AEAU?$pair@$$CBII@1@1@Z 00000001800730e4     font.obj
 0004:000000e4       $pdata$0$??$_Insert_at@AEAU?$pair@$$CBU?$pair@II@std@@I@std@@PEAU?$_Tree_node@U?$pair@$$CBU?$pair@II@std@@I@std@@PEAX@2@@?$_Tree@V?$_Tmap_traits@U?$pair@II@std@@IU?$less@U?$pair@II@std@@@2@V?$allocator@U?$pair@$$CBU?$pair@II@std@@I@std@@@2@$0A@@std@@@std@@IEAA?AV?$_Tree_iterator@V?$_Tree_val@U?$_Tree_simple_types@U?$pair@$$CBU?$pair@II@std@@I@std@@@std@@@std@@@1@_NPEAU?$_Tree_node@U?$pair@$$CBU?$pair@II@std@@I@std@@PEAX@1@AEAU?$pair@$$CBU?$pair@II@std@@I@1@1@Z 00000001800730e4     woff2_dec.obj
 0004:000000e4       $pdata$0$??$_Insert_at@AEAU?$pair@$$CBIG@std@@PEAU?$_Tree_node@U?$pair@$$CBIG@std@@PEAX@2@@?$_Tree@V?$_Tmap_traits@IGU?$less@I@std@@V?$allocator@U?$pair@$$CBIG@std@@@2@$0A@@std@@@std@@IEAA?AV?$_Tree_iterator@V?$_Tree_val@U?$_Tree_simple_types@U?$pair@$$CBIG@std@@@std@@@std@@@1@_NPEAU?$_Tree_node@U?$pair@$$CBIG@std@@PEAX@1@AEAU?$pair@$$CBIG@1@1@Z 00000001800730e4     woff2_dec.obj
 0004:000000f0       $pdata$1$??$_Insert_at@AEAU?$pair@$$CBU?$pair@II@std@@I@std@@PEAU?$_Tree_node@U?$pair@$$CBU?$pair@II@std@@I@std@@PEAX@2@@?$_Tree@V?$_Tmap_traits@U?$pair@II@std@@IU?$less@U?$pair@II@std@@@2@V?$allocator@U?$pair@$$CBU?$pair@II@std@@I@std@@@2@$0A@@std@@@std@@IEAA?AV?$_Tree_iterator@V?$_Tree_val@U?$_Tree_simple_types@U?$pair@$$CBU?$pair@II@std@@I@std@@@std@@@std@@@1@_NPEAU?$_Tree_node@U?$pair@$$CBU?$pair@II@std@@I@std@@PEAX@1@AEAU?$pair@$$CBU?$pair@II@std@@I@1@1@Z 00000001800730f0     woff2_dec.obj
 0004:000000f0       $pdata$1$??$_Insert_at@AEAU?$pair@$$CBII@std@@PEAU?$_Tree_node@U?$pair@$$CBII@std@@PEAX@2@@?$_Tree@V?$_Tmap_traits@IIU?$less@I@std@@V?$allocator@U?$pair@$$CBII@std@@@2@$0A@@std@@@std@@IEAA?AV?$_Tree_iterator@V?$_Tree_val@U?$_Tree_simple_types@U?$pair@$$CBII@std@@@std@@@std@@@1@_NPEAU?$_Tree_node@U?$pair@$$CBII@std@@PEAX@1@AEAU?$pair@$$CBII@1@1@Z 00000001800730f0     font.obj
 0004:000000f0       $pdata$1$??$_Insert_at@AEAU?$pair@$$CBIG@std@@PEAU?$_Tree_node@U?$pair@$$CBIG@std@@PEAX@2@@?$_Tree@V?$_Tmap_traits@IGU?$less@I@std@@V?$allocator@U?$pair@$$CBIG@std@@@2@$0A@@std@@@std@@IEAA?AV?$_Tree_iterator@V?$_Tree_val@U?$_Tree_simple_types@U?$pair@$$CBIG@std@@@std@@@std@@@1@_NPEAU?$_Tree_node@U?$pair@$$CBIG@std@@PEAX@1@AEAU?$pair@$$CBIG@1@1@Z 00000001800730f0     woff2_dec.obj
 0004:000000fc       $pdata$??$_Emplace_reallocate@AEBG@?$vector@GV?$allocator@G@std@@@std@@QEAAPEAGQEAGAEBG@Z 00000001800730fc     transform.obj
 0004:000000fc       $pdata$??$_Emplace_reallocate@AEBF@?$vector@FV?$allocator@F@std@@@std@@QEAAPEAFQEAFAEBF@Z 00000001800730fc     transform.obj
 0004:00000108       $pdata$3$??$_Emplace_reallocate@AEBG@?$vector@GV?$allocator@G@std@@@std@@QEAAPEAGQEAGAEBG@Z 0000000180073108     transform.obj
 0004:00000108       $pdata$3$??$_Emplace_reallocate@AEBF@?$vector@FV?$allocator@F@std@@@std@@QEAAPEAFQEAFAEBF@Z 0000000180073108     transform.obj
 0004:00000114       $pdata$5$??$_Emplace_reallocate@AEBF@?$vector@FV?$allocator@F@std@@@std@@QEAAPEAFQEAFAEBF@Z 0000000180073114     transform.obj
 0004:00000114       $pdata$5$??$_Emplace_reallocate@AEBG@?$vector@GV?$allocator@G@std@@@std@@QEAAPEAGQEAGAEBG@Z 0000000180073114     transform.obj
 0004:00000120       $pdata$6$??$_Emplace_reallocate@AEBG@?$vector@GV?$allocator@G@std@@@std@@QEAAPEAGQEAGAEBG@Z 0000000180073120     transform.obj
 0004:00000120       $pdata$6$??$_Emplace_reallocate@AEBF@?$vector@FV?$allocator@F@std@@@std@@QEAAPEAFQEAFAEBF@Z 0000000180073120     transform.obj
 0004:0000012c       $pdata$?ComputeULongSum@woff2@@YAIPEBE_K@Z 000000018007312c     woff2_common.obj
 0004:00000138       $pdata$0$?ComputeULongSum@woff2@@YAIPEBE_K@Z 0000000180073138     woff2_common.obj
 0004:00000144       $pdata$1$?ComputeULongSum@woff2@@YAIPEBE_K@Z 0000000180073144     woff2_common.obj
 0004:00000150       $pdata$??_GWOFF2Out@woff2@@UEAAPEAXI@Z 0000000180073150     woff2_dec.obj
 0004:0000015c       $pdata$?TripletDecode@?A0x4a477eb2@woff2@@YA_NPEBE0_KIPEAUPoint@2@PEA_K@Z 000000018007315c     woff2_dec.obj
 0004:00000168       $pdata$?StorePoints@?A0x4a477eb2@woff2@@YA_NIPEBUPoint@2@IIPEAE_KPEA_K@Z 0000000180073168     woff2_dec.obj
 0004:00000174       $pdata$?ComputeBbox@?A0x4a477eb2@woff2@@YAXIPEBUPoint@2@PEAE@Z 0000000180073174     woff2_dec.obj
 0004:00000180       $pdata$?Pad4@?A0x4a477eb2@woff2@@YA_NPEAVWOFF2Out@2@@Z 0000000180073180     woff2_dec.obj
 0004:0000018c       $pdata$?StoreLoca@?A0x4a477eb2@woff2@@YA_NAEBV?$vector@IV?$allocator@I@std@@@std@@HPEAIPEAVWOFF2Out@2@@Z 000000018007318c     woff2_dec.obj
 0004:00000198       $pdata$3$?StoreLoca@?A0x4a477eb2@woff2@@YA_NAEBV?$vector@IV?$allocator@I@std@@@std@@HPEAIPEAVWOFF2Out@2@@Z 0000000180073198     woff2_dec.obj
 0004:000001a4       $pdata$5$?StoreLoca@?A0x4a477eb2@woff2@@YA_NAEBV?$vector@IV?$allocator@I@std@@@std@@HPEAIPEAVWOFF2Out@2@@Z 00000001800731a4     woff2_dec.obj
 0004:000001b0       $pdata$?ReconstructGlyf@?A0x4a477eb2@woff2@@YA_NPEBEPEAUTable@2@PEAI12PEAUWOFF2FontInfo@12@PEAVWOFF2Out@2@@Z 00000001800731b0     woff2_dec.obj
 0004:000001bc       $pdata$?ReconstructTransformedHmtx@?A0x4a477eb2@woff2@@YA_NPEBE_KGGAEBV?$vector@FV?$allocator@F@std@@@std@@PEAIPEAVWOFF2Out@2@@Z 00000001800731bc     woff2_dec.obj
 0004:000001c8       $pdata$4$?ReconstructTransformedHmtx@?A0x4a477eb2@woff2@@YA_NPEBE_KGGAEBV?$vector@FV?$allocator@F@std@@@std@@PEAIPEAVWOFF2Out@2@@Z 00000001800731c8     woff2_dec.obj
 0004:000001d4       $pdata$5$?ReconstructTransformedHmtx@?A0x4a477eb2@woff2@@YA_NPEBE_KGGAEBV?$vector@FV?$allocator@F@std@@@std@@PEAIPEAVWOFF2Out@2@@Z 00000001800731d4     woff2_dec.obj
 0004:000001e0       $pdata$6$?ReconstructTransformedHmtx@?A0x4a477eb2@woff2@@YA_NPEBE_KGGAEBV?$vector@FV?$allocator@F@std@@@std@@PEAIPEAVWOFF2Out@2@@Z 00000001800731e0     woff2_dec.obj
 0004:000001ec       $pdata$?ReadTableDirectory@?A0x4a477eb2@woff2@@YA_NPEAVBuffer@2@PEAV?$vector@UTable@woff2@@V?$allocator@UTable@woff2@@@std@@@std@@_K@Z 00000001800731ec     woff2_dec.obj
 0004:000001f8       $pdata$?ComputeOffsetToFirstTable@?A0x4a477eb2@woff2@@YA_KAEBUWOFF2Header@12@@Z 00000001800731f8     woff2_dec.obj
 0004:00000204       $pdata$0$?ComputeOffsetToFirstTable@?A0x4a477eb2@woff2@@YA_KAEBUWOFF2Header@12@@Z 0000000180073204     woff2_dec.obj
 0004:00000210       $pdata$1$?ComputeOffsetToFirstTable@?A0x4a477eb2@woff2@@YA_KAEBUWOFF2Header@12@@Z 0000000180073210     woff2_dec.obj
 0004:0000021c       $pdata$?ReconstructFont@?A0x4a477eb2@woff2@@YA_NPEAEIPEAURebuildMetadata@12@PEAUWOFF2Header@12@_KPEAVWOFF2Out@2@@Z 000000018007321c     woff2_dec.obj
 0004:00000228       $pdata$4$?ReconstructFont@?A0x4a477eb2@woff2@@YA_NPEAEIPEAURebuildMetadata@12@PEAUWOFF2Header@12@_KPEAVWOFF2Out@2@@Z 0000000180073228     woff2_dec.obj
 0004:00000234       $pdata$5$?ReconstructFont@?A0x4a477eb2@woff2@@YA_NPEAEIPEAURebuildMetadata@12@PEAUWOFF2Header@12@_KPEAVWOFF2Out@2@@Z 0000000180073234     woff2_dec.obj
 0004:00000240       $pdata$?ReadWOFF2Header@?A0x4a477eb2@woff2@@YA_NPEBE_KPEAUWOFF2Header@12@@Z 0000000180073240     woff2_dec.obj
 0004:0000024c       $pdata$?WriteHeaders@?A0x4a477eb2@woff2@@YA_NPEBE_KPEAURebuildMetadata@12@PEAUWOFF2Header@12@PEAVWOFF2Out@2@@Z 000000018007324c     woff2_dec.obj
 0004:00000258       $pdata$0$?WriteHeaders@?A0x4a477eb2@woff2@@YA_NPEBE_KPEAURebuildMetadata@12@PEAUWOFF2Header@12@PEAVWOFF2Out@2@@Z 0000000180073258     woff2_dec.obj
 0004:00000264       $pdata$1$?WriteHeaders@?A0x4a477eb2@woff2@@YA_NPEBE_KPEAURebuildMetadata@12@PEAUWOFF2Header@12@PEAVWOFF2Out@2@@Z 0000000180073264     woff2_dec.obj
 0004:00000270       $pdata$?ConvertWOFF2ToTTF@woff2@@YA_NPEBE_KPEAVWOFF2Out@1@@Z 0000000180073270     woff2_dec.obj
 0004:0000027c       $pdata$??A?$map@U?$pair@II@std@@IU?$less@U?$pair@II@std@@@2@V?$allocator@U?$pair@$$CBU?$pair@II@std@@I@std@@@2@@std@@QEAAAEAIAEBU?$pair@II@1@@Z 000000018007327c     woff2_dec.obj
 0004:00000288       $pdata$??R<lambda_f8e21d53eaa236cf9a8dcf160a9c20df>@@QEBAPEAUWOFF2FontInfo@?A0x4a477eb2@woff2@@PEAU123@_K@Z 0000000180073288     woff2_dec.obj
 0004:00000294       $pdata$1$??R<lambda_f8e21d53eaa236cf9a8dcf160a9c20df>@@QEBAPEAUWOFF2FontInfo@?A0x4a477eb2@woff2@@PEAU123@_K@Z 0000000180073294     woff2_dec.obj
 0004:000002a0       $pdata$2$??R<lambda_f8e21d53eaa236cf9a8dcf160a9c20df>@@QEBAPEAUWOFF2FontInfo@?A0x4a477eb2@woff2@@PEAU123@_K@Z 00000001800732a0     woff2_dec.obj
 0004:000002ac       $pdata$?_Tidy@?$vector@U?$pair@PEBE_K@std@@V?$allocator@U?$pair@PEBE_K@std@@@2@@std@@AEAAXXZ 00000001800732ac     woff2_dec.obj
 0004:000002b8       $pdata$?_Tidy@?$vector@UTable@woff2@@V?$allocator@UTable@woff2@@@std@@@std@@AEAAXXZ 00000001800732b8     woff2_dec.obj
 0004:000002c4       $pdata$??$_Emplace_reallocate@PEAUTable@woff2@@@?$vector@PEAUTable@woff2@@V?$allocator@PEAUTable@woff2@@@std@@@std@@QEAAPEAPEAUTable@woff2@@QEAPEAU23@$$QEAPEAU23@@Z 00000001800732c4     woff2_dec.obj
 0004:000002d0       $pdata$3$??$_Emplace_reallocate@PEAUTable@woff2@@@?$vector@PEAUTable@woff2@@V?$allocator@PEAUTable@woff2@@@std@@@std@@QEAAPEAPEAUTable@woff2@@QEAPEAU23@$$QEAPEAU23@@Z 00000001800732d0     woff2_dec.obj
 0004:000002dc       $pdata$5$??$_Emplace_reallocate@PEAUTable@woff2@@@?$vector@PEAUTable@woff2@@V?$allocator@PEAUTable@woff2@@@std@@@std@@QEAAPEAPEAUTable@woff2@@QEAPEAU23@$$QEAPEAU23@@Z 00000001800732dc     woff2_dec.obj
 0004:000002e8       $pdata$6$??$_Emplace_reallocate@PEAUTable@woff2@@@?$vector@PEAUTable@woff2@@V?$allocator@PEAUTable@woff2@@@std@@@std@@QEAAPEAPEAUTable@woff2@@QEAPEAU23@$$QEAPEAU23@@Z 00000001800732e8     woff2_dec.obj
 0004:000002f4       $pdata$??$_Resize@V<lambda_f8e21d53eaa236cf9a8dcf160a9c20df>@@@?$vector@UWOFF2FontInfo@?A0x4a477eb2@woff2@@V?$allocator@UWOFF2FontInfo@?A0x4a477eb2@woff2@@@std@@@std@@AEAAX_KV<lambda_f8e21d53eaa236cf9a8dcf160a9c20df>@@@Z 00000001800732f4     woff2_dec.obj
 0004:00000300       $pdata$1$??$_Resize@V<lambda_f8e21d53eaa236cf9a8dcf160a9c20df>@@@?$vector@UWOFF2FontInfo@?A0x4a477eb2@woff2@@V?$allocator@UWOFF2FontInfo@?A0x4a477eb2@woff2@@@std@@@std@@AEAAX_KV<lambda_f8e21d53eaa236cf9a8dcf160a9c20df>@@@Z 0000000180073300     woff2_dec.obj
 0004:0000030c       $pdata$3$??$_Resize@V<lambda_f8e21d53eaa236cf9a8dcf160a9c20df>@@@?$vector@UWOFF2FontInfo@?A0x4a477eb2@woff2@@V?$allocator@UWOFF2FontInfo@?A0x4a477eb2@woff2@@@std@@@std@@AEAAX_KV<lambda_f8e21d53eaa236cf9a8dcf160a9c20df>@@@Z 000000018007330c     woff2_dec.obj
 0004:00000318       $pdata$4$??$_Resize@V<lambda_f8e21d53eaa236cf9a8dcf160a9c20df>@@@?$vector@UWOFF2FontInfo@?A0x4a477eb2@woff2@@V?$allocator@UWOFF2FontInfo@?A0x4a477eb2@woff2@@@std@@@std@@AEAAX_KV<lambda_f8e21d53eaa236cf9a8dcf160a9c20df>@@@Z 0000000180073318     woff2_dec.obj
 0004:00000324       $pdata$5$??$_Resize@V<lambda_f8e21d53eaa236cf9a8dcf160a9c20df>@@@?$vector@UWOFF2FontInfo@?A0x4a477eb2@woff2@@V?$allocator@UWOFF2FontInfo@?A0x4a477eb2@woff2@@@std@@@std@@AEAAX_KV<lambda_f8e21d53eaa236cf9a8dcf160a9c20df>@@@Z 0000000180073324     woff2_dec.obj
 0004:00000330       $pdata$6$??$_Resize@V<lambda_f8e21d53eaa236cf9a8dcf160a9c20df>@@@?$vector@UWOFF2FontInfo@?A0x4a477eb2@woff2@@V?$allocator@UWOFF2FontInfo@?A0x4a477eb2@woff2@@@std@@@std@@AEAAX_KV<lambda_f8e21d53eaa236cf9a8dcf160a9c20df>@@@Z 0000000180073330     woff2_dec.obj
 0004:0000033c       $pdata$7$??$_Resize@V<lambda_f8e21d53eaa236cf9a8dcf160a9c20df>@@@?$vector@UWOFF2FontInfo@?A0x4a477eb2@woff2@@V?$allocator@UWOFF2FontInfo@?A0x4a477eb2@woff2@@@std@@@std@@AEAAX_KV<lambda_f8e21d53eaa236cf9a8dcf160a9c20df>@@@Z 000000018007333c     woff2_dec.obj
 0004:00000348       $pdata$??$_Resize@V<lambda_06569d7aee9f112244d25d5e54def049>@@@?$vector@FV?$allocator@F@std@@@std@@AEAAX_KV<lambda_06569d7aee9f112244d25d5e54def049>@@@Z 0000000180073348     woff2_dec.obj
 0004:00000348       $pdata$??$_Resize@V<lambda_5d91c21a7dab2480088f44d5291e9dfa>@@@?$vector@GV?$allocator@G@std@@@std@@AEAAX_KV<lambda_5d91c21a7dab2480088f44d5291e9dfa>@@@Z 0000000180073348     woff2_dec.obj
 0004:00000354       $pdata$0$??$_Resize@V<lambda_5d91c21a7dab2480088f44d5291e9dfa>@@@?$vector@GV?$allocator@G@std@@@std@@AEAAX_KV<lambda_5d91c21a7dab2480088f44d5291e9dfa>@@@Z 0000000180073354     woff2_dec.obj
 0004:00000354       $pdata$0$??$_Resize@V<lambda_06569d7aee9f112244d25d5e54def049>@@@?$vector@FV?$allocator@F@std@@@std@@AEAAX_KV<lambda_06569d7aee9f112244d25d5e54def049>@@@Z 0000000180073354     woff2_dec.obj
 0004:00000360       $pdata$1$??$_Resize@V<lambda_06569d7aee9f112244d25d5e54def049>@@@?$vector@FV?$allocator@F@std@@@std@@AEAAX_KV<lambda_06569d7aee9f112244d25d5e54def049>@@@Z 0000000180073360     woff2_dec.obj
 0004:00000360       $pdata$1$??$_Resize@V<lambda_5d91c21a7dab2480088f44d5291e9dfa>@@@?$vector@GV?$allocator@G@std@@@std@@AEAAX_KV<lambda_5d91c21a7dab2480088f44d5291e9dfa>@@@Z 0000000180073360     woff2_dec.obj
 0004:0000036c       $pdata$2$??$_Resize@V<lambda_5d91c21a7dab2480088f44d5291e9dfa>@@@?$vector@GV?$allocator@G@std@@@std@@AEAAX_KV<lambda_5d91c21a7dab2480088f44d5291e9dfa>@@@Z 000000018007336c     woff2_dec.obj
 0004:0000036c       $pdata$2$??$_Resize@V<lambda_06569d7aee9f112244d25d5e54def049>@@@?$vector@FV?$allocator@F@std@@@std@@AEAAX_KV<lambda_06569d7aee9f112244d25d5e54def049>@@@Z 000000018007336c     woff2_dec.obj
 0004:00000378       $pdata$??$_Resize@V<lambda_84660212d3c769bc0ae482d1336fa5d3>@@@?$vector@UTtcFont@?A0x4a477eb2@woff2@@V?$allocator@UTtcFont@?A0x4a477eb2@woff2@@@std@@@std@@AEAAX_KV<lambda_84660212d3c769bc0ae482d1336fa5d3>@@@Z 0000000180073378     woff2_dec.obj
 0004:00000384       $pdata$0$??$_Resize@V<lambda_84660212d3c769bc0ae482d1336fa5d3>@@@?$vector@UTtcFont@?A0x4a477eb2@woff2@@V?$allocator@UTtcFont@?A0x4a477eb2@woff2@@@std@@@std@@AEAAX_KV<lambda_84660212d3c769bc0ae482d1336fa5d3>@@@Z 0000000180073384     woff2_dec.obj
 0004:00000390       $pdata$1$??$_Resize@V<lambda_84660212d3c769bc0ae482d1336fa5d3>@@@?$vector@UTtcFont@?A0x4a477eb2@woff2@@V?$allocator@UTtcFont@?A0x4a477eb2@woff2@@@std@@@std@@AEAAX_KV<lambda_84660212d3c769bc0ae482d1336fa5d3>@@@Z 0000000180073390     woff2_dec.obj
 0004:0000039c       $pdata$2$??$_Resize@V<lambda_84660212d3c769bc0ae482d1336fa5d3>@@@?$vector@UTtcFont@?A0x4a477eb2@woff2@@V?$allocator@UTtcFont@?A0x4a477eb2@woff2@@@std@@@std@@AEAAX_KV<lambda_84660212d3c769bc0ae482d1336fa5d3>@@@Z 000000018007339c     woff2_dec.obj
 0004:000003a8       $pdata$3$??$_Resize@V<lambda_84660212d3c769bc0ae482d1336fa5d3>@@@?$vector@UTtcFont@?A0x4a477eb2@woff2@@V?$allocator@UTtcFont@?A0x4a477eb2@woff2@@@std@@@std@@AEAAX_KV<lambda_84660212d3c769bc0ae482d1336fa5d3>@@@Z 00000001800733a8     woff2_dec.obj
 0004:000003b4       $pdata$??$_Resize@V<lambda_f266c3dfe27f71e88ee4d827fba9e497>@@@?$vector@UTable@woff2@@V?$allocator@UTable@woff2@@@std@@@std@@AEAAX_KV<lambda_f266c3dfe27f71e88ee4d827fba9e497>@@@Z 00000001800733b4     woff2_dec.obj
 0004:000003c0       $pdata$0$??$_Resize@V<lambda_f266c3dfe27f71e88ee4d827fba9e497>@@@?$vector@UTable@woff2@@V?$allocator@UTable@woff2@@@std@@@std@@AEAAX_KV<lambda_f266c3dfe27f71e88ee4d827fba9e497>@@@Z 00000001800733c0     woff2_dec.obj
 0004:000003cc       $pdata$1$??$_Resize@V<lambda_f266c3dfe27f71e88ee4d827fba9e497>@@@?$vector@UTable@woff2@@V?$allocator@UTable@woff2@@@std@@@std@@AEAAX_KV<lambda_f266c3dfe27f71e88ee4d827fba9e497>@@@Z 00000001800733cc     woff2_dec.obj
 0004:000003d8       $pdata$2$??$_Resize@V<lambda_f266c3dfe27f71e88ee4d827fba9e497>@@@?$vector@UTable@woff2@@V?$allocator@UTable@woff2@@@std@@@std@@AEAAX_KV<lambda_f266c3dfe27f71e88ee4d827fba9e497>@@@Z 00000001800733d8     woff2_dec.obj
 0004:000003e4       $pdata$3$??$_Resize@V<lambda_f266c3dfe27f71e88ee4d827fba9e497>@@@?$vector@UTable@woff2@@V?$allocator@UTable@woff2@@@std@@@std@@AEAAX_KV<lambda_f266c3dfe27f71e88ee4d827fba9e497>@@@Z 00000001800733e4     woff2_dec.obj
 0004:000003f0       $pdata$??$_Destroy_range@V?$allocator@UWOFF2FontInfo@?A0x4a477eb2@woff2@@@std@@@std@@YAXPEAUWOFF2FontInfo@?A0x4a477eb2@woff2@@0AEAV?$allocator@UWOFF2FontInfo@?A0x4a477eb2@woff2@@@0@@Z 00000001800733f0     woff2_dec.obj
 0004:000003fc       $pdata$2$??$_Destroy_range@V?$allocator@UWOFF2FontInfo@?A0x4a477eb2@woff2@@@std@@@std@@YAXPEAUWOFF2FontInfo@?A0x4a477eb2@woff2@@0AEAV?$allocator@UWOFF2FontInfo@?A0x4a477eb2@woff2@@@0@@Z 00000001800733fc     woff2_dec.obj
 0004:00000408       $pdata$3$??$_Destroy_range@V?$allocator@UWOFF2FontInfo@?A0x4a477eb2@woff2@@@std@@@std@@YAXPEAUWOFF2FontInfo@?A0x4a477eb2@woff2@@0AEAV?$allocator@UWOFF2FontInfo@?A0x4a477eb2@woff2@@@0@@Z 0000000180073408     woff2_dec.obj
 0004:00000414       $pdata$4$??$_Destroy_range@V?$allocator@UWOFF2FontInfo@?A0x4a477eb2@woff2@@@std@@@std@@YAXPEAUWOFF2FontInfo@?A0x4a477eb2@woff2@@0AEAV?$allocator@UWOFF2FontInfo@?A0x4a477eb2@woff2@@@0@@Z 0000000180073414     woff2_dec.obj
 0004:00000420       $pdata$??$_Destroy_range@V?$allocator@UTtcFont@?A0x4a477eb2@woff2@@@std@@@std@@YAXPEAUTtcFont@?A0x4a477eb2@woff2@@0AEAV?$allocator@UTtcFont@?A0x4a477eb2@woff2@@@0@@Z 0000000180073420     woff2_dec.obj
 0004:0000042c       $pdata$1$??$_Destroy_range@V?$allocator@UTtcFont@?A0x4a477eb2@woff2@@@std@@@std@@YAXPEAUTtcFont@?A0x4a477eb2@woff2@@0AEAV?$allocator@UTtcFont@?A0x4a477eb2@woff2@@@0@@Z 000000018007342c     woff2_dec.obj
 0004:00000438       $pdata$2$??$_Destroy_range@V?$allocator@UTtcFont@?A0x4a477eb2@woff2@@@std@@@std@@YAXPEAUTtcFont@?A0x4a477eb2@woff2@@0AEAV?$allocator@UTtcFont@?A0x4a477eb2@woff2@@@0@@Z 0000000180073438     woff2_dec.obj
 0004:00000444       $pdata$3$??$_Destroy_range@V?$allocator@UTtcFont@?A0x4a477eb2@woff2@@@std@@@std@@YAXPEAUTtcFont@?A0x4a477eb2@woff2@@0AEAV?$allocator@UTtcFont@?A0x4a477eb2@woff2@@@0@@Z 0000000180073444     woff2_dec.obj
 0004:00000450       $pdata$?_Xlength@?$vector@UWOFF2FontInfo@?A0x4a477eb2@woff2@@V?$allocator@UWOFF2FontInfo@?A0x4a477eb2@woff2@@@std@@@std@@CAXXZ 0000000180073450     woff2_dec.obj
 0004:00000450       $pdata$?_Xlength@?$vector@UTtcFont@?A0x4a477eb2@woff2@@V?$allocator@UTtcFont@?A0x4a477eb2@woff2@@@std@@@std@@CAXXZ 0000000180073450     woff2_dec.obj
 0004:0000045c       $pdata$?_Change_array@?$vector@UTable@woff2@@V?$allocator@UTable@woff2@@@std@@@std@@AEAAXQEAUTable@woff2@@_K1@Z 000000018007345c     woff2_dec.obj
 0004:00000468       $pdata$??$_Sort_unchecked@PEAUTable@woff2@@U?$less@X@std@@@std@@YAXPEAUTable@woff2@@0_JU?$less@X@0@@Z 0000000180073468     woff2_dec.obj
 0004:00000474       $pdata$??$_Partition_by_median_guess_unchecked@PEAUTable@woff2@@U?$less@X@std@@@std@@YA?AU?$pair@PEAUTable@woff2@@PEAU12@@0@PEAUTable@woff2@@0U?$less@X@0@@Z 0000000180073474     woff2_dec.obj
 0004:00000480       $pdata$??$_Insert_hint@AEAU?$pair@$$CBU?$pair@II@std@@I@std@@PEAU?$_Tree_node@U?$pair@$$CBU?$pair@II@std@@I@std@@PEAX@2@@?$_Tree@V?$_Tmap_traits@U?$pair@II@std@@IU?$less@U?$pair@II@std@@@2@V?$allocator@U?$pair@$$CBU?$pair@II@std@@I@std@@@2@$0A@@std@@@std@@IEAA?AV?$_Tree_iterator@V?$_Tree_val@U?$_Tree_simple_types@U?$pair@$$CBU?$pair@II@std@@I@std@@@std@@@std@@@1@V?$_Tree_const_iterator@V?$_Tree_val@U?$_Tree_simple_types@U?$pair@$$CBU?$pair@II@std@@I@std@@@std@@@std@@@1@AEAU?$pair@$$CBU?$pair@II@std@@I@1@PEAU?$_Tree_node@U?$pair@$$CBU?$pair@II@std@@I@std@@PEAX@1@@Z 0000000180073480     woff2_dec.obj
 0004:0000048c       $pdata$0$??$_Insert_hint@AEAU?$pair@$$CBU?$pair@II@std@@I@std@@PEAU?$_Tree_node@U?$pair@$$CBU?$pair@II@std@@I@std@@PEAX@2@@?$_Tree@V?$_Tmap_traits@U?$pair@II@std@@IU?$less@U?$pair@II@std@@@2@V?$allocator@U?$pair@$$CBU?$pair@II@std@@I@std@@@2@$0A@@std@@@std@@IEAA?AV?$_Tree_iterator@V?$_Tree_val@U?$_Tree_simple_types@U?$pair@$$CBU?$pair@II@std@@I@std@@@std@@@std@@@1@V?$_Tree_const_iterator@V?$_Tree_val@U?$_Tree_simple_types@U?$pair@$$CBU?$pair@II@std@@I@std@@@std@@@std@@@1@AEAU?$pair@$$CBU?$pair@II@std@@I@1@PEAU?$_Tree_node@U?$pair@$$CBU?$pair@II@std@@I@std@@PEAX@1@@Z 000000018007348c     woff2_dec.obj
 0004:00000498       $pdata$2$??$_Insert_hint@AEAU?$pair@$$CBU?$pair@II@std@@I@std@@PEAU?$_Tree_node@U?$pair@$$CBU?$pair@II@std@@I@std@@PEAX@2@@?$_Tree@V?$_Tmap_traits@U?$pair@II@std@@IU?$less@U?$pair@II@std@@@2@V?$allocator@U?$pair@$$CBU?$pair@II@std@@I@std@@@2@$0A@@std@@@std@@IEAA?AV?$_Tree_iterator@V?$_Tree_val@U?$_Tree_simple_types@U?$pair@$$CBU?$pair@II@std@@I@std@@@std@@@std@@@1@V?$_Tree_const_iterator@V?$_Tree_val@U?$_Tree_simple_types@U?$pair@$$CBU?$pair@II@std@@I@std@@@std@@@std@@@1@AEAU?$pair@$$CBU?$pair@II@std@@I@1@PEAU?$_Tree_node@U?$pair@$$CBU?$pair@II@std@@I@std@@PEAX@1@@Z 0000000180073498     woff2_dec.obj
 0004:000004a4       $pdata$??$_Pop_heap_hole_by_index@PEAUTable@woff2@@U12@U?$less@X@std@@@std@@YAXPEAUTable@woff2@@_J1$$QEAU12@U?$less@X@0@@Z 00000001800734a4     woff2_dec.obj
 0004:000004b0       $pdata$??$_Insert_nohint@AEAU?$pair@$$CBU?$pair@II@std@@I@std@@PEAU?$_Tree_node@U?$pair@$$CBU?$pair@II@std@@I@std@@PEAX@2@@?$_Tree@V?$_Tmap_traits@U?$pair@II@std@@IU?$less@U?$pair@II@std@@@2@V?$allocator@U?$pair@$$CBU?$pair@II@std@@I@std@@@2@$0A@@std@@@std@@IEAA?AU?$pair@V?$_Tree_iterator@V?$_Tree_val@U?$_Tree_simple_types@U?$pair@$$CBU?$pair@II@std@@I@std@@@std@@@std@@@std@@_N@1@_NAEAU?$pair@$$CBU?$pair@II@std@@I@1@PEAU?$_Tree_node@U?$pair@$$CBU?$pair@II@std@@I@std@@PEAX@1@@Z 00000001800734b0     woff2_dec.obj
 0004:000004bc       $pdata$??0WOFF2FontInfo@?A0x4a477eb2@woff2@@QEAA@AEBU012@@Z 00000001800734bc     woff2_dec.obj
 0004:000004c8       $pdata$??$_Copy_nodes@U_Copy_tag@?$_Tree@V?$_Tmap_traits@IIU?$less@I@std@@V?$allocator@U?$pair@$$CBII@std@@@2@$0A@@std@@@std@@@?$_Tree@V?$_Tmap_traits@IIU?$less@I@std@@V?$allocator@U?$pair@$$CBII@std@@@2@$0A@@std@@@std@@IEAAPEAU?$_Tree_node@U?$pair@$$CBII@std@@PEAX@1@PEAU21@0U_Copy_tag@01@@Z 00000001800734c8     woff2_dec.obj
 0004:000004d4       $pdata$0$??$_Copy_nodes@U_Copy_tag@?$_Tree@V?$_Tmap_traits@IIU?$less@I@std@@V?$allocator@U?$pair@$$CBII@std@@@2@$0A@@std@@@std@@@?$_Tree@V?$_Tmap_traits@IIU?$less@I@std@@V?$allocator@U?$pair@$$CBII@std@@@2@$0A@@std@@@std@@IEAAPEAU?$_Tree_node@U?$pair@$$CBII@std@@PEAX@1@PEAU21@0U_Copy_tag@01@@Z 00000001800734d4     woff2_dec.obj
 0004:000004e0       $pdata$1$??$_Copy_nodes@U_Copy_tag@?$_Tree@V?$_Tmap_traits@IIU?$less@I@std@@V?$allocator@U?$pair@$$CBII@std@@@2@$0A@@std@@@std@@@?$_Tree@V?$_Tmap_traits@IIU?$less@I@std@@V?$allocator@U?$pair@$$CBII@std@@@2@$0A@@std@@@std@@IEAAPEAU?$_Tree_node@U?$pair@$$CBII@std@@PEAX@1@PEAU21@0U_Copy_tag@01@@Z 00000001800734e0     woff2_dec.obj
 0004:000004ec       $pdata$??_GWOFF2MemoryOut@woff2@@UEAAPEAXI@Z 00000001800734ec     woff2_out.obj
 0004:000004f8       $pdata$?Write@WOFF2MemoryOut@woff2@@UEAA_NPEBX_K1@Z 00000001800734f8     woff2_out.obj
 0004:00000504       $pdata$TransformDictionaryWord 0000000180073504     decode.obj
 0004:00000510       $pdata$DecodeVarLenUint8   0000000180073510     decode.obj
 0004:0000051c       $pdata$DecodeMetaBlockLength 000000018007351c     decode.obj
 0004:00000528       $pdata$SafeDecodeSymbol    0000000180073528     decode.obj
 0004:00000534       $pdata$ReadSymbolCodeLengths 0000000180073534     decode.obj
 0004:00000540       $pdata$1$ReadSymbolCodeLengths 0000000180073540     decode.obj
 0004:0000054c       $pdata$2$ReadSymbolCodeLengths 000000018007354c     decode.obj
 0004:00000558       $pdata$3$ReadSymbolCodeLengths 0000000180073558     decode.obj
 0004:00000564       $pdata$5$ReadSymbolCodeLengths 0000000180073564     decode.obj
 0004:00000570       $pdata$SafeReadSymbolCodeLengths 0000000180073570     decode.obj
 0004:0000057c       $pdata$ReadCodeLengthCodeLengths 000000018007357c     decode.obj
 0004:00000588       $pdata$ReadHuffmanCode     0000000180073588     decode.obj
 0004:00000594       $pdata$DecodeContextMap    0000000180073594     decode.obj
 0004:000005a0       $pdata$DecodeLiteralBlockSwitch 00000001800735a0     decode.obj
 0004:000005ac       $pdata$SafeDecodeLiteralBlockSwitch 00000001800735ac     decode.obj
 0004:000005b8       $pdata$DecodeCommandBlockSwitch 00000001800735b8     decode.obj
 0004:000005c4       $pdata$SafeDecodeCommandBlockSwitch 00000001800735c4     decode.obj
 0004:000005d0       $pdata$DecodeDistanceBlockSwitch 00000001800735d0     decode.obj
 0004:000005dc       $pdata$SafeDecodeDistanceBlockSwitch 00000001800735dc     decode.obj
 0004:000005e8       $pdata$CopyUncompressedBlockToOutput 00000001800735e8     decode.obj
 0004:000005f4       $pdata$ProcessCommands     00000001800735f4     decode.obj
 0004:00000600       $pdata$SafeProcessCommands 0000000180073600     decode.obj
 0004:0000060c       $pdata$BrotliDecoderDecompressStream 000000018007360c     decode.obj
 0004:00000618       $pdata$2$BrotliDecoderDecompressStream 0000000180073618     decode.obj
 0004:00000624       $pdata$3$BrotliDecoderDecompressStream 0000000180073624     decode.obj
 0004:00000630       $pdata$BrotliBuildCodeLengthsHuffmanTable 0000000180073630     huffman.obj
 0004:0000063c       $pdata$2$BrotliBuildCodeLengthsHuffmanTable 000000018007363c     huffman.obj
 0004:00000648       $pdata$3$BrotliBuildCodeLengthsHuffmanTable 0000000180073648     huffman.obj
 0004:00000654       $pdata$BrotliBuildHuffmanTable 0000000180073654     huffman.obj
 0004:00000660       $pdata$BrotliBuildSimpleHuffmanTable 0000000180073660     huffman.obj
 0004:0000066c       $pdata$0$BrotliBuildSimpleHuffmanTable 000000018007366c     huffman.obj
 0004:00000678       $pdata$1$BrotliBuildSimpleHuffmanTable 0000000180073678     huffman.obj
 0004:00000684       $pdata$BrotliDecoderStateCleanupAfterMetablock 0000000180073684     state.obj
 0004:00000690       $pdata$BrotliDecoderStateCleanup 0000000180073690     state.obj
 0004:0000069c       $pdata$?FunctionCallbackWrapper@imp@Nan@@YAXAEBV?$FunctionCallbackInfo@VValue@v8@@@v8@@@Z 000000018007369c     woff2_decode.obj
 0004:000006a8       $pdata$?decode@@YAXAEBV?$FunctionCallbackInfo@VValue@v8@@@Nan@@@Z 00000001800736a8     woff2_decode.obj
 0004:000006b4       $pdata$3$?decode@@YAXAEBV?$FunctionCallbackInfo@VValue@v8@@@Nan@@@Z 00000001800736b4     woff2_decode.obj
 0004:000006c0       $pdata$4$?decode@@YAXAEBV?$FunctionCallbackInfo@VValue@v8@@@Nan@@@Z 00000001800736c0     woff2_decode.obj
 0004:000006cc       $pdata$?Init@@YAXV?$Local@VObject@v8@@@v8@@@Z 00000001800736cc     woff2_decode.obj
 0004:000006d8       $pdata$?load_exe_hook@@YAP6A_JXZIPEAUDelayLoadInfo@@@Z 00000001800736d8     win_delay_load_hook.obj
 0004:000006f0       $pdata$??0bad_alloc@std@@QEAA@AEBV01@@Z 00000001800736f0     libcpmt:xthrow.obj
 0004:000006fc       $pdata$??0exception@std@@QEAA@AEBV01@@Z 00000001800736fc     libcpmt:xthrow.obj
 0004:00000708       $pdata$??0length_error@std@@QEAA@AEBV01@@Z 0000000180073708     libcpmt:xthrow.obj
 0004:00000714       $pdata$??0length_error@std@@QEAA@PEBD@Z 0000000180073714     libcpmt:xthrow.obj
 0004:00000720       $pdata$??0logic_error@std@@QEAA@AEBV01@@Z 0000000180073720     libcpmt:xthrow.obj
 0004:0000072c       $pdata$??_Glength_error@std@@UEAAPEAXI@Z 000000018007372c     libcpmt:xthrow.obj
 0004:0000072c       $pdata$??_Gbad_alloc@std@@UEAAPEAXI@Z 000000018007372c     libcpmt:xthrow.obj
 0004:0000072c       $pdata$??_Gbad_array_new_length@std@@UEAAPEAXI@Z 000000018007372c     LIBCMT:throw_bad_alloc.obj
 0004:0000072c       $pdata$??_Glogic_error@std@@UEAAPEAXI@Z 000000018007372c     libcpmt:xthrow.obj
 0004:0000072c       $pdata$??_Gexception@std@@UEAAPEAXI@Z 000000018007372c     libcpmt:xthrow.obj
 0004:0000072c       $pdata$??_Gbad_exception@std@@UEAAPEAXI@Z 000000018007372c     libvcruntime:frame.obj
 0004:00000738       $pdata$?_Xlength_error@std@@YAXPEBD@Z 0000000180073738     libcpmt:xthrow.obj
 0004:00000744       $pdata$??0_Init_locks@std@@QEAA@XZ 0000000180073744     libcpmt:xlock.obj
 0004:00000750       $pdata$??1_Init_locks@std@@QEAA@XZ 0000000180073750     libcpmt:xlock.obj
 0004:0000075c       $pdata$??1_Fac_tidy_reg_t@std@@QEAA@XZ 000000018007375c     libcpmt:locale0.obj
 0004:00000768       $pdata$?initialize_pointers@@YAHXZ 0000000180073768     libcpmt:winapisupp.obj
 0004:00000774       $pdata$__crtInitializeCriticalSectionEx 0000000180073774     libcpmt:winapisupp.obj
 0004:0000078c       $pdata$??2@YAPEAX_K@Z      000000018007378c     LIBCMT:new_scalar.obj
 0004:00000798       $pdata$__raise_securityfailure 0000000180073798     LIBCMT:gs_report.obj
 0004:000007a4       $pdata$__report_gsfailure  00000001800737a4     LIBCMT:gs_report.obj
 0004:000007b0       $pdata$__report_rangecheckfailure 00000001800737b0     LIBCMT:gs_report.obj
 0004:000007bc       $pdata$__report_securityfailure 00000001800737bc     LIBCMT:gs_report.obj
 0004:000007c8       $pdata$capture_current_context 00000001800737c8     LIBCMT:gs_report.obj
 0004:000007d4       $pdata$capture_previous_context 00000001800737d4     LIBCMT:gs_report.obj
 0004:000007e0       $pdata$?dllmain_crt_dispatch@@YAHQEAUHINSTANCE__@@KQEAX@Z 00000001800737e0     LIBCMT:dll_dllmain.obj
 0004:000007ec       $pdata$?dllmain_crt_process_attach@@YAHQEAUHINSTANCE__@@QEAX@Z 00000001800737ec     LIBCMT:dll_dllmain.obj
 0004:000007f8       $pdata$?dllmain_crt_process_detach@@YAH_N@Z 00000001800737f8     LIBCMT:dll_dllmain.obj
 0004:00000804       $pdata$?dllmain_dispatch@@YAHQEAUHINSTANCE__@@KQEAX@Z 0000000180073804     LIBCMT:dll_dllmain.obj
 0004:00000810       $pdata$_DllMainCRTStartup  0000000180073810     LIBCMT:dll_dllmain.obj
 0004:0000081c       $pdata$??_Gtype_info@@UEAAPEAXI@Z 000000018007381c     LIBCMT:std_type_info_static.obj
 0004:00000828       $pdata$__scrt_acquire_startup_lock 0000000180073828     LIBCMT:utility.obj
 0004:00000834       $pdata$__scrt_dllmain_after_initialize_c 0000000180073834     LIBCMT:utility.obj
 0004:00000840       $pdata$__scrt_dllmain_before_initialize_c 0000000180073840     LIBCMT:utility.obj
 0004:0000084c       $pdata$__scrt_dllmain_crt_thread_attach 000000018007384c     LIBCMT:utility.obj
 0004:00000858       $pdata$__scrt_dllmain_crt_thread_detach 0000000180073858     LIBCMT:utility.obj
 0004:00000864       $pdata$__scrt_dllmain_exception_filter 0000000180073864     LIBCMT:utility.obj
 0004:00000870       $pdata$__scrt_dllmain_uninitialize_c 0000000180073870     LIBCMT:utility.obj
 0004:0000087c       $pdata$__scrt_dllmain_uninitialize_critical 000000018007387c     LIBCMT:utility.obj
 0004:00000888       $pdata$__scrt_initialize_crt 0000000180073888     LIBCMT:utility.obj
 0004:00000894       $pdata$__scrt_initialize_onexit_tables 0000000180073894     LIBCMT:utility.obj
 0004:000008a0       $pdata$__scrt_is_nonwritable_in_current_image 00000001800738a0     LIBCMT:utility.obj
 0004:000008ac       $pdata$__scrt_release_startup_lock 00000001800738ac     LIBCMT:utility.obj
 0004:000008b8       $pdata$__scrt_uninitialize_crt 00000001800738b8     LIBCMT:utility.obj
 0004:000008c4       $pdata$_onexit             00000001800738c4     LIBCMT:utility.obj
 0004:000008d0       $pdata$atexit              00000001800738d0     LIBCMT:utility.obj
 0004:000008dc       $pdata$__GSHandlerCheck    00000001800738dc     LIBCMT:gshandler.obj
 0004:000008e8       $pdata$__GSHandlerCheckCommon 00000001800738e8     LIBCMT:gshandler.obj
 0004:00000900       $pdata$??0bad_array_new_length@std@@QEAA@AEBV01@@Z 0000000180073900     LIBCMT:throw_bad_alloc.obj
 0004:0000090c       $pdata$?__scrt_throw_std_bad_alloc@@YAXXZ 000000018007390c     LIBCMT:throw_bad_alloc.obj
 0004:00000918       $pdata$?__scrt_throw_std_bad_array_new_length@@YAXXZ 0000000180073918     LIBCMT:throw_bad_alloc.obj
 0004:00000924       $pdata$__security_init_cookie 0000000180073924     LIBCMT:gs_support.obj
 0004:00000930       $pdata$__scrt_initialize_default_local_stdio_options 0000000180073930     LIBCMT:default_local_stdio_options.obj
 0004:0000093c       $pdata$__scrt_fastfail     000000018007393c     LIBCMT:utility_desktop.obj
 0004:00000948       $pdata$_RTC_Initialize     0000000180073948     LIBCMT:initsect.obj
 0004:00000954       $pdata$_RTC_Terminate      0000000180073954     LIBCMT:initsect.obj
 0004:00000960       $pdata$__isa_available_init 0000000180073960     LIBCMT:cpu_disp.obj
 0004:0000096c       $pdata$_purecall           000000018007396c     libvcruntime:purevirt.obj
 0004:00000978       $pdata$__std_exception_copy 0000000180073978     libvcruntime:std_exception.obj
 0004:00000984       $pdata$__std_exception_destroy 0000000180073984     libvcruntime:std_exception.obj
 0004:00000990       $pdata$_CxxThrowException  0000000180073990     libvcruntime:throw.obj
 0004:0000099c       $pdata$??$_CallSETranslator@V__FrameHandler3@@@@YAHPEAUEHExceptionRecord@@PEA_KPEAU_CONTEXT@@PEAU_xDISPATCHER_CONTEXT@@PEBU_s_FuncInfo@@K1@Z 000000018007399c     libvcruntime:risctrnsctrl.obj
 0004:000009a8       $pdata$?CatchTryBlock@__FrameHandler3@@SAPEBU_s_TryBlockMapEntry@@PEBU_s_FuncInfo@@H@Z 00000001800739a8     libvcruntime:risctrnsctrl.obj
 0004:000009b4       $pdata$?ExecutionInCatch@__FrameHandler3@@SA_NPEAU_xDISPATCHER_CONTEXT@@PEBU_s_FuncInfo@@@Z 00000001800739b4     libvcruntime:risctrnsctrl.obj
 0004:000009c0       $pdata$?FrameUnwindToEmptyState@__FrameHandler3@@SAXPEA_KPEAU_xDISPATCHER_CONTEXT@@PEBU_s_FuncInfo@@@Z 00000001800739c0     libvcruntime:risctrnsctrl.obj
 0004:000009cc       $pdata$?GetEstablisherFrame@__FrameHandler3@@SAPEA_KPEA_KPEAU_xDISPATCHER_CONTEXT@@PEBU_s_FuncInfo@@0@Z 00000001800739cc     libvcruntime:risctrnsctrl.obj
 0004:000009d8       $pdata$?GetRangeOfTrysToCheck@__FrameHandler3@@SA?AU?$pair@Viterator@TryBlockMap@__FrameHandler3@@V123@@std@@AEAVTryBlockMap@1@HH@Z 00000001800739d8     libvcruntime:risctrnsctrl.obj
 0004:000009e4       $pdata$?UnwindNestedFrames@__FrameHandler3@@SAXPEA_KPEAUEHExceptionRecord@@PEAU_CONTEXT@@0PEAXPEBU_s_FuncInfo@@HHPEBU_s_HandlerType@@PEAU_xDISPATCHER_CONTEXT@@E@Z 00000001800739e4     libvcruntime:risctrnsctrl.obj
 0004:000009f0       $pdata$_CreateFrameInfo    00000001800739f0     libvcruntime:risctrnsctrl.obj
 0004:000009fc       $pdata$_FindAndUnlinkFrame 00000001800739fc     libvcruntime:risctrnsctrl.obj
 0004:00000a08       $pdata$_GetImageBase       0000000180073a08     libvcruntime:risctrnsctrl.obj
 0004:00000a14       $pdata$_GetThrowImageBase  0000000180073a14     libvcruntime:risctrnsctrl.obj
 0004:00000a20       $pdata$_SetImageBase       0000000180073a20     libvcruntime:risctrnsctrl.obj
 0004:00000a2c       $pdata$_SetThrowImageBase  0000000180073a2c     libvcruntime:risctrnsctrl.obj
 0004:00000a38       $pdata$__CxxFrameHandler3  0000000180073a38     libvcruntime:risctrnsctrl.obj
 0004:00000a74       $pdata$__DestructExceptionObject 0000000180073a74     libvcruntime:ehhelpers.obj
 0004:00000a80       $pdata$_IsExceptionObjectToBeDestroyed 0000000180073a80     libvcruntime:ehhelpers.obj
 0004:00000a8c       $pdata$__FrameUnwindFilter 0000000180073a8c     libvcruntime:ehhelpers.obj
 0004:00000a98       $pdata$__std_terminate     0000000180073a98     libvcruntime:ehhelpers.obj
 0004:00000abc       $pdata$__C_specific_handler 0000000180073abc     libvcruntime:riscchandler.obj
 0004:00000ac8       $pdata$__vcrt_initialize   0000000180073ac8     libvcruntime:initialization.obj
 0004:00000ad4       $pdata$__vcrt_thread_attach 0000000180073ad4     libvcruntime:initialization.obj
 0004:00000ae0       $pdata$__vcrt_thread_detach 0000000180073ae0     libvcruntime:initialization.obj
 0004:00000aec       $pdata$__vcrt_uninitialize 0000000180073aec     libvcruntime:initialization.obj
 0004:00000af8       $pdata$__vcrt_uninitialize_critical 0000000180073af8     libvcruntime:initialization.obj
 0004:00000b04       $pdata$__std_type_info_destroy_list 0000000180073b04     libvcruntime:std_type_info.obj
 0004:00000b10       $pdata$__vcrt_freefls      0000000180073b10     libvcruntime:per_thread_data.obj
 0004:00000b1c       $pdata$__vcrt_freeptd      0000000180073b1c     libvcruntime:per_thread_data.obj
 0004:00000b28       $pdata$__vcrt_getptd       0000000180073b28     libvcruntime:per_thread_data.obj
 0004:00000b34       $pdata$__vcrt_getptd_noexit 0000000180073b34     libvcruntime:per_thread_data.obj
 0004:00000b40       $pdata$__vcrt_initialize_ptd 0000000180073b40     libvcruntime:per_thread_data.obj
 0004:00000b4c       $pdata$__vcrt_uninitialize_ptd 0000000180073b4c     libvcruntime:per_thread_data.obj
 0004:00000b58       $pdata$?GetCurrentState@__FrameHandler3@@SAHPEA_KPEAU_xDISPATCHER_CONTEXT@@PEBU_s_FuncInfo@@@Z 0000000180073b58     libvcruntime:ehstate.obj
 0004:00000b64       $pdata$?GetUnwindTryBlock@__FrameHandler3@@SAHPEA_KPEAU_xDISPATCHER_CONTEXT@@PEBU_s_FuncInfo@@@Z 0000000180073b64     libvcruntime:ehstate.obj
 0004:00000b70       $pdata$?SetUnwindTryBlock@__FrameHandler3@@SAXPEA_KPEAU_xDISPATCHER_CONTEXT@@PEBU_s_FuncInfo@@H@Z 0000000180073b70     libvcruntime:ehstate.obj
 0004:00000b7c       $pdata$?StateFromIp@__FrameHandler3@@SAHPEBU_s_FuncInfo@@PEAU_xDISPATCHER_CONTEXT@@_K@Z 0000000180073b7c     libvcruntime:ehstate.obj
 0004:00000b88       $pdata$??$BuildCatchObjectHelperInternal@V__FrameHandler3@@@@YAHPEAUEHExceptionRecord@@PEAXPEBU_s_HandlerType@@PEBU_s_CatchableType@@@Z 0000000180073b88     libvcruntime:frame.obj
 0004:00000b94       $pdata$??$BuildCatchObjectInternal@V__FrameHandler3@@@@YAXPEAUEHExceptionRecord@@PEAXPEBU_s_HandlerType@@PEBU_s_CatchableType@@@Z 0000000180073b94     libvcruntime:frame.obj
 0004:00000ba0       $pdata$??$CatchIt@V__FrameHandler3@@@@YAXPEAUEHExceptionRecord@@PEA_KPEAU_CONTEXT@@PEAU_xDISPATCHER_CONTEXT@@PEBU_s_FuncInfo@@PEBU_s_HandlerType@@PEBU_s_CatchableType@@PEBU_s_TryBlockMapEntry@@H1EE@Z 0000000180073ba0     libvcruntime:frame.obj
 0004:00000bac       $pdata$??$FindHandler@V__FrameHandler3@@@@YAXPEAUEHExceptionRecord@@PEA_KPEAU_CONTEXT@@PEAU_xDISPATCHER_CONTEXT@@PEBU_s_FuncInfo@@EH1@Z 0000000180073bac     libvcruntime:frame.obj
 0004:00000bb8       $pdata$??$FindHandlerForForeignException@V__FrameHandler3@@@@YAXPEAUEHExceptionRecord@@PEA_KPEAU_CONTEXT@@PEAU_xDISPATCHER_CONTEXT@@PEBU_s_FuncInfo@@HH1@Z 0000000180073bb8     libvcruntime:frame.obj
 0004:00000bc4       $pdata$??$TypeMatchHelper@V__FrameHandler3@@@@YAHPEBU_s_HandlerType@@PEBU_s_CatchableType@@PEBU_s_ThrowInfo@@@Z 0000000180073bc4     libvcruntime:frame.obj
 0004:00000bd0       $pdata$??$__InternalCxxFrameHandler@V__FrameHandler3@@@@YA?AW4_EXCEPTION_DISPOSITION@@PEAUEHExceptionRecord@@PEA_KPEAU_CONTEXT@@PEAU_xDISPATCHER_CONTEXT@@PEBU_s_FuncInfo@@H1E@Z 0000000180073bd0     libvcruntime:frame.obj
 0004:00000bdc       $pdata$??0bad_exception@std@@QEAA@AEBV01@@Z 0000000180073bdc     libvcruntime:frame.obj
 0004:00000be8       $pdata$?CxxCallCatchBlock@__FrameHandler3@@SAPEAXPEAU_EXCEPTION_RECORD@@@Z 0000000180073be8     libvcruntime:frame.obj
 0004:00000bf4       $pdata$?ExFilterRethrow@@YAHPEAU_EXCEPTION_POINTERS@@PEAUEHExceptionRecord@@PEAH@Z 0000000180073bf4     libvcruntime:frame.obj
 0004:00000c00       $pdata$?FrameUnwindToState@__FrameHandler3@@SAXPEA_KPEAU_xDISPATCHER_CONTEXT@@PEBU_s_FuncInfo@@H@Z 0000000180073c00     libvcruntime:frame.obj
 0004:00000c0c       $pdata$?GetHandlerSearchState@__FrameHandler3@@SAHPEA_KPEAU_xDISPATCHER_CONTEXT@@PEBU_s_FuncInfo@@@Z 0000000180073c0c     libvcruntime:frame.obj
 0004:00000c18       $pdata$?IsInExceptionSpec@@YAEPEAUEHExceptionRecord@@PEBU_s_ESTypeList@@@Z 0000000180073c18     libvcruntime:frame.obj
 0004:00000c24       $pdata$?Is_bad_exception_allowed@@YAEPEBU_s_ESTypeList@@@Z 0000000180073c24     libvcruntime:frame.obj
 0004:00000c54       $pdata$__vcrt_initialize_locks 0000000180073c54     libvcruntime:locks.obj
 0004:00000c60       $pdata$__vcrt_uninitialize_locks 0000000180073c60     libvcruntime:locks.obj
 0004:00000c6c       $pdata$?try_get_function@@YAPEAXW4function_id@?A0x14c33c87@@QEBDQEBW4module_id@2@2@Z 0000000180073c6c     libvcruntime:winapi_downlevel.obj
 0004:00000c78       $pdata$__vcrt_FlsAlloc     0000000180073c78     libvcruntime:winapi_downlevel.obj
 0004:00000c84       $pdata$__vcrt_FlsFree      0000000180073c84     libvcruntime:winapi_downlevel.obj
 0004:00000c90       $pdata$__vcrt_FlsGetValue  0000000180073c90     libvcruntime:winapi_downlevel.obj
 0004:00000c9c       $pdata$__vcrt_FlsSetValue  0000000180073c9c     libvcruntime:winapi_downlevel.obj
 0004:00000ca8       $pdata$__vcrt_InitializeCriticalSectionEx 0000000180073ca8     libvcruntime:winapi_downlevel.obj
 0004:00000cb4       $pdata$__vcrt_initialize_winapi_thunks 0000000180073cb4     libvcruntime:winapi_downlevel.obj
 0004:00000cc0       $pdata$__vcrt_uninitialize_winapi_thunks 0000000180073cc0     libvcruntime:winapi_downlevel.obj
 0004:00000ce4       $pdata$??$common_assert_to_message_box@_W@@YAXQEB_W0IQEAX@Z 0000000180073ce4     libucrt:assert.obj
 0004:00000cf0       $pdata$??$common_assert_to_message_box_build_string@_W@@YAXQEA_W_KQEB_W2IQEAX@Z 0000000180073cf0     libucrt:assert.obj
 0004:00000cfc       $pdata$??$common_assert_to_stderr@_W@@YAXQEB_W0I@Z 0000000180073cfc     libucrt:assert.obj
 0004:00000d08       $pdata$_wassert            0000000180073d08     libucrt:assert.obj
 0004:00000d14       $pdata$fwprintf            0000000180073d14     libucrt:assert.obj
 0004:00000d20       $pdata$swprintf            0000000180073d20     libucrt:assert.obj
 0004:00000d2c       $pdata$__acrt_call_reportfault 0000000180073d2c     libucrt:invalid_parameter.obj
 0004:00000d38       $pdata$_invalid_parameter  0000000180073d38     libucrt:invalid_parameter.obj
 0004:00000d44       $pdata$_invalid_parameter_noinfo 0000000180073d44     libucrt:invalid_parameter.obj
 0004:00000d50       $pdata$_invalid_parameter_noinfo_noreturn 0000000180073d50     libucrt:invalid_parameter.obj
 0004:00000d5c       $pdata$_invoke_watson      0000000180073d5c     libucrt:invalid_parameter.obj
 0004:00000d68       $pdata$abort               0000000180073d68     libucrt:abort.obj
 0004:00000d74       $pdata$__acrt_initialize_stdio 0000000180073d74     libucrt:_file.obj
 0004:00000d80       $pdata$__acrt_uninitialize_stdio 0000000180073d80     libucrt:_file.obj
 0004:00000d8c       $pdata$??$?RV<lambda_842d9ff0dc9ef11c61343bbaebe7f885>@@AEAV<lambda_c5860995281e5c4ce005b3de8f5874ee>@@V<lambda_d90129c13df834fdcbf8d2b88dafcf2d>@@@?$__crt_seh_guarded_call@X@@QEAAX$$QEAV<lambda_842d9ff0dc9ef11c61343bbaebe7f885>@@AEAV<lambda_c5860995281e5c4ce005b3de8f5874ee>@@$$QEAV<lambda_d90129c13df834fdcbf8d2b88dafcf2d>@@@Z 0000000180073d8c     libucrt:fflush.obj
 0004:00000d98       $pdata$??$?RV<lambda_886d6c58226a84441f68b9f2b8217b83>@@AEAV<lambda_ab61a845afdef5b7c387490eaf3616ee>@@V<lambda_f7f22ab5edc0698d5f6905b0d3f44752>@@@?$__crt_seh_guarded_call@X@@QEAAX$$QEAV<lambda_886d6c58226a84441f68b9f2b8217b83>@@AEAV<lambda_ab61a845afdef5b7c387490eaf3616ee>@@$$QEAV<lambda_f7f22ab5edc0698d5f6905b0d3f44752>@@@Z 0000000180073d98     libucrt:fflush.obj
 0004:00000da4       $pdata$??$?RV<lambda_c376a267cfb53b6959b3b692ec76b120>@@AEAV<lambda_9a32fed5bf61b6b509b2d3f6003082a1>@@V<lambda_572fbb9fa0ab338edf41edfd4b5fcc8d>@@@?$__crt_seh_guarded_call@H@@QEAAH$$QEAV<lambda_c376a267cfb53b6959b3b692ec76b120>@@AEAV<lambda_9a32fed5bf61b6b509b2d3f6003082a1>@@$$QEAV<lambda_572fbb9fa0ab338edf41edfd4b5fcc8d>@@@Z 0000000180073da4     libucrt:fflush.obj
 0004:00000db0       $pdata$?common_flush_all@@YAH_N@Z 0000000180073db0     libucrt:fflush.obj
 0004:00000dbc       $pdata$__acrt_stdio_flush_nolock 0000000180073dbc     libucrt:fflush.obj
 0004:00000dc8       $pdata$_fflush_nolock      0000000180073dc8     libucrt:fflush.obj
 0004:00000dd4       $pdata$fflush              0000000180073dd4     libucrt:fflush.obj
 0004:00000de0       $pdata$_fclose_nolock      0000000180073de0     libucrt:fclose.obj
 0004:00000dec       $pdata$fclose              0000000180073dec     libucrt:fclose.obj
 0004:00000df8       $pdata$??$?RV<lambda_0d412022a4b28cc8a401ea49574e8ae6>@@AEAV<lambda_a775ed57af18ba8e4d5dc780aa9068fe>@@V<lambda_975a71a6baa488a08f4e15f6b0339b9e>@@@?$__crt_seh_guarded_call@H@@QEAAH$$QEAV<lambda_0d412022a4b28cc8a401ea49574e8ae6>@@AEAV<lambda_a775ed57af18ba8e4d5dc780aa9068fe>@@$$QEAV<lambda_975a71a6baa488a08f4e15f6b0339b9e>@@@Z 0000000180073df8     libucrt:output.obj
 0004:00000e04       $pdata$??$common_vsprintf@Vstandard_base@__crt_stdio_output@@_W@@YAH_KQEA_W0QEB_WQEAU__crt_locale_pointers@@QEAD@Z 0000000180073e04     libucrt:output.obj
 0004:00000e10       $pdata$??$ensure_buffer_is_big_enough@D@formatting_buffer@__crt_stdio_output@@QEAA_N_K@Z 0000000180073e10     libucrt:output.obj
 0004:00000e1c       $pdata$??$ensure_buffer_is_big_enough@_W@formatting_buffer@__crt_stdio_output@@QEAA_N_K@Z 0000000180073e1c     libucrt:output.obj
 0004:00000e28       $pdata$??$type_case_integer_parse_into_buffer@I@?$output_processor@_WV?$stream_output_adapter@_W@__crt_stdio_output@@V?$standard_base@_WV?$stream_output_adapter@_W@__crt_stdio_output@@@2@@__crt_stdio_output@@AEAAXII_N@Z 0000000180073e28     libucrt:output.obj
 0004:00000e28       $pdata$??$type_case_integer_parse_into_buffer@I@?$output_processor@_WV?$string_output_adapter@_W@__crt_stdio_output@@V?$standard_base@_WV?$string_output_adapter@_W@__crt_stdio_output@@@2@@__crt_stdio_output@@AEAAXII_N@Z 0000000180073e28     libucrt:output.obj
 0004:00000e34       $pdata$??$type_case_integer_parse_into_buffer@_K@?$output_processor@_WV?$stream_output_adapter@_W@__crt_stdio_output@@V?$standard_base@_WV?$stream_output_adapter@_W@__crt_stdio_output@@@2@@__crt_stdio_output@@AEAAX_KI_N@Z 0000000180073e34     libucrt:output.obj
 0004:00000e34       $pdata$??$type_case_integer_parse_into_buffer@_K@?$output_processor@_WV?$string_output_adapter@_W@__crt_stdio_output@@V?$standard_base@_WV?$string_output_adapter@_W@__crt_stdio_output@@@2@@__crt_stdio_output@@AEAAX_KI_N@Z 0000000180073e34     libucrt:output.obj
 0004:00000e40       $pdata$??$write_multiple_characters@V?$stream_output_adapter@_W@__crt_stdio_output@@D@__crt_stdio_output@@YAXAEBV?$stream_output_adapter@_W@0@DHQEAH@Z 0000000180073e40     libucrt:output.obj
 0004:00000e4c       $pdata$??$write_multiple_characters@V?$string_output_adapter@_W@__crt_stdio_output@@D@__crt_stdio_output@@YAXAEBV?$string_output_adapter@_W@0@DHQEAH@Z 0000000180073e4c     libucrt:output.obj
 0004:00000e58       $pdata$??0_LocaleUpdate@@QEAA@QEAU__crt_locale_pointers@@@Z 0000000180073e58     libucrt:output.obj
 0004:00000e64       $pdata$??R<lambda_a775ed57af18ba8e4d5dc780aa9068fe>@@QEBAHXZ 0000000180073e64     libucrt:output.obj
 0004:00000e70       $pdata$?force_decimal_point@__crt_stdio_output@@YAXPEADQEAU__crt_locale_pointers@@@Z 0000000180073e70     libucrt:output.obj
 0004:00000e7c       $pdata$?parse_int_from_format_string@?$output_processor@_WV?$string_output_adapter@_W@__crt_stdio_output@@V?$standard_base@_WV?$string_output_adapter@_W@__crt_stdio_output@@@2@@__crt_stdio_output@@AEAA_NQEAH@Z 0000000180073e7c     libucrt:output.obj
 0004:00000e7c       $pdata$?parse_int_from_format_string@?$output_processor@_WV?$stream_output_adapter@_W@__crt_stdio_output@@V?$standard_base@_WV?$stream_output_adapter@_W@__crt_stdio_output@@@2@@__crt_stdio_output@@AEAA_NQEAH@Z 0000000180073e7c     libucrt:output.obj
 0004:00000e88       $pdata$?process@?$output_processor@_WV?$stream_output_adapter@_W@__crt_stdio_output@@V?$standard_base@_WV?$stream_output_adapter@_W@__crt_stdio_output@@@2@@__crt_stdio_output@@QEAAHXZ 0000000180073e88     libucrt:output.obj
 0004:00000e94       $pdata$?process@?$output_processor@_WV?$string_output_adapter@_W@__crt_stdio_output@@V?$standard_base@_WV?$string_output_adapter@_W@__crt_stdio_output@@@2@@__crt_stdio_output@@QEAAHXZ 0000000180073e94     libucrt:output.obj
 0004:00000ea0       $pdata$?state_case_size@?$output_processor@_WV?$stream_output_adapter@_W@__crt_stdio_output@@V?$standard_base@_WV?$stream_output_adapter@_W@__crt_stdio_output@@@2@@__crt_stdio_output@@AEAA_NXZ 0000000180073ea0     libucrt:output.obj
 0004:00000eac       $pdata$?state_case_size@?$output_processor@_WV?$string_output_adapter@_W@__crt_stdio_output@@V?$standard_base@_WV?$string_output_adapter@_W@__crt_stdio_output@@@2@@__crt_stdio_output@@AEAA_NXZ 0000000180073eac     libucrt:output.obj
 0004:00000eb8       $pdata$?state_case_type@?$output_processor@_WV?$stream_output_adapter@_W@__crt_stdio_output@@V?$standard_base@_WV?$stream_output_adapter@_W@__crt_stdio_output@@@2@@__crt_stdio_output@@AEAA_NXZ 0000000180073eb8     libucrt:output.obj
 0004:00000ec4       $pdata$?state_case_type@?$output_processor@_WV?$string_output_adapter@_W@__crt_stdio_output@@V?$standard_base@_WV?$string_output_adapter@_W@__crt_stdio_output@@@2@@__crt_stdio_output@@AEAA_NXZ 0000000180073ec4     libucrt:output.obj
 0004:00000ed0       $pdata$?type_case_Z@?$output_processor@_WV?$string_output_adapter@_W@__crt_stdio_output@@V?$standard_base@_WV?$string_output_adapter@_W@__crt_stdio_output@@@2@@__crt_stdio_output@@AEAA_NXZ 0000000180073ed0     libucrt:output.obj
 0004:00000ed0       $pdata$?type_case_Z@?$output_processor@_WV?$stream_output_adapter@_W@__crt_stdio_output@@V?$standard_base@_WV?$stream_output_adapter@_W@__crt_stdio_output@@@2@@__crt_stdio_output@@AEAA_NXZ 0000000180073ed0     libucrt:output.obj
 0004:00000edc       $pdata$?type_case_a@?$output_processor@_WV?$stream_output_adapter@_W@__crt_stdio_output@@V?$standard_base@_WV?$stream_output_adapter@_W@__crt_stdio_output@@@2@@__crt_stdio_output@@AEAA_NXZ 0000000180073edc     libucrt:output.obj
 0004:00000edc       $pdata$?type_case_a@?$output_processor@_WV?$string_output_adapter@_W@__crt_stdio_output@@V?$standard_base@_WV?$string_output_adapter@_W@__crt_stdio_output@@@2@@__crt_stdio_output@@AEAA_NXZ 0000000180073edc     libucrt:output.obj
 0004:00000ee8       $pdata$?type_case_c_tchar@?$output_processor@_WV?$string_output_adapter@_W@__crt_stdio_output@@V?$standard_base@_WV?$string_output_adapter@_W@__crt_stdio_output@@@2@@__crt_stdio_output@@AEAA_N_W@Z 0000000180073ee8     libucrt:output.obj
 0004:00000ee8       $pdata$?type_case_c_tchar@?$output_processor@_WV?$stream_output_adapter@_W@__crt_stdio_output@@V?$standard_base@_WV?$stream_output_adapter@_W@__crt_stdio_output@@@2@@__crt_stdio_output@@AEAA_N_W@Z 0000000180073ee8     libucrt:output.obj
 0004:00000ef4       $pdata$?type_case_integer@?$output_processor@_WV?$string_output_adapter@_W@__crt_stdio_output@@V?$standard_base@_WV?$string_output_adapter@_W@__crt_stdio_output@@@2@@__crt_stdio_output@@AEAA_NI_N@Z 0000000180073ef4     libucrt:output.obj
 0004:00000ef4       $pdata$?type_case_integer@?$output_processor@_WV?$stream_output_adapter@_W@__crt_stdio_output@@V?$standard_base@_WV?$stream_output_adapter@_W@__crt_stdio_output@@@2@@__crt_stdio_output@@AEAA_NI_N@Z 0000000180073ef4     libucrt:output.obj
 0004:00000f00       $pdata$?type_case_n@?$output_processor@_WV?$stream_output_adapter@_W@__crt_stdio_output@@V?$standard_base@_WV?$stream_output_adapter@_W@__crt_stdio_output@@@2@@__crt_stdio_output@@AEAA_NXZ 0000000180073f00     libucrt:output.obj
 0004:00000f00       $pdata$?type_case_n@?$output_processor@_WV?$string_output_adapter@_W@__crt_stdio_output@@V?$standard_base@_WV?$string_output_adapter@_W@__crt_stdio_output@@@2@@__crt_stdio_output@@AEAA_NXZ 0000000180073f00     libucrt:output.obj
 0004:00000f0c       $pdata$?type_case_s@?$output_processor@_WV?$stream_output_adapter@_W@__crt_stdio_output@@V?$standard_base@_WV?$stream_output_adapter@_W@__crt_stdio_output@@@2@@__crt_stdio_output@@AEAA_NXZ 0000000180073f0c     libucrt:output.obj
 0004:00000f0c       $pdata$?type_case_s@?$output_processor@_WV?$string_output_adapter@_W@__crt_stdio_output@@V?$standard_base@_WV?$string_output_adapter@_W@__crt_stdio_output@@@2@@__crt_stdio_output@@AEAA_NXZ 0000000180073f0c     libucrt:output.obj
 0004:00000f18       $pdata$?write_stored_string_tchar@?$output_processor@_WV?$stream_output_adapter@_W@__crt_stdio_output@@V?$standard_base@_WV?$stream_output_adapter@_W@__crt_stdio_output@@@2@@__crt_stdio_output@@AEAA_N_W@Z 0000000180073f18     libucrt:output.obj
 0004:00000f24       $pdata$?write_stored_string_tchar@?$output_processor@_WV?$string_output_adapter@_W@__crt_stdio_output@@V?$standard_base@_WV?$string_output_adapter@_W@__crt_stdio_output@@@2@@__crt_stdio_output@@AEAA_N_W@Z 0000000180073f24     libucrt:output.obj
 0004:00000f30       $pdata$?write_string@?$string_output_adapter@_W@__crt_stdio_output@@QEBAXQEB_WHQEAHAEAV__crt_deferred_errno_cache@@@Z 0000000180073f30     libucrt:output.obj
 0004:00000f3c       $pdata$?write_string_impl@?$output_adapter_common@_WV?$stream_output_adapter@_W@__crt_stdio_output@@@__crt_stdio_output@@IEBAXQEB_WHQEAHAEAV__crt_deferred_errno_cache@@@Z 0000000180073f3c     libucrt:output.obj
 0004:00000f48       $pdata$__stdio_common_vfwprintf 0000000180073f48     libucrt:output.obj
 0004:00000f54       $pdata$??$?RV<lambda_84ec643ea9557e2f7dc01bb0e9624395>@@AEAV<lambda_ca71763b3c0644891230e4f79ea54fa6>@@V<lambda_439a761618c59b0600e24586724d733b>@@@?$__crt_seh_guarded_call@H@@QEAAH$$QEAV<lambda_84ec643ea9557e2f7dc01bb0e9624395>@@AEAV<lambda_ca71763b3c0644891230e4f79ea54fa6>@@$$QEAV<lambda_439a761618c59b0600e24586724d733b>@@@Z 0000000180073f54     libucrt:setvbuf.obj
 0004:00000f60       $pdata$??R<lambda_ca71763b3c0644891230e4f79ea54fa6>@@QEBAHXZ 0000000180073f60     libucrt:setvbuf.obj
 0004:00000f6c       $pdata$setvbuf             0000000180073f6c     libucrt:setvbuf.obj
 0004:00000f78       $pdata$??$?RV<lambda_d80eeec6fff315bfe5c115232f3240e3>@@AEAV<lambda_6e4b09c48022b2350581041d5f6b0c4c>@@V<lambda_2358e3775559c9db80273638284d5e45>@@@?$__crt_seh_guarded_call@X@@QEAAX$$QEAV<lambda_d80eeec6fff315bfe5c115232f3240e3>@@AEAV<lambda_6e4b09c48022b2350581041d5f6b0c4c>@@$$QEAV<lambda_2358e3775559c9db80273638284d5e45>@@@Z 0000000180073f78     libucrt:exit.obj
 0004:00000f84       $pdata$??R<lambda_6e4b09c48022b2350581041d5f6b0c4c>@@QEBA@XZ 0000000180073f84     libucrt:exit.obj
 0004:00000f90       $pdata$?common_exit@@YAXHW4_crt_exit_cleanup_mode@@W4_crt_exit_return_mode@@@Z 0000000180073f90     libucrt:exit.obj
 0004:00000f9c       $pdata$?exit_or_terminate_process@@YAXI@Z 0000000180073f9c     libucrt:exit.obj
 0004:00000fa8       $pdata$?try_cor_exit_process@@YAXI@Z 0000000180073fa8     libucrt:exit.obj
 0004:00000fb4       $pdata$_stricmp            0000000180073fb4     libucrt:stricmp.obj
 0004:00000fc0       $pdata$_stricmp_l          0000000180073fc0     libucrt:stricmp.obj
 0004:00000fcc       $pdata$__acrt_initialize_locks 0000000180073fcc     libucrt:locks.obj
 0004:00000fd8       $pdata$__acrt_uninitialize_locks 0000000180073fd8     libucrt:locks.obj
 0004:00000fe4       $pdata$terminate           0000000180073fe4     libucrt:terminate.obj
 0004:00000ff0       $pdata$__pctype_func       0000000180073ff0     libucrt:ctype.obj
 0004:00000ffc       $pdata$isdigit             0000000180073ffc     libucrt:_ctype.obj
 0004:00001008       $pdata$__acrt_errno_map_os_error 0000000180074008     libucrt:errno.obj
 0004:00001014       $pdata$__doserrno          0000000180074014     libucrt:errno.obj
 0004:00001020       $pdata$_errno              0000000180074020     libucrt:errno.obj
 0004:0000102c       $pdata$?divide@__crt_strtox@@YA_KAEAUbig_integer@1@AEBU21@@Z 000000018007402c     libucrt:strtod.obj
 0004:00001038       $pdata$0$?divide@__crt_strtox@@YA_KAEAUbig_integer@1@AEBU21@@Z 0000000180074038     libucrt:strtod.obj
 0004:00001044       $pdata$1$?divide@__crt_strtox@@YA_KAEAUbig_integer@1@AEBU21@@Z 0000000180074044     libucrt:strtod.obj
 0004:00001050       $pdata$memcpy_s            0000000180074050     libucrt:cfout.obj
 0004:00001050       $pdata$memcpy_s            0000000180074050     libucrt:strtod.obj
 0004:00001074       $pdata$??$__acrt_mbs_to_wcs_cp@U__crt_win32_buffer_internal_dynamic_resizing@@@@YAHQEBDAEAV?$__crt_win32_buffer@_WU__crt_win32_buffer_internal_dynamic_resizing@@@@I@Z 0000000180074074     libucrt:strftime.obj
 0004:00001080       $pdata$??$__acrt_wcs_to_mbs_cp@U__crt_win32_buffer_no_resizing@@@@YAHQEB_WAEAV?$__crt_win32_buffer@DU__crt_win32_buffer_no_resizing@@@@I@Z 0000000180074080     libucrt:strftime.obj
 0004:0000108c       $pdata$?internal_isupper_l@@YA_NHQEAU__crt_locale_pointers@@@Z 000000018007408c     libucrt:tolower_toupper.obj
 0004:00001098       $pdata$_tolower_l          0000000180074098     libucrt:tolower_toupper.obj
 0004:000010a4       $pdata$tolower             00000001800740a4     libucrt:tolower_toupper.obj
 0004:000010b0       $pdata$wcscpy_s            00000001800740b0     libucrt:wcscpy_s.obj
 0004:000010bc       $pdata$_callnewh           00000001800740bc     libucrt:new_handler.obj
 0004:000010c8       $pdata$_query_new_handler  00000001800740c8     libucrt:new_handler.obj
 0004:000010d4       $pdata$_initterm           00000001800740d4     libucrt:initterm.obj
 0004:000010e0       $pdata$_initterm_e         00000001800740e0     libucrt:initterm.obj
 0004:000010ec       $pdata$_seh_filter_exe     00000001800740ec     libucrt:exception_filter.obj
 0004:000010f8       $pdata$??$parse_command_line@D@@YAXPEADPEAPEAD0PEA_K2@Z 00000001800740f8     libucrt:argv_parsing.obj
 0004:00001104       $pdata$__acrt_allocate_buffer_for_argv 0000000180074104     libucrt:argv_parsing.obj
 0004:00001110       $pdata$_configure_narrow_argv 0000000180074110     libucrt:argv_parsing.obj
 0004:0000111c       $pdata$??$common_initialize_environment_nolock@D@@YAHXZ 000000018007411c     libucrt:environment_initialization.obj
 0004:00001128       $pdata$??$create_environment@D@@YAQEAPEADQEAD@Z 0000000180074128     libucrt:environment_initialization.obj
 0004:00001134       $pdata$??$free_environment@_W@@YAXQEAPEA_W@Z 0000000180074134     libucrt:environment_initialization.obj
 0004:00001134       $pdata$??$free_environment@D@@YAXQEAPEAD@Z 0000000180074134     libucrt:environment_initialization.obj
 0004:00001140       $pdata$??$uninitialize_environment_internal@D@@YAXAEAPEAPEAD@Z 0000000180074140     libucrt:environment_initialization.obj
 0004:0000114c       $pdata$??$uninitialize_environment_internal@_W@@YAXAEAPEAPEA_W@Z 000000018007414c     libucrt:environment_initialization.obj
 0004:00001158       $pdata$__dcrt_uninitialize_environments_nolock 0000000180074158     libucrt:environment_initialization.obj
 0004:00001164       $pdata$??$?RV<lambda_638799b9deba96c50f710eeac98168cd>@@AEAV<lambda_22ebabd17bc4fa466a2aca6d8deb888d>@@V<lambda_a6f7d7db0129f75315ebf26d50c089f1>@@@?$__crt_seh_guarded_call@H@@QEAAH$$QEAV<lambda_638799b9deba96c50f710eeac98168cd>@@AEAV<lambda_22ebabd17bc4fa466a2aca6d8deb888d>@@$$QEAV<lambda_a6f7d7db0129f75315ebf26d50c089f1>@@@Z 0000000180074164     libucrt:onexit.obj
 0004:00001170       $pdata$??$?RV<lambda_7777bce6b2f8c936911f934f8298dc43>@@AEAV<lambda_f03950bc5685219e0bcd2087efbe011e>@@V<lambda_3883c3dff614d5e0c5f61bb1ac94921c>@@@?$__crt_seh_guarded_call@H@@QEAAH$$QEAV<lambda_7777bce6b2f8c936911f934f8298dc43>@@AEAV<lambda_f03950bc5685219e0bcd2087efbe011e>@@$$QEAV<lambda_3883c3dff614d5e0c5f61bb1ac94921c>@@@Z 0000000180074170     libucrt:onexit.obj
 0004:0000117c       $pdata$??R<lambda_22ebabd17bc4fa466a2aca6d8deb888d>@@QEBAHXZ 000000018007417c     libucrt:onexit.obj
 0004:00001188       $pdata$??R<lambda_f03950bc5685219e0bcd2087efbe011e>@@QEBAHXZ 0000000180074188     libucrt:onexit.obj
 0004:00001194       $pdata$_execute_onexit_table 0000000180074194     libucrt:onexit.obj
 0004:000011a0       $pdata$_register_onexit_function 00000001800741a0     libucrt:onexit.obj
 0004:000011ac       $pdata$initialize_c        00000001800741ac     libucrt:initialization.obj
 0004:000011b8       $pdata$uninitialize_environment 00000001800741b8     libucrt:initialization.obj
 0004:000011c4       $pdata$initialize_pointers 00000001800741c4     libucrt:initialization.obj
 0004:000011d0       $pdata$uninitialize_allocated_memory 00000001800741d0     libucrt:initialization.obj
 0004:000011dc       $pdata$uninitialize_allocated_io_buffers 00000001800741dc     libucrt:initialization.obj
 0004:000011e8       $pdata$__acrt_thread_attach 00000001800741e8     libucrt:initialization.obj
 0004:000011f4       $pdata$__acrt_thread_detach 00000001800741f4     libucrt:initialization.obj
 0004:00001200       $pdata$__acrt_uninitialize 0000000180074200     libucrt:initialization.obj
 0004:0000120c       $pdata$__acrt_uninitialize_critical 000000018007420c     libucrt:initialization.obj
 0004:00001218       $pdata$strcpy_s            0000000180074218     libucrt:strcpy_s.obj
 0004:00001224       $pdata$??$parse_integer@KV?$c_string_character_source@_W@__crt_strtox@@@__crt_strtox@@YAKQEAU__crt_locale_pointers@@V?$c_string_character_source@_W@0@H_N@Z 0000000180074224     libucrt:atox.obj
 0004:0000123c       $pdata$??$common_xtox@K_W@@YAHKQEA_W_KI_N@Z 000000018007423c     libucrt:xtoa.obj
 0004:00001248       $pdata$??$common_xtox_s@K_W@@YAHKQEA_W_KI_N@Z 0000000180074248     libucrt:xtoa.obj
 0004:00001254       $pdata$_itow_s             0000000180074254     libucrt:xtoa.obj
 0004:00001260       $pdata$_set_error_mode     0000000180074260     libucrt:set_error_mode.obj
 0004:0000126c       $pdata$wcscat_s            000000018007426c     libucrt:wcscat_s.obj
 0004:00001278       $pdata$wcsncat_s           0000000180074278     libucrt:wcsncat_s.obj
 0004:00001284       $pdata$__acrt_GetModuleFileNameA 0000000180074284     libucrt:getmodulefilenamea.obj
 0004:00001290       $pdata$__acrt_show_wide_message_box 0000000180074290     libucrt:crtmbox.obj
 0004:0000129c       $pdata$??$?RV<lambda_450d765d439847d4c735a33c368b5fc0>@@AEAV<lambda_44731a7d0e6d81c3e6aa82d741081786>@@V<lambda_601a2a7da3b7a96e9554ac7215c4b07c>@@@?$__crt_seh_guarded_call@P6AXH@Z@@QEAAP6AXH@Z$$QEAV<lambda_450d765d439847d4c735a33c368b5fc0>@@AEAV<lambda_44731a7d0e6d81c3e6aa82d741081786>@@$$QEAV<lambda_601a2a7da3b7a96e9554ac7215c4b07c>@@@Z 000000018007429c     libucrt:signal.obj
 0004:000012a8       $pdata$__acrt_get_sigabrt_handler 00000001800742a8     libucrt:signal.obj
 0004:000012b4       $pdata$raise               00000001800742b4     libucrt:signal.obj
 0004:000012c0       $pdata$??$?RV<lambda_0ae27a3a962d80f24befdcbee591983d>@@AEAV<lambda_8d0ee55de4b1038c4002e0adecdf1839>@@V<lambda_dc504788e8f1664fe9b84e20bfb512f2>@@@?$__crt_seh_guarded_call@X@@QEAAX$$QEAV<lambda_0ae27a3a962d80f24befdcbee591983d>@@AEAV<lambda_8d0ee55de4b1038c4002e0adecdf1839>@@$$QEAV<lambda_dc504788e8f1664fe9b84e20bfb512f2>@@@Z 00000001800742c0     libucrt:per_thread_data.obj
 0004:000012cc       $pdata$??$?RV<lambda_2d41944a1d46af3157314b8a01080d33>@@AEAV<lambda_8f455de75cd7d7f24b4096f044d8b9e6>@@V<lambda_aa500f224e6afead328df44964fe2772>@@@?$__crt_seh_guarded_call@X@@QEAAX$$QEAV<lambda_2d41944a1d46af3157314b8a01080d33>@@AEAV<lambda_8f455de75cd7d7f24b4096f044d8b9e6>@@$$QEAV<lambda_aa500f224e6afead328df44964fe2772>@@@Z 00000001800742cc     libucrt:per_thread_data.obj
 0004:000012d8       $pdata$??$?RV<lambda_aa87e3671a710a21b5dc78c0bdf72e11>@@AEAV<lambda_92619d2358a28f41a33ba319515a20b9>@@V<lambda_6992ecaafeb10aed2b74cb1fae11a551>@@@?$__crt_seh_guarded_call@X@@QEAAX$$QEAV<lambda_aa87e3671a710a21b5dc78c0bdf72e11>@@AEAV<lambda_92619d2358a28f41a33ba319515a20b9>@@$$QEAV<lambda_6992ecaafeb10aed2b74cb1fae11a551>@@@Z 00000001800742d8     libucrt:per_thread_data.obj
 0004:000012e4       $pdata$??$?RV<lambda_f2e299630e499de9f9a165e60fcd3db5>@@AEAV<lambda_2ae9d31cdba2644fcbeaf08da7c24588>@@V<lambda_40d01ff24d0e7b3814fdbdcee8eab3c7>@@@?$__crt_seh_guarded_call@X@@QEAAX$$QEAV<lambda_f2e299630e499de9f9a165e60fcd3db5>@@AEAV<lambda_2ae9d31cdba2644fcbeaf08da7c24588>@@$$QEAV<lambda_40d01ff24d0e7b3814fdbdcee8eab3c7>@@@Z 00000001800742e4     libucrt:per_thread_data.obj
 0004:000012f0       $pdata$?construct_ptd_array@@YAXQEAU__acrt_ptd@@@Z 00000001800742f0     libucrt:per_thread_data.obj
 0004:000012fc       $pdata$?destroy_fls@@YAXPEAX@Z 00000001800742fc     libucrt:per_thread_data.obj
 0004:00001308       $pdata$?destroy_ptd_array@@YAXQEAU__acrt_ptd@@@Z 0000000180074308     libucrt:per_thread_data.obj
 0004:00001314       $pdata$?replace_current_thread_locale_nolock@@YAXQEAU__acrt_ptd@@QEAU__crt_locale_data@@@Z 0000000180074314     libucrt:per_thread_data.obj
 0004:00001320       $pdata$__acrt_freeptd      0000000180074320     libucrt:per_thread_data.obj
 0004:0000132c       $pdata$__acrt_getptd       000000018007432c     libucrt:per_thread_data.obj
 0004:00001338       $pdata$__acrt_getptd_head  0000000180074338     libucrt:per_thread_data.obj
 0004:00001344       $pdata$__acrt_getptd_noexit 0000000180074344     libucrt:per_thread_data.obj
 0004:00001350       $pdata$__acrt_initialize_ptd 0000000180074350     libucrt:per_thread_data.obj
 0004:0000135c       $pdata$__acrt_uninitialize_ptd 000000018007435c     libucrt:per_thread_data.obj
 0004:00001368       $pdata$_fileno             0000000180074368     libucrt:fileno.obj
 0004:00001374       $pdata$??$write_buffer_nolock@D@@YA_NDV__crt_stdio_stream@@@Z 0000000180074374     libucrt:_flsbuf.obj
 0004:00001380       $pdata$??$write_buffer_nolock@_W@@YA_N_WV__crt_stdio_stream@@@Z 0000000180074380     libucrt:_flsbuf.obj
 0004:0000138c       $pdata$?stream_is_at_end_of_file_nolock@@YA_NV__crt_stdio_stream@@@Z 000000018007438c     libucrt:_flsbuf.obj
 0004:00001398       $pdata$__acrt_stdio_flush_and_write_narrow_nolock 0000000180074398     libucrt:_flsbuf.obj
 0004:000013a4       $pdata$__acrt_stdio_flush_and_write_wide_nolock 00000001800743a4     libucrt:_flsbuf.obj
 0004:000013b0       $pdata$?initialize_inherited_file_handles_nolock@@YAXXZ 00000001800743b0     libucrt:ioinit.obj
 0004:000013bc       $pdata$?initialize_stdio_handles_nolock@@YAXXZ 00000001800743bc     libucrt:ioinit.obj
 0004:000013c8       $pdata$__acrt_initialize_lowio 00000001800743c8     libucrt:ioinit.obj
 0004:000013d4       $pdata$__acrt_uninitialize_lowio 00000001800743d4     libucrt:ioinit.obj
 0004:000013e0       $pdata$_calloc_base        00000001800743e0     libucrt:calloc_base.obj
 0004:000013ec       $pdata$_free_base          00000001800743ec     libucrt:free_base.obj
 0004:000013f8       $pdata$?try_get_function@@YAPEAXW4function_id@?A0x391cf84c@@QEBDQEBW4module_id@2@2@Z 00000001800743f8     libucrt:winapi_thunks.obj
 0004:00001404       $pdata$__acrt_AppPolicyGetProcessTerminationMethodInternal 0000000180074404     libucrt:winapi_thunks.obj
 0004:00001410       $pdata$__acrt_AppPolicyGetShowDeveloperDiagnosticInternal 0000000180074410     libucrt:winapi_thunks.obj
 0004:0000141c       $pdata$__acrt_AppPolicyGetWindowingModelInternal 000000018007441c     libucrt:winapi_thunks.obj
 0004:00001428       $pdata$__acrt_AreFileApisANSI 0000000180074428     libucrt:winapi_thunks.obj
 0004:00001434       $pdata$__acrt_FlsAlloc     0000000180074434     libucrt:winapi_thunks.obj
 0004:00001440       $pdata$__acrt_FlsFree      0000000180074440     libucrt:winapi_thunks.obj
 0004:0000144c       $pdata$__acrt_FlsGetValue  000000018007444c     libucrt:winapi_thunks.obj
 0004:00001458       $pdata$__acrt_FlsSetValue  0000000180074458     libucrt:winapi_thunks.obj
 0004:00001464       $pdata$__acrt_InitializeCriticalSectionEx 0000000180074464     libucrt:winapi_thunks.obj
 0004:00001470       $pdata$__acrt_LCMapStringEx 0000000180074470     libucrt:winapi_thunks.obj
 0004:0000147c       $pdata$__acrt_LocaleNameToLCID 000000018007447c     libucrt:winapi_thunks.obj
 0004:00001488       $pdata$__acrt_MessageBoxW  0000000180074488     libucrt:winapi_thunks.obj
 0004:00001494       $pdata$__acrt_can_show_message_box 0000000180074494     libucrt:winapi_thunks.obj
 0004:000014a0       $pdata$__acrt_get_parent_window 00000001800744a0     libucrt:winapi_thunks.obj
 0004:000014ac       $pdata$__acrt_initialize_winapi_thunks 00000001800744ac     libucrt:winapi_thunks.obj
 0004:000014b8       $pdata$__acrt_is_interactive 00000001800744b8     libucrt:winapi_thunks.obj
 0004:000014c4       $pdata$__acrt_uninitialize_winapi_thunks 00000001800744c4     libucrt:winapi_thunks.obj
 0004:000014d0       $pdata$_fcloseall          00000001800744d0     libucrt:closeall.obj
 0004:000014dc       $pdata$__acrt_stdio_free_buffer_nolock 00000001800744dc     libucrt:_freebuf.obj
 0004:000014e8       $pdata$??$?RV<lambda_a37b2b86f63e897a80ea819b0eb08c01>@@AEAV<lambda_38ce7e780aa69e748d6df282ebc68efe>@@V<lambda_99fb1378e971ab6e7edea83e3a7a83a2>@@@?$__crt_seh_guarded_call@H@@QEAAH$$QEAV<lambda_a37b2b86f63e897a80ea819b0eb08c01>@@AEAV<lambda_38ce7e780aa69e748d6df282ebc68efe>@@$$QEAV<lambda_99fb1378e971ab6e7edea83e3a7a83a2>@@@Z 00000001800744e8     libucrt:commit.obj
 0004:000014f4       $pdata$_commit             00000001800744f4     libucrt:commit.obj
 0004:00001500       $pdata$?write_double_translated_ansi_nolock@@YA?AUwrite_result@?A0x17268360@@HQEBDI@Z 0000000180074500     libucrt:write.obj
 0004:0000150c       $pdata$?write_text_ansi_nolock@@YA?AUwrite_result@?A0x17268360@@HQEBDI@Z 000000018007450c     libucrt:write.obj
 0004:00001518       $pdata$?write_text_utf16le_nolock@@YA?AUwrite_result@?A0x17268360@@HQEBDI@Z 0000000180074518     libucrt:write.obj
 0004:00001524       $pdata$?write_text_utf8_nolock@@YA?AUwrite_result@?A0x17268360@@HQEBDI@Z 0000000180074524     libucrt:write.obj
 0004:00001530       $pdata$_write              0000000180074530     libucrt:write.obj
 0004:0000153c       $pdata$_write_nolock       000000018007453c     libucrt:write.obj
 0004:00001548       $pdata$??$?RV<lambda_751a882b2c74d4b022dec766aa51a29a>@@AEAV<lambda_628dfdc04ba53c8bfc02c9951375f3f5>@@V<lambda_f6c7be5f7998530c34de24c7437d6b54>@@@?$__crt_seh_guarded_call@H@@QEAAH$$QEAV<lambda_751a882b2c74d4b022dec766aa51a29a>@@AEAV<lambda_628dfdc04ba53c8bfc02c9951375f3f5>@@$$QEAV<lambda_f6c7be5f7998530c34de24c7437d6b54>@@@Z 0000000180074548     libucrt:close.obj
 0004:00001554       $pdata$_close              0000000180074554     libucrt:close.obj
 0004:00001560       $pdata$_close_nolock       0000000180074560     libucrt:close.obj
 0004:0000156c       $pdata$_malloc_base        000000018007456c     libucrt:malloc_base.obj
 0004:00001578       $pdata$wcstol              0000000180074578     libucrt:strtox.obj
 0004:00001584       $pdata$_mbtowc_l           0000000180074584     libucrt:mbtowc.obj
 0004:00001590       $pdata$_wctomb_s_l         0000000180074590     libucrt:wctomb.obj
 0004:0000159c       $pdata$wctomb_s            000000018007459c     libucrt:wctomb.obj
 0004:000015a8       $pdata$__acrt_update_locale_info 00000001800745a8     libucrt:locale_update.obj
 0004:000015b4       $pdata$__acrt_update_multibyte_info 00000001800745b4     libucrt:locale_update.obj
 0004:000015c0       $pdata$?fp_format_a@@YAHQEBNPEAD_KQEAD2H_NIQEAU__crt_locale_pointers@@@Z 00000001800745c0     libucrt:cvt.obj
 0004:000015cc       $pdata$?fp_format_e@@YAHQEBNQEAD_K12H_NIQEAU__crt_locale_pointers@@@Z 00000001800745cc     libucrt:cvt.obj
 0004:000015d8       $pdata$?fp_format_e_internal@@YAHQEAD_KH_NIQEAU_strflt@@2QEAU__crt_locale_pointers@@@Z 00000001800745d8     libucrt:cvt.obj
 0004:000015e4       $pdata$?fp_format_f_internal@@YAHQEAD_KHQEAU_strflt@@_NQEAU__crt_locale_pointers@@@Z 00000001800745e4     libucrt:cvt.obj
 0004:000015f0       $pdata$?fp_format_g@@YAHQEBNQEAD_K12H_NIQEAU__crt_locale_pointers@@@Z 00000001800745f0     libucrt:cvt.obj
 0004:000015fc       $pdata$?fp_format_nan_or_infinity@@YAHW4__acrt_fp_class@@_NPEAD_K1@Z 00000001800745fc     libucrt:cvt.obj
 0004:00001608       $pdata$__acrt_fp_format    0000000180074608     libucrt:cvt.obj
 0004:00001614       $pdata$_fputwc_nolock      0000000180074614     libucrt:fputwc.obj
 0004:00001620       $pdata$__acrt_stdio_begin_temporary_buffering_nolock 0000000180074620     libucrt:_sftbuf.obj
 0004:0000162c       $pdata$__acrt_stdio_end_temporary_buffering_nolock 000000018007462c     libucrt:_sftbuf.obj
 0004:00001638       $pdata$??$?RV<lambda_410d79af7f07d98d83a3f525b3859a53>@@AEAV<lambda_3e16ef9562a7dcce91392c22ab16ea36>@@V<lambda_38119f0e861e05405d8a144b9b982f0a>@@@?$__crt_seh_guarded_call@X@@QEAAX$$QEAV<lambda_410d79af7f07d98d83a3f525b3859a53>@@AEAV<lambda_3e16ef9562a7dcce91392c22ab16ea36>@@$$QEAV<lambda_38119f0e861e05405d8a144b9b982f0a>@@@Z 0000000180074638     libucrt:wsetlocale.obj
 0004:00001644       $pdata$__acrt_uninitialize_locale 0000000180074644     libucrt:wsetlocale.obj
 0004:00001650       $pdata$__acrt_stdio_allocate_buffer_nolock 0000000180074650     libucrt:_getbuf.obj
 0004:0000165c       $pdata$??$common_lseek@_J@@YA_JH_JH@Z 000000018007465c     libucrt:lseek.obj
 0004:00001668       $pdata$??$common_lseek_nolock@_J@@YA_JH_JH@Z 0000000180074668     libucrt:lseek.obj
 0004:00001674       $pdata$_call_matherr       0000000180074674     libucrt:libm_error.obj
 0004:00001680       $pdata$_exception_enabled  0000000180074680     libucrt:libm_error.obj
 0004:0000168c       $pdata$_handle_error       000000018007468c     libucrt:libm_error.obj
 0004:00001698       $pdata$_handle_errorf      0000000180074698     libucrt:libm_error.obj
 0004:000016a4       $pdata$__acrt_get_developer_information_policy 00000001800746a4     libucrt:win_policies.obj
 0004:000016b0       $pdata$__acrt_get_process_end_policy 00000001800746b0     libucrt:win_policies.obj
 0004:000016bc       $pdata$__acrt_get_windowing_model_policy 00000001800746bc     libucrt:win_policies.obj
 0004:000016c8       $pdata$_realloc_base       00000001800746c8     libucrt:realloc_base.obj
 0004:000016d4       $pdata$_isctype_l          00000001800746d4     libucrt:isctype.obj
 0004:000016e0       $pdata$__acrt_GetStringTypeA 00000001800746e0     libucrt:getstringtypea.obj
 0004:000016ec       $pdata$?__acrt_LCMapStringA_stat@@YAHPEAU__crt_locale_pointers@@PEB_WKPEBDHPEADHHH@Z 00000001800746ec     libucrt:lcmapstringa.obj
 0004:000016f8       $pdata$__acrt_LCMapStringA 00000001800746f8     libucrt:lcmapstringa.obj
 0004:00001704       $pdata$iswctype            0000000180074704     libucrt:iswctype.obj
 0004:00001710       $pdata$_raise_exc          0000000180074710     libucrt:fpexcept.obj
 0004:0000171c       $pdata$_raise_exc_ex       000000018007471c     libucrt:fpexcept.obj
 0004:00001728       $pdata$_raise_excf         0000000180074728     libucrt:fpexcept.obj
 0004:00001734       $pdata$_set_errno_from_matherr 0000000180074734     libucrt:fpexcept.obj
 0004:00001740       $pdata$_clrfp              0000000180074740     libucrt:fpctrl.obj
 0004:0000174c       $pdata$_ctrlfp             000000018007474c     libucrt:fpctrl.obj
 0004:00001758       $pdata$_set_statfp         0000000180074758     libucrt:fpctrl.obj
 0004:00001764       $pdata$_statfp             0000000180074764     libucrt:fpctrl.obj
 0004:00001770       $pdata$__acrt_initialize_fma3 0000000180074770     libucrt:fma3_available.obj
 0004:0000177c       $pdata$_pow_special        000000018007477c     libucrt:pow_special.obj
 0004:00001788       $pdata$_powf_special       0000000180074788     libucrt:pow_special.obj
 0004:00001794       $pdata$__acrt_WideCharToMultiByte 0000000180074794     libucrt:widechartomultibyte.obj
 0004:000017a0       $pdata$_isleadbyte_l       00000001800747a0     libucrt:_wctype.obj
 0004:000017ac       $pdata$??$__acrt_wcs_to_mbs_cp@U__crt_win32_buffer_internal_dynamic_resizing@@@@YAHQEB_WAEAV?$__crt_win32_buffer@DU__crt_win32_buffer_internal_dynamic_resizing@@@@I@Z 00000001800747ac     libucrt:argv_wildcards.obj
 0004:000017b8       $pdata$??$common_expand_argv_wildcards@D@@YAHQEAPEADQEAPEAPEAD@Z 00000001800747b8     libucrt:argv_wildcards.obj
 0004:000017c4       $pdata$??$copy_and_add_argument_to_buffer@D@@YAHQEBD0_KAEAV?$argument_list@D@?A0x5f5c8891@@@Z 00000001800747c4     libucrt:argv_wildcards.obj
 0004:000017d0       $pdata$??$expand_argument_wildcards@D@@YAHQEAD0AEAV?$argument_list@D@?A0x5f5c8891@@@Z 00000001800747d0     libucrt:argv_wildcards.obj
 0004:000017dc       $pdata$??$?RV<lambda_efdfa57d1f175319df784efa44bb7b81>@@AEAV<lambda_5f0a4c1567f8adc6734073e5d1e1b35c>@@V<lambda_2e8a7d3640ea6ccb4c2413664c2db6fd>@@@?$__crt_seh_guarded_call@X@@QEAAX$$QEAV<lambda_efdfa57d1f175319df784efa44bb7b81>@@AEAV<lambda_5f0a4c1567f8adc6734073e5d1e1b35c>@@$$QEAV<lambda_2e8a7d3640ea6ccb4c2413664c2db6fd>@@@Z 00000001800747dc     libucrt:mbctype.obj
 0004:000017e8       $pdata$?getSystemCP@@YAHH@Z 00000001800747e8     libucrt:mbctype.obj
 0004:000017f4       $pdata$?setSBCS@@YAXPEAU__crt_multibyte_data@@@Z 00000001800747f4     libucrt:mbctype.obj
 0004:00001800       $pdata$?setSBUpLow@@YAXPEAU__crt_multibyte_data@@@Z 0000000180074800     libucrt:mbctype.obj
 0004:0000180c       $pdata$?setmbcp_internal@@YAHH_NQEAU__acrt_ptd@@QEAPEAU__crt_multibyte_data@@@Z 000000018007480c     libucrt:mbctype.obj
 0004:00001818       $pdata$?update_thread_multibyte_data_internal@@YAPEAU__crt_multibyte_data@@QEAU__acrt_ptd@@QEAPEAU1@@Z 0000000180074818     libucrt:mbctype.obj
 0004:00001824       $pdata$__acrt_initialize_multibyte 0000000180074824     libucrt:mbctype.obj
 0004:00001830       $pdata$__acrt_update_thread_multibyte_data 0000000180074830     libucrt:mbctype.obj
 0004:0000183c       $pdata$_setmbcp_nolock     000000018007483c     libucrt:mbctype.obj
 0004:00001848       $pdata$?x_ismbbtype_l@@YAHPEAU__crt_locale_pointers@@IHH@Z 0000000180074848     libucrt:ismbbyte.obj
 0004:00001854       $pdata$__acrt_initialize_command_line 0000000180074854     libucrt:argv_data.obj
 0004:00001860       $pdata$__dcrt_get_narrow_environment_from_os 0000000180074860     libucrt:get_environment_from_os.obj
 0004:0000186c       $pdata$_recalloc_base      000000018007486c     libucrt:recalloc.obj
 0004:00001878       $pdata$__acrt_initialize_heap 0000000180074878     libucrt:heap_handle.obj
 0004:00001884       $pdata$__acrt_execute_initializers 0000000180074884     libucrt:shared_initialization.obj
 0004:00001890       $pdata$__acrt_execute_uninitializers 0000000180074890     libucrt:shared_initialization.obj
 0004:0000189c       $pdata$__acrt_free_locale  000000018007489c     libucrt:locale_refcounting.obj
 0004:000018a8       $pdata$__acrt_locale_free_lc_time_if_unreferenced 00000001800748a8     libucrt:locale_refcounting.obj
 0004:000018b4       $pdata$__acrt_release_locale_ref 00000001800748b4     libucrt:locale_refcounting.obj
 0004:000018c0       $pdata$__acrt_update_thread_locale_data 00000001800748c0     libucrt:locale_refcounting.obj
 0004:000018cc       $pdata$_updatetlocinfoEx_nolock 00000001800748cc     libucrt:locale_refcounting.obj
 0004:000018d8       $pdata$__acrt_lowio_create_handle_array 00000001800748d8     libucrt:osfinfo.obj
 0004:000018e4       $pdata$__acrt_lowio_destroy_handle_array 00000001800748e4     libucrt:osfinfo.obj
 0004:000018f0       $pdata$__acrt_lowio_ensure_fh_exists 00000001800748f0     libucrt:osfinfo.obj
 0004:000018fc       $pdata$_free_osfhnd        00000001800748fc     libucrt:osfinfo.obj
 0004:00001908       $pdata$_get_osfhandle      0000000180074908     libucrt:osfinfo.obj
 0004:00001914       $pdata$_isatty             0000000180074914     libucrt:isatty.obj
 0004:00001920       $pdata$?GetTableIndexFromLocaleName@@YAHPEB_W@Z 0000000180074920     libucrt:lcidtoname_downlevel.obj
 0004:0000192c       $pdata$__acrt_DownlevelLocaleNameToLCID 000000018007492c     libucrt:lcidtoname_downlevel.obj
 0004:00001938       $pdata$?__mbrtowc_utf8@__crt_mbstring@@YA_KPEA_WPEBD_KPEAU_Mbstatet@@@Z 0000000180074938     libucrt:mbrtowc.obj
 0004:00001944       $pdata$?__mbsrtowcs_utf8@__crt_mbstring@@YA_KPEA_WPEAPEBD_KPEAU_Mbstatet@@@Z 0000000180074944     libucrt:mbrtowc.obj
 0004:00001950       $pdata$_putwch_nolock      0000000180074950     libucrt:putwch.obj
 0004:0000195c       $pdata$?__c32rtomb_utf8@__crt_mbstring@@YA_KPEAD_UPEAU_Mbstatet@@@Z 000000018007495c     libucrt:c32rtomb.obj
 0004:00001968       $pdata$__acrt_fp_strflt_to_string 0000000180074968     libucrt:_fptostr.obj
 0004:00001974       $pdata$__acrt_fltout       0000000180074974     libucrt:cfout.obj
 0004:00001980       $pdata$__acrt_locale_free_monetary 0000000180074980     libucrt:initmon.obj
 0004:0000198c       $pdata$__acrt_locale_free_numeric 000000018007498c     libucrt:initnum.obj
 0004:00001998       $pdata$?free_crt_array_internal@@YAXQEAPEBX_K@Z 0000000180074998     libucrt:inittime.obj
 0004:000019a4       $pdata$__acrt_locale_free_time 00000001800749a4     libucrt:inittime.obj
 0004:000019b0       $pdata$strncpy_s           00000001800749b0     libucrt:strncpy_s.obj
 0004:000019bc       $pdata$__acrt_fenv_set_control 00000001800749bc     libucrt:_fenvutils.obj
 0004:000019d4       $pdata$qsort               00000001800749d4     libucrt:qsort.obj
 0004:000019e0       $pdata$4$qsort             00000001800749e0     libucrt:qsort.obj
 0004:000019ec       $pdata$5$qsort             00000001800749ec     libucrt:qsort.obj
 0004:000019f8       $pdata$fallbackMethod      00000001800749f8     libucrt:strpbrk.obj
 0004:00001a04       $pdata$strpbrk             0000000180074a04     libucrt:strpbrk.obj
 0004:00001a10       $pdata$_mbsdec_l           0000000180074a10     libucrt:mbsdec.obj
 0004:00001a1c       $pdata$?initialize_multibyte@@YAHXZ 0000000180074a1c     libucrt:multibyte_initializer.obj
 0004:00001a28       $pdata$_msize_base         0000000180074a28     libucrt:msize.obj
 0004:00001a34       $pdata$?__mbrtoc32_utf8@__crt_mbstring@@YA_KPEA_UPEBD_KPEAU_Mbstatet@@@Z 0000000180074a34     libucrt:mbrtoc32.obj
 0004:00001a40       $pdata$__dcrt_lowio_ensure_console_output_initialized 0000000180074a40     libucrt:initcon.obj
 0004:00001a4c       $pdata$__dcrt_terminate_console_output 0000000180074a4c     libucrt:initcon.obj
 0004:00001a58       $pdata$__dcrt_write_console 0000000180074a58     libucrt:initcon.obj
 0004:00001a64       $pdata$fegetenv            0000000180074a64     libucrt:fegetenv.obj
 0004:00001a70       $pdata$fesetenv            0000000180074a70     libucrt:fesetenv.obj
 0004:00001a7c       $pdata$feholdexcept        0000000180074a7c     libucrt:feholdexcept.obj
 0004:00001a94       $pdata$_clearfp            0000000180074a94     libucrt:ieee.obj
 0004:00001aa0       $pdata$_log10_special      0000000180074aa0     libucrt:log_special.obj
 0004:00001aac       $pdata$_log_special_common 0000000180074aac     libucrt:log_special.obj
 0004:00001ab8       $pdata$?DloadAcquireSectionWriteAccess@@YAXXZ 0000000180074ab8     DelayImp:delayhlp.obj
 0004:00001ac4       $pdata$?DloadGetSRWLockFunctionPointers@@YAEXZ 0000000180074ac4     DelayImp:delayhlp.obj
 0004:00001ad0       $pdata$?DloadMakePermanentImageCommit@@YAXPEAX_K@Z 0000000180074ad0     DelayImp:delayhlp.obj
 0004:00001adc       $pdata$?DloadObtainSection@@YAPEAXPEAK0@Z 0000000180074adc     DelayImp:delayhlp.obj
 0004:00001ae8       $pdata$?DloadProtectSection@@YAXKPEAK@Z 0000000180074ae8     DelayImp:delayhlp.obj
 0004:00001af4       $pdata$?DloadReleaseSectionWriteAccess@@YAXXZ 0000000180074af4     DelayImp:delayhlp.obj
 0004:00001b00       $pdata$__delayLoadHelper2  0000000180074b00     DelayImp:delayhlp.obj
 0004:00001b0c       $pdata$_IsNonwritableInCurrentImage 0000000180074b0c     LIBCMT:pesect.obj
 0004:00001b18       $pdata$strrchr             0000000180074b18     libvcruntime:strrchr.obj
 0004:00001b30       $pdata$?fin$0@?0??dllmain_crt_process_attach@@YAHQEAUHINSTANCE__@@QEAX@Z@4HA 0000000180074b30     LIBCMT:dll_dllmain.obj
 0004:00001b3c       $pdata$?fin$0@?0??dllmain_crt_process_detach@@YAH_N@Z@4HA 0000000180074b3c     LIBCMT:dll_dllmain.obj
 0004:00001b48       $pdata$?filt$0@?0??dllmain_dispatch@@YAHQEAUHINSTANCE__@@KQEAX@Z@4HA 0000000180074b48     LIBCMT:dll_dllmain.obj
 0004:00001b54       $pdata$__scrt_is_nonwritable_in_current_image$filt$0 0000000180074b54     LIBCMT:utility.obj
 0004:00001b60       $pdata$?filt$0@?0???$_CallSETranslator@V__FrameHandler3@@@@YAHPEAUEHExceptionRecord@@PEA_KPEAU_CONTEXT@@PEAU_xDISPATCHER_CONTEXT@@PEBU_s_FuncInfo@@K1@Z@4HA 0000000180074b60     libvcruntime:risctrnsctrl.obj
 0004:00001b6c       $pdata$__DestructExceptionObject$filt$0 0000000180074b6c     libvcruntime:ehhelpers.obj
 0004:00001b78       $pdata$?filt$0@?0??CxxCallCatchBlock@__FrameHandler3@@SAPEAXPEAU_EXCEPTION_RECORD@@@Z@4HA 0000000180074b78     libvcruntime:frame.obj
 0004:00001b84       $pdata$?fin$1@?0??CxxCallCatchBlock@__FrameHandler3@@SAPEAXPEAU_EXCEPTION_RECORD@@@Z@4HA 0000000180074b84     libvcruntime:frame.obj
 0004:00001b90       $pdata$?filt$0@?0??FrameUnwindToState@__FrameHandler3@@SAXPEA_KPEAU_xDISPATCHER_CONTEXT@@PEBU_s_FuncInfo@@H@Z@4HA 0000000180074b90     libvcruntime:frame.obj
 0004:00001b9c       $pdata$?fin$1@?0??FrameUnwindToState@__FrameHandler3@@SAXPEA_KPEAU_xDISPATCHER_CONTEXT@@PEBU_s_FuncInfo@@H@Z@4HA 0000000180074b9c     libvcruntime:frame.obj
 0004:00001ba8       $pdata$?fin$0@?0???$?RV<lambda_84ec643ea9557e2f7dc01bb0e9624395>@@AEAV<lambda_ca71763b3c0644891230e4f79ea54fa6>@@V<lambda_439a761618c59b0600e24586724d733b>@@@?$__crt_seh_guarded_call@H@@QEAAH$$QEAV<lambda_84ec643ea9557e2f7dc01bb0e9624395>@@AEAV<lambda_ca71763b3c0644891230e4f79ea54fa6>@@$$QEAV<lambda_439a761618c59b0600e24586724d733b>@@@Z@4HA 0000000180074ba8     libucrt:setvbuf.obj
 0004:00001ba8       $pdata$?fin$0@?0???$?RV<lambda_0d412022a4b28cc8a401ea49574e8ae6>@@AEAV<lambda_a775ed57af18ba8e4d5dc780aa9068fe>@@V<lambda_975a71a6baa488a08f4e15f6b0339b9e>@@@?$__crt_seh_guarded_call@H@@QEAAH$$QEAV<lambda_0d412022a4b28cc8a401ea49574e8ae6>@@AEAV<lambda_a775ed57af18ba8e4d5dc780aa9068fe>@@$$QEAV<lambda_975a71a6baa488a08f4e15f6b0339b9e>@@@Z@4HA 0000000180074ba8     libucrt:output.obj
 0004:00001ba8       $pdata$?fin$0@?0???$?RV<lambda_842d9ff0dc9ef11c61343bbaebe7f885>@@AEAV<lambda_c5860995281e5c4ce005b3de8f5874ee>@@V<lambda_d90129c13df834fdcbf8d2b88dafcf2d>@@@?$__crt_seh_guarded_call@X@@QEAAX$$QEAV<lambda_842d9ff0dc9ef11c61343bbaebe7f885>@@AEAV<lambda_c5860995281e5c4ce005b3de8f5874ee>@@$$QEAV<lambda_d90129c13df834fdcbf8d2b88dafcf2d>@@@Z@4HA 0000000180074ba8     libucrt:fflush.obj
 0004:00001ba8       $pdata$?fin$0@?0???$?RV<lambda_c376a267cfb53b6959b3b692ec76b120>@@AEAV<lambda_9a32fed5bf61b6b509b2d3f6003082a1>@@V<lambda_572fbb9fa0ab338edf41edfd4b5fcc8d>@@@?$__crt_seh_guarded_call@H@@QEAAH$$QEAV<lambda_c376a267cfb53b6959b3b692ec76b120>@@AEAV<lambda_9a32fed5bf61b6b509b2d3f6003082a1>@@$$QEAV<lambda_572fbb9fa0ab338edf41edfd4b5fcc8d>@@@Z@4HA 0000000180074ba8     libucrt:fflush.obj
 0004:00001bb4       $pdata$?fin$0@?0???$?RV<lambda_886d6c58226a84441f68b9f2b8217b83>@@AEAV<lambda_ab61a845afdef5b7c387490eaf3616ee>@@V<lambda_f7f22ab5edc0698d5f6905b0d3f44752>@@@?$__crt_seh_guarded_call@X@@QEAAX$$QEAV<lambda_886d6c58226a84441f68b9f2b8217b83>@@AEAV<lambda_ab61a845afdef5b7c387490eaf3616ee>@@$$QEAV<lambda_f7f22ab5edc0698d5f6905b0d3f44752>@@@Z@4HA 0000000180074bb4     libucrt:fflush.obj
 0004:00001bc0       $pdata$fclose$fin$0        0000000180074bc0     libucrt:fclose.obj
 0004:00001bcc       $pdata$?fin$0@?0???$?RV<lambda_efdfa57d1f175319df784efa44bb7b81>@@AEAV<lambda_5f0a4c1567f8adc6734073e5d1e1b35c>@@V<lambda_2e8a7d3640ea6ccb4c2413664c2db6fd>@@@?$__crt_seh_guarded_call@X@@QEAAX$$QEAV<lambda_efdfa57d1f175319df784efa44bb7b81>@@AEAV<lambda_5f0a4c1567f8adc6734073e5d1e1b35c>@@$$QEAV<lambda_2e8a7d3640ea6ccb4c2413664c2db6fd>@@@Z@4HA 0000000180074bcc     libucrt:mbctype.obj
 0004:00001bcc       $pdata$?fin$0@?0???$?RV<lambda_638799b9deba96c50f710eeac98168cd>@@AEAV<lambda_22ebabd17bc4fa466a2aca6d8deb888d>@@V<lambda_a6f7d7db0129f75315ebf26d50c089f1>@@@?$__crt_seh_guarded_call@H@@QEAAH$$QEAV<lambda_638799b9deba96c50f710eeac98168cd>@@AEAV<lambda_22ebabd17bc4fa466a2aca6d8deb888d>@@$$QEAV<lambda_a6f7d7db0129f75315ebf26d50c089f1>@@@Z@4HA 0000000180074bcc     libucrt:onexit.obj
 0004:00001bcc       $pdata$?fin$0@?0???$?RV<lambda_d80eeec6fff315bfe5c115232f3240e3>@@AEAV<lambda_6e4b09c48022b2350581041d5f6b0c4c>@@V<lambda_2358e3775559c9db80273638284d5e45>@@@?$__crt_seh_guarded_call@X@@QEAAX$$QEAV<lambda_d80eeec6fff315bfe5c115232f3240e3>@@AEAV<lambda_6e4b09c48022b2350581041d5f6b0c4c>@@$$QEAV<lambda_2358e3775559c9db80273638284d5e45>@@@Z@4HA 0000000180074bcc     libucrt:exit.obj
 0004:00001bcc       $pdata$?fin$0@?0???$?RV<lambda_2d41944a1d46af3157314b8a01080d33>@@AEAV<lambda_8f455de75cd7d7f24b4096f044d8b9e6>@@V<lambda_aa500f224e6afead328df44964fe2772>@@@?$__crt_seh_guarded_call@X@@QEAAX$$QEAV<lambda_2d41944a1d46af3157314b8a01080d33>@@AEAV<lambda_8f455de75cd7d7f24b4096f044d8b9e6>@@$$QEAV<lambda_aa500f224e6afead328df44964fe2772>@@@Z@4HA 0000000180074bcc     libucrt:per_thread_data.obj
 0004:00001bcc       $pdata$?fin$0@?0???$?RV<lambda_f2e299630e499de9f9a165e60fcd3db5>@@AEAV<lambda_2ae9d31cdba2644fcbeaf08da7c24588>@@V<lambda_40d01ff24d0e7b3814fdbdcee8eab3c7>@@@?$__crt_seh_guarded_call@X@@QEAAX$$QEAV<lambda_f2e299630e499de9f9a165e60fcd3db5>@@AEAV<lambda_2ae9d31cdba2644fcbeaf08da7c24588>@@$$QEAV<lambda_40d01ff24d0e7b3814fdbdcee8eab3c7>@@@Z@4HA 0000000180074bcc     libucrt:per_thread_data.obj
 0004:00001bcc       $pdata$?fin$0@?0???$?RV<lambda_aa87e3671a710a21b5dc78c0bdf72e11>@@AEAV<lambda_92619d2358a28f41a33ba319515a20b9>@@V<lambda_6992ecaafeb10aed2b74cb1fae11a551>@@@?$__crt_seh_guarded_call@X@@QEAAX$$QEAV<lambda_aa87e3671a710a21b5dc78c0bdf72e11>@@AEAV<lambda_92619d2358a28f41a33ba319515a20b9>@@$$QEAV<lambda_6992ecaafeb10aed2b74cb1fae11a551>@@@Z@4HA 0000000180074bcc     libucrt:per_thread_data.obj
 0004:00001bcc       $pdata$?fin$0@?0???$?RV<lambda_0ae27a3a962d80f24befdcbee591983d>@@AEAV<lambda_8d0ee55de4b1038c4002e0adecdf1839>@@V<lambda_dc504788e8f1664fe9b84e20bfb512f2>@@@?$__crt_seh_guarded_call@X@@QEAAX$$QEAV<lambda_0ae27a3a962d80f24befdcbee591983d>@@AEAV<lambda_8d0ee55de4b1038c4002e0adecdf1839>@@$$QEAV<lambda_dc504788e8f1664fe9b84e20bfb512f2>@@@Z@4HA 0000000180074bcc     libucrt:per_thread_data.obj
 0004:00001bcc       $pdata$?fin$0@?0???$?RV<lambda_450d765d439847d4c735a33c368b5fc0>@@AEAV<lambda_44731a7d0e6d81c3e6aa82d741081786>@@V<lambda_601a2a7da3b7a96e9554ac7215c4b07c>@@@?$__crt_seh_guarded_call@P6AXH@Z@@QEAAP6AXH@Z$$QEAV<lambda_450d765d439847d4c735a33c368b5fc0>@@AEAV<lambda_44731a7d0e6d81c3e6aa82d741081786>@@$$QEAV<lambda_601a2a7da3b7a96e9554ac7215c4b07c>@@@Z@4HA 0000000180074bcc     libucrt:signal.obj
 0004:00001bcc       $pdata$?fin$0@?0???$?RV<lambda_7777bce6b2f8c936911f934f8298dc43>@@AEAV<lambda_f03950bc5685219e0bcd2087efbe011e>@@V<lambda_3883c3dff614d5e0c5f61bb1ac94921c>@@@?$__crt_seh_guarded_call@H@@QEAAH$$QEAV<lambda_7777bce6b2f8c936911f934f8298dc43>@@AEAV<lambda_f03950bc5685219e0bcd2087efbe011e>@@$$QEAV<lambda_3883c3dff614d5e0c5f61bb1ac94921c>@@@Z@4HA 0000000180074bcc     libucrt:onexit.obj
 0004:00001bd8       $pdata$?filt$0@?0???R<lambda_6e4b09c48022b2350581041d5f6b0c4c>@@QEBA@XZ@4HA 0000000180074bd8     libucrt:exit.obj
 0004:00001be4       $pdata$_query_new_handler$fin$0 0000000180074be4     libucrt:new_handler.obj
 0004:00001bf0       $pdata$raise$fin$0         0000000180074bf0     libucrt:signal.obj
 0004:00001bfc       $pdata$__acrt_initialize_lowio$fin$0 0000000180074bfc     libucrt:ioinit.obj
 0004:00001bfc       $pdata$__acrt_lowio_ensure_fh_exists$fin$0 0000000180074bfc     libucrt:osfinfo.obj
 0004:00001c08       $pdata$_fcloseall$fin$0    0000000180074c08     libucrt:closeall.obj
 0004:00001c14       $pdata$?fin$0@?0???$?RV<lambda_751a882b2c74d4b022dec766aa51a29a>@@AEAV<lambda_628dfdc04ba53c8bfc02c9951375f3f5>@@V<lambda_f6c7be5f7998530c34de24c7437d6b54>@@@?$__crt_seh_guarded_call@H@@QEAAH$$QEAV<lambda_751a882b2c74d4b022dec766aa51a29a>@@AEAV<lambda_628dfdc04ba53c8bfc02c9951375f3f5>@@$$QEAV<lambda_f6c7be5f7998530c34de24c7437d6b54>@@@Z@4HA 0000000180074c14     libucrt:close.obj
 0004:00001c14       $pdata$?fin$0@?0???$?RV<lambda_a37b2b86f63e897a80ea819b0eb08c01>@@AEAV<lambda_38ce7e780aa69e748d6df282ebc68efe>@@V<lambda_99fb1378e971ab6e7edea83e3a7a83a2>@@@?$__crt_seh_guarded_call@H@@QEAAH$$QEAV<lambda_a37b2b86f63e897a80ea819b0eb08c01>@@AEAV<lambda_38ce7e780aa69e748d6df282ebc68efe>@@$$QEAV<lambda_99fb1378e971ab6e7edea83e3a7a83a2>@@@Z@4HA 0000000180074c14     libucrt:commit.obj
 0004:00001c20       $pdata$?fin$0@?0???$common_lseek@_J@@YA_JH_JH@Z@4HA 0000000180074c20     libucrt:lseek.obj
 0004:00001c20       $pdata$_write$fin$0        0000000180074c20     libucrt:write.obj
 0004:00001c2c       $pdata$?fin$0@?0???$?RV<lambda_410d79af7f07d98d83a3f525b3859a53>@@AEAV<lambda_3e16ef9562a7dcce91392c22ab16ea36>@@V<lambda_38119f0e861e05405d8a144b9b982f0a>@@@?$__crt_seh_guarded_call@X@@QEAAX$$QEAV<lambda_410d79af7f07d98d83a3f525b3859a53>@@AEAV<lambda_3e16ef9562a7dcce91392c22ab16ea36>@@$$QEAV<lambda_38119f0e861e05405d8a144b9b982f0a>@@@Z@4HA 0000000180074c2c     libucrt:wsetlocale.obj
 0004:00001c38       $pdata$_ctrlfp$filt$0      0000000180074c38     libucrt:fpctrl.obj
 0004:00001c44       $pdata$?fin$0@?0??update_thread_multibyte_data_internal@@YAPEAU__crt_multibyte_data@@QEAU__acrt_ptd@@QEAPEAU1@@Z@4HA 0000000180074c44     libucrt:mbctype.obj
 0004:00001c50       $pdata$__acrt_update_thread_locale_data$fin$0 0000000180074c50     libucrt:locale_refcounting.obj
 0004:00001c5c       $pdata$_IsNonwritableInCurrentImage$filt$0 0000000180074c5c     LIBCMT:pesect.obj
 0004:00001c68       $pdata$??__Fclassic_locale@std@@YAXXZ 0000000180074c68     libcpmt:locale0.obj
 0004:00001c74       $pdata$??__Finit_atexit@@YAXXZ 0000000180074c74     libcpmt:iosptrs.obj
 0005:00000060       $R000000                   0000000180075060     * linker generated manifest res *

 Exports

  ordinal    name

        1    _register_woff2_decode_
